
../Obj/mega328_fish8840/mega328_fish8840.elf:     file format elf32-avr

Sections:
Idx Name          Size      VMA       LMA       File off  Algn
  0 .data         00000000  00800100  00800100  000081d7  2**0
                  CONTENTS, ALLOC, LOAD, DATA
  1 .text         00007dc0  00000000  00000000  00000094  2**1
                  CONTENTS, ALLOC, LOAD, READONLY, CODE
  2 .bss          000000be  00800100  00800100  00007e54  2**0
                  ALLOC
  3 .eeprom       00000383  00810000  00810000  00007e54  2**0
                  CONTENTS, ALLOC, LOAD, READONLY, DATA
  4 .comment      00000030  00000000  00000000  000081d7  2**0
                  CONTENTS, READONLY
  5 .note.gnu.avr.deviceinfo 00000040  00000000  00000000  00008208  2**2
                  CONTENTS, READONLY
  6 .debug_aranges 000006d8  00000000  00000000  00008248  2**3
                  CONTENTS, READONLY, DEBUGGING
  7 .debug_info   0000c6a1  00000000  00000000  00008920  2**0
                  CONTENTS, READONLY, DEBUGGING
  8 .debug_abbrev 00002550  00000000  00000000  00014fc1  2**0
                  CONTENTS, READONLY, DEBUGGING
  9 .debug_line   0000338e  00000000  00000000  00017511  2**0
                  CONTENTS, READONLY, DEBUGGING
 10 .debug_frame  00000d90  00000000  00000000  0001a8a0  2**2
                  CONTENTS, READONLY, DEBUGGING
 11 .debug_str    000018b4  00000000  00000000  0001b630  2**0
                  CONTENTS, READONLY, DEBUGGING
 12 .debug_loc    00007033  00000000  00000000  0001cee4  2**0
                  CONTENTS, READONLY, DEBUGGING
 13 .debug_ranges 00000468  00000000  00000000  00023f17  2**0
                  CONTENTS, READONLY, DEBUGGING

Disassembly of section .text:

00000000 <__vectors>:
       0:	0c 94 1c 08 	jmp	0x1038	; 0x1038 <__ctors_end>
       4:	0c 94 2e 08 	jmp	0x105c	; 0x105c <__bad_interrupt>
       8:	0c 94 2e 08 	jmp	0x105c	; 0x105c <__bad_interrupt>
       c:	0c 94 2e 08 	jmp	0x105c	; 0x105c <__bad_interrupt>
      10:	0c 94 2e 08 	jmp	0x105c	; 0x105c <__bad_interrupt>
      14:	0c 94 f7 31 	jmp	0x63ee	; 0x63ee <__vector_5>
      18:	0c 94 2e 08 	jmp	0x105c	; 0x105c <__bad_interrupt>
      1c:	0c 94 b1 11 	jmp	0x2362	; 0x2362 <__vector_7>
      20:	0c 94 2e 08 	jmp	0x105c	; 0x105c <__bad_interrupt>
      24:	0c 94 2e 08 	jmp	0x105c	; 0x105c <__bad_interrupt>
      28:	0c 94 13 2a 	jmp	0x5426	; 0x5426 <__vector_10>
      2c:	0c 94 db 31 	jmp	0x63b6	; 0x63b6 <__vector_11>
      30:	0c 94 e9 31 	jmp	0x63d2	; 0x63d2 <__vector_12>
      34:	0c 94 ed 29 	jmp	0x53da	; 0x53da <__vector_13>
      38:	0c 94 2e 08 	jmp	0x105c	; 0x105c <__bad_interrupt>
      3c:	0c 94 2e 08 	jmp	0x105c	; 0x105c <__bad_interrupt>
      40:	0c 94 b5 31 	jmp	0x636a	; 0x636a <__vector_16>
      44:	0c 94 2e 08 	jmp	0x105c	; 0x105c <__bad_interrupt>
      48:	0c 94 2e 08 	jmp	0x105c	; 0x105c <__bad_interrupt>
      4c:	0c 94 2e 08 	jmp	0x105c	; 0x105c <__bad_interrupt>
      50:	0c 94 2e 08 	jmp	0x105c	; 0x105c <__bad_interrupt>
      54:	0c 94 b2 11 	jmp	0x2364	; 0x2364 <__vector_21>
      58:	0c 94 2e 08 	jmp	0x105c	; 0x105c <__bad_interrupt>
      5c:	0c 94 2e 08 	jmp	0x105c	; 0x105c <__bad_interrupt>
      60:	fd c7       	rjmp	.+4090   	; 0x105c <__bad_interrupt>
      62:	00 00       	nop
      64:	fb c7       	rjmp	.+4086   	; 0x105c <__bad_interrupt>
      66:	00 00       	nop
      68:	37 0e       	add	r3, r23
      6a:	39 0e       	add	r3, r25
      6c:	3d 0e       	add	r3, r29
      6e:	47 0e       	add	r4, r23
      70:	45 0e       	add	r4, r21
      72:	41 0e       	add	r4, r17
      74:	41 0e       	add	r4, r17
      76:	43 0e       	add	r4, r19
      78:	4d 0e       	add	r4, r29
      7a:	4d 0e       	add	r4, r29

0000007c <samplingADC>:
	lds	r7, ADMUX
#endif

; r25 is span

	mov	r30, r22		; r31:r30 := ptr
      7c:	e6 2f       	mov	r30, r22
	mov	r31, r23
      7e:	f7 2f       	mov	r31, r23

	cpi	r25, 0		; set nonsensical span of 0 to 1
      80:	90 30       	cpi	r25, 0x00	; 0
	brne	L16
      82:	09 f4       	brne	.+2      	; 0x86 <L16>
	inc	r25
      84:	93 95       	inc	r25

00000086 <L16>:
L16:

 	AOUT	R_PORT, R14	;   Rport_0
      86:	e5 b8       	out	0x05, r14	; 5
 	AOUT	R_DDR, R12	;   Rddr_0
      88:	c4 b8       	out	0x04, r12	; 4

 	ldi	r27, (1<<ADEN) | (1<<ADSC) | (1<<ADATE) | (1<<ADIF) | (0<<ADIE) | AUTO_CLOCK_DIV;
      8a:	b7 ef       	ldi	r27, 0xF7	; 247
 	sts	ADCSRA, r27		; start first ADC with ext trigger, but start immediately also, to get done that first conversion which takes extra long
      8c:	b0 93 7a 00 	sts	0x007A, r27
 	ldi	r26, (1<<ADTS2) | (0<<ADTS1) | (1<<ADTS0); 
      90:	a5 e0       	ldi	r26, 0x05	; 5
 	sts	ADCSRB, r26		; trigger source is COUNTER1 compare match B
      92:	a0 93 7b 00 	sts	0x007B, r26

        ldi	r26, (1<<WGM12)
      96:	a8 e0       	ldi	r26, 0x08	; 8
 	sts	TCCR1B, r26		; TCCR1B = 0;  stop counter1
      98:	a0 93 81 00 	sts	0x0081, r26
 	sts	TCCR1A, r1  		; TCCR1A = 0;  set counter1 to Clear Timer on Compare Match mode
      9c:	10 92 80 00 	sts	0x0080, r1
	ldi	r26, 0xff
      a0:	af ef       	ldi	r26, 0xFF	; 255
 	sts	TCNT1H, r26		; set initial counter to -1
      a2:	a0 93 85 00 	sts	0x0085, r26
 	sts	TCNT1L, r26
      a6:	a0 93 84 00 	sts	0x0084, r26
 	ldi	r26, (1<<OCF1B)|(1<<OCF1A)
      aa:	a6 e0       	ldi	r26, 0x06	; 6
 	sts	TIFR1, r26		; reset both counter compare interrupts, otherwise ADC might be started prematurely
      ac:	a0 93 36 00 	sts	0x0036, r26
 	sts	OCR1BH, r1		; schedule start of ADC cycle at counter=0, i.e., essentially immediately
      b0:	10 92 8b 00 	sts	0x008B, r1
 	sts	OCR1BL, r1		; 
      b4:	10 92 8a 00 	sts	0x008A, r1
	pop	r24
#endif

				; prepare timing and registers for main loop
					; r27:26 will contain the TOP value for the counter, i.e., 1 less than the pulse-generation period
	ldi 	r27, hi8(TICS_PER_ADC_CYCLE-1)
      b8:	b6 e0       	ldi	r27, 0x06	; 6
	ldi 	r26, lo8(TICS_PER_ADC_CYCLE-1)
      ba:	af e7       	ldi	r26, 0x7F	; 127
	sub 	r26, r25		; this defaults to 1663-span, but may need to be incremented if measurement will take longer due to large span
      bc:	a9 1b       	sub	r26, r25
	ldi	r21, 1			; r21 will contain number of ADC readings per pulse
      be:	51 e0       	ldi	r21, 0x01	; 1
 	mov	r19, r25		; load span into r19; total measurement will cover r19*nn tics, which is upperbounded by 256*r19
      c0:	39 2f       	mov	r19, r25

000000c2 <L14>:
 					; one ADC cycle is 13*128 (or 13*64) tics, but we need some time for generating the pulse, so can fit say at most 10*128 = 5*256 tics (or 8*64 = 2*256; 10*64 isn't a multiple of 256, so would require more code)
 					; NEW: leave a bit more space so we can also do the long train of pulses for crystals
L14:
 	cpi	r19, (1+10*TICS_PER_ADC_CLOCK/256)	; if "remaining" span <=5 (or <=2), we're fine, don't need to increase pulse generation period
      c2:	36 30       	cpi	r19, 0x06	; 6
#ifdef WITH_XTAL
	sbrc	r24, smplADC_many
 	cpi	r19, (2+2*TICS_PER_ADC_CLOCK/256)	; in case of long pulse train: if "remaining" span <=3 (or <=2), we're fine, don't need to increase pulse generation period
#endif
 	brmi	L13
      c4:	2a f0       	brmi	.+10     	; 0xd0 <L13>
 	subi	r26, lo8(-TICS_PER_ADC_CYCLE)	; otherwise, extend pulse generation period by 1664
      c6:	a0 58       	subi	r26, 0x80	; 128
 	sbci	r27, hi8(-TICS_PER_ADC_CYCLE)		
      c8:	b9 4f       	sbci	r27, 0xF9	; 249
 	inc	r21			; increment number of ADC readings per pulse
      ca:	53 95       	inc	r21
 	subi	r19, 3*(TICS_PER_ADC_CLOCK/64)		; each extra ADC cycle included in pulse generation period makes space for 13*128 (or 13*64) tics; for simplicity we (safely) calculate as if it were 12*128 = 6*256 (or 12*64 = 3*256)
      cc:	36 50       	subi	r19, 0x06	; 6
 	rjmp	L14			; check whether this was enough
      ce:	f9 cf       	rjmp	.-14     	; 0xc2 <L14>

000000d0 <L13>:
L13:
 	sts	OCR1AH, r27		; store calculated TOP value for counter 1
      d0:	b0 93 89 00 	sts	0x0089, r27
 	sts	OCR1AL, r26		; 
      d4:	a0 93 88 00 	sts	0x0088, r26

000000d8 <wait_adc>:



wait_adc:
 	lds	r26, ADCSRA		
      d8:	a0 91 7a 00 	lds	r26, 0x007A
 	sbrs	r26, ADIF
      dc:	a4 ff       	sbrs	r26, 4
 	rjmp	wait_adc 		; wait until the initial conversion finishes
      de:	fc cf       	rjmp	.-8      	; 0xd8 <wait_adc>
 	ldi	r27, (1<<ADEN) | (1<<ADATE) | (1<<ADIF) | (0<<ADIE) | AUTO_CLOCK_DIV;
      e0:	b7 eb       	ldi	r27, 0xB7	; 183
 	sts	ADCSRA, r27		; reset ADC interrupt flag
      e2:	b0 93 7a 00 	sts	0x007A, r27

 	ldi	r26,(1<<OCIE1A)
      e6:	a2 e0       	ldi	r26, 0x02	; 2
 	sts	TIMSK1, r26		; disable counter1 compare B Interrupt (used to trigger ADC), enable counter1 compare A Interrupt (used to exit sleep to generate next pulse)
      e8:	a0 93 6f 00 	sts	0x006F, r26

 	ldi	r26, (1<<CS10)|(1<<WGM12)
      ec:	a9 e0       	ldi	r26, 0x09	; 9
 	sts	TCCR1B, r26		; start counter1 at full speed
      ee:	a0 93 81 00 	sts	0x0081, r26

	ldi	r22, 2			; skip first ADC result since it is nonsense (it predates the start of the pulse or step)
      f2:	62 e0       	ldi	r22, 0x02	; 2

	ldi	r26, 0			; switch ADC to free-running mode (we can do that here because can be sure that by now it has been triggered)
      f4:	a0 e0       	ldi	r26, 0x00	; 0
	sts	ADCSRB, r26		; 
      f6:	a0 93 7b 00 	sts	0x007B, r26

000000fa <backtosleep>:
; - ... |smplADC_many:        4 times longer bunch of pulses via Rport_1
; - ... |smplADC_sck:         short-circuit the DUT for a while after applying pulses
; - smplADC_direct:           single pulse via the ADC pins, i.e. with no series resistance ("direct" pulse)

backtosleep:
	ldi	r26, (1<<SE)
      fa:	a1 e0       	ldi	r26, 0x01	; 1
	sts	SMCR, r26
      fc:	a0 93 53 00 	sts	0x0053, r26
	sleep
     100:	88 95       	sleep

	; toggle output (back) to the idle state 
 	AOUT	R_PORT, R14	;   Rport_0
     102:	e5 b8       	out	0x05, r14	; 5
 	AOUT	R_DDR, R12	;   Rddr_0
     104:	c4 b8       	out	0x04, r12	; 4

	sbrs 	r24, smplADC_direct
     106:	84 ff       	sbrs	r24, 4
	rjmp	stepresponse
     108:	19 c0       	rjmp	.+50     	; 0x13c <stepresponse>

 	; wait a bit less than 256 ticks; precise value determined experimentally, by looking at the sampled data and aligning start of response with first sample
#define Delay_pulse (201-Lessdelay)

 	ldi	r26, (Delay_pulse/3)
     10a:	a3 e4       	ldi	r26, 0x43	; 67

0000010c <L11>:
	nop
#endif
#if Delay_pulse%3>1
	nop
#endif
L11:	dec	r26
     10c:	aa 95       	dec	r26
	brne	L11
     10e:	f1 f7       	brne	.-4      	; 0x10c <L11>
	; do the "direct" pulse, i.e., apply the pulse via de ADC pins, with no series resistance
	push 	r30
     110:	ef 93       	push	r30
	push	r31
     112:	ff 93       	push	r31
	AIN	r30, ADC_DDR	;
     114:	e7 b1       	in	r30, 0x07	; 7
	AIN	r31, ADC_PORT	;
     116:	f8 b1       	in	r31, 0x08	; 8
	ldi	r26, (1<<TP3)	;
     118:	a4 e0       	ldi	r26, 0x04	; 4
	sbrc	R12, PIN_RL2	; is the bit for TP2 resistor set?
     11a:	c2 fc       	sbrc	r12, 2
	ldi	r26, (1<<TP2)	;
     11c:	a2 e0       	ldi	r26, 0x02	; 2
	sbrc	R12, PIN_RL1	; ist the bit for TP3 resistor set?
     11e:	c0 fc       	sbrc	r12, 0
	ldi	r26, (1<<TP1)	;
     120:	a1 e0       	ldi	r26, 0x01	; 1
	; r26 now hold the bit for the direct ADC port
	mov	r27, r31	; ADC_PORT state
     122:	bf 2f       	mov	r27, r31
	or	r27, r26	; r27 is the for ADC port with HiPin set to 1
     124:	ba 2b       	or	r27, r26
	or	r26, r30	; r26 enables the HiPin and LoPin output,  ADC_DDR
     126:	ae 2b       	or	r26, r30
	AOUT	ADC_PORT, r27	; set Hipin to high
     128:	b8 b9       	out	0x08, r27	; 8
	AOUT	R_DDR, R16	; R_DDR = Rddr1 open all resistor ports
     12a:	04 b9       	out	0x04, r16	; 4
	AOUT	ADC_DDR, r26	; one clock tic high without resistor at HiPin, current about 5V/(42 Ohm)=119mA !!!
     12c:	a7 b9       	out	0x07, r26	; 7
	AOUT	ADC_DDR, r30	; disable the HiPin output
     12e:	e7 b9       	out	0x07, r30	; 7
	AOUT	ADC_PORT, r31	; reset Hipin to low
     130:	f8 b9       	out	0x08, r31	; 8
	pop	r31
     132:	ff 91       	pop	r31
	pop	r30
     134:	ef 91       	pop	r30
	rjmp	waitevent
     136:	0a c0       	rjmp	.+20     	; 0x14c <genfreq_end>

00000138 <backtosleep2>:


backtosleep2:
	jmp	backtosleep
     138:	0c 94 7d 00 	jmp	0xfa	; 0xfa <backtosleep>

0000013c <stepresponse>:
#ifdef WITH_XTAL
 #define Delay_step (211-Lessdelay)
#else
 #define Delay_step (214-Lessdelay)
#endif
 	ldi	r26, (Delay_step/3)
     13c:	a7 e4       	ldi	r26, 0x47	; 71
	...

00000140 <L10>:
	nop
#endif
#if Delay_step%3>1
	nop
#endif
L10:	dec	r26
     140:	aa 95       	dec	r26
	brne	L10
     142:	f1 f7       	brne	.-4      	; 0x140 <L10>

	AOUT	R_PORT, R18	;  = Rport_1
     144:	25 b9       	out	0x05, r18	; 5
	AOUT	R_PORT, R14	;  = Rport_0
     146:	e5 b8       	out	0x05, r14	; 5
	nop
     148:	00 00       	nop
				; generate start of step signal
				; this is (should be) aligned with the first sample
 	AOUT	R_DDR, R16	;  R_DDR = Rddr_1
     14a:	04 b9       	out	0x04, r16	; 4

0000014c <genfreq_end>:
genfreq_end:



waitevent:			; waiting loop: we wait until either counter1 is almost going to be reset, or the AD converter has a result
	lds	r26, TCNT1L	; need to read TCNT1L to latch TCNT1H
     14c:	a0 91 84 00 	lds	r26, 0x0084
	lds	r26, TCNT1H
     150:	a0 91 85 00 	lds	r26, 0x0085
	lds	r27, OCR1AH
     154:	b0 91 89 00 	lds	r27, 0x0089
	inc	r26
     158:	a3 95       	inc	r26
	cp	r26, r27	; check if TCNT1H is getting near OCR1AH; if so, go to sleep to be sure not to miss the interrupt
     15a:	ab 17       	cp	r26, r27
	brcc	backtosleep2
     15c:	68 f7       	brcc	.-38     	; 0x138 <backtosleep2>
	breq	L27
	AOUT 	ADC_DDR,r9	; set ADC_DDR back to its original non-shortcircuiting value
L26:
#endif

 	lds	r26, ADCSRA	; otherwise:
     15e:	a0 91 7a 00 	lds	r26, 0x007A
 	sbrs	r26, ADIF	; check if conversion done (interrupt flag is raised)
     162:	a4 ff       	sbrs	r26, 4
 	rjmp	waitevent	; if not, go back to checking counter
     164:	f3 cf       	rjmp	.-26     	; 0x14c <genfreq_end>

 				; the ADC gives a result
 	ldi	r27, (1<<ADEN) | (1<<ADATE) | (1<<ADIF) | (0<<ADIE) | AUTO_CLOCK_DIV;
     166:	b7 eb       	ldi	r27, 0xB7	; 183
 	sts	ADCSRA, r27	; reset ADC interrupt flag
     168:	b0 93 7a 00 	sts	0x007A, r27
L22:
	sts	ADMUX, r19
L23:
#endif
 				; now need to check whether we should read or discard it
	dec	r22		; r22 counts AD conversions within one pulse cycle
     16c:	6a 95       	dec	r22

0000016e <brnewaitevent>:
brnewaitevent:
	brne	waitevent	; if r22 not yet zero, it's not yet our turn
     16e:	71 f7       	brne	.-36     	; 0x14c <genfreq_end>


	lds	r22, ADCL	; read ADC
     170:	60 91 78 00 	lds	r22, 0x0078
	lds	r23, ADCH
     174:	70 91 79 00 	lds	r23, 0x0079
	sbc 	r23, r19
	add	r4, r22		; update DC<<2, namely  dc := (sample-dc)/8 ;
	adc	r5, r23
#endif

	ld	r19, z		; and store, accumulating if that bit in r24 is set
     178:	30 81       	ld	r19, Z
	sbrc 	r24, smplADC_cumul
     17a:	86 fd       	sbrc	r24, 6
	add	r22, r19
     17c:	63 0f       	add	r22, r19
	st	z+, r22
     17e:	61 93       	st	Z+, r22
	ld	r19, z
     180:	30 81       	ld	r19, Z
	sbrc 	r24, smplADC_cumul
     182:	86 fd       	sbrc	r24, 6
	adc	r23, r19
     184:	73 1f       	adc	r23, r19
	sbrs    r24, smplADC_8bit
     186:	80 ff       	sbrs	r24, 0
	st	z+, r23
     188:	71 93       	st	Z+, r23

	mov	r22, r21		; reinitialize r22
     18a:	65 2f       	mov	r22, r21

	dec	r20			; decrement counter of remaining samples
     18c:	4a 95       	dec	r20
;	brne	waitevent
	brne	brnewaitevent
     18e:	79 f7       	brne	.-34     	; 0x16e <brnewaitevent>

00000190 <end>:

end:
 	AOUT	TIMSK1, r1	; disable counter1 interrupts
     190:	10 92 6f 00 	sts	0x006F, r1
 	AOUT	TCCR1B, r1	; stop counter1
     194:	10 92 81 00 	sts	0x0081, r1
 	ldi	r27, AUTO_CLOCK_DIV;
     198:	b7 e0       	ldi	r27, 0x07	; 7
 	AOUT	ADCSRA, r27	; disable ADC
     19a:	b0 93 7a 00 	sts	0x007A, r27
L30c:
	pop	r17
	pop	r5
	pop	r4
#endif
	ret
     19e:	08 95       	ret

000001a0 <__trampolines_end>:
     1a0:	d4 01       	movw	r26, r8
     1a2:	cd 01       	movw	r24, r26
     1a4:	c6 01       	movw	r24, r12

000001a6 <bmp_vakdiode>:
     1a6:	18 00 07 20 08 08 08 f8 00 00 00 20 60 a0 3f a0     ... ....... `.?.
     1b6:	60 20 02 02 02 ff 02 02 02 10 10 10 1f 00 00 00     ` ..............

000001c6 <bmp_three_data>:
     1c6:	05 08 42 81 89 89 76                                ..B...v

000001cd <bmp_two_data>:
     1cd:	05 08 c2 a1 91 89 86                                .......

000001d4 <bmp_one_data>:
     1d4:	05 08 00 04 02 ff 00                                .......

000001db <bmp_pnp>:
     1db:	10 10 05 08 f8 78 38 58 88                          .....x8X.

000001e4 <bmp_p_jfet>:
     1e4:	09 10 03 08 1c 3e 7f                                .....>.

000001eb <bmp_p_d_mos>:
     1eb:	0d 08 07 10 ff 81 81 81 f1 e1 c1 ff 40 40 40 47     ............@@@G
     1fb:	43 41                                               CA

000001fd <bmp_n_d_mos>:
     1fd:	0d 08 01 10 ff ff                                   ......

00000203 <bmp_p_e_mos>:
     203:	11 08 03 10 f1 e1 c1 47 43 41                       .......GCA

0000020d <bmp_p_d_igbt>:
     20d:	0e 00 08 20 21 21 12 20 60 e0 e0 e0 fe fe 04 02     ... !!. `.......
     21d:	01 00 01 03 7f 7f 21 c2 c4 c4 c0 40 94 84 00 07     ......!....@....
     22d:	03 01 02 04                                         ....

00000231 <bmp_n_d_igbt>:
     231:	0e 08 02 10 fe fe 7f 7f 00 00 00 00                 ............

0000023d <bmp_p_e_igbt>:
     23d:	11 00 05 20 20 60 e0 e0 e0 02 01 00 01 03 c2 c4     ...  `..........
     24d:	c4 c0 40 07 03 01 02 04                             ..@.....

00000255 <PinRLRHADCtab>:
     255:	01 04 10 09 0a 0c                                   ......

0000025b <HelpCalibration_str>:
     25b:	42 69 13 9a 61 9b 69 92 70 79 99 9f 65 21 20 12     Bi..a.i.py..e! .
     26b:	6f 92 98 ff 97 61 9e 79 63 9f 98 9f 98 20 9a 61     o....a.yc.... .a
     27b:	9b 69 92 70 79 93 61 9d 9d a7 20 97 61 9c 9a 9d     .i.py.a... .a...
     28b:	69 9f a4 ff 9f 70 98 20 9a 6f 9d 9f 61 9a 9f 98     i....p. .o..a...
     29b:	ff 54 50 2d 31 32 33 20 9f 61 ff 9d 61 9f 98 63     .TP-123 .a..a..c
     2ab:	9d 69 9f a4 20 9a 9d 6f 9e 9a 79 ff 22 54 45 53     .i.. ..o..y."TES
     2bb:	54 22 2e 20 88 69 13 9f 93 65 70 13 69 9f a4 20     T". .i...ep.i.. 
     2cb:	50 65 96 98 9c ff 63 61 9c 6f 9f 65 63 9f 79 20     Pe....ca.o.ec.y 
     2db:	16 65 ff 70 61 97 ff 9d 61 96 9c 69 9f a4 20 22     .e.pa...a..i.. "
     2eb:	54 45 53 54 22 ff 93 9e 70 6f 13 6f 93 96 20 32     TEST"...po.o.. 2
     2fb:	63 2e ff 50 6f 97 69 9c 9a 9d 69 9f a4 20 9a 6f     c..Po.i...i.. .o
     30b:	9d 9f 61 9a 9f 98 ff 9e 69 63 9b a7 20 9e 6f 93     ..a.....ic.. .o.
     31b:	69 13 6f 9c 9b 65 9d 9d a7 20 22 49 97 6f 9b a7     i.o..e... "I.o..
     32b:	15 69 a7 21 22 20 88 69 13 9a 9b a6 a0 69 9f a4     .i.!" .i.....i..
     33b:	ff a7 9a 69 63 2d 9d 98 99 ff 9a 6f 9d 13 65 9d     ...ic-.....o..e.
     34b:	63 61 9f 6f 70 20 92 69 9b a4 a1 65 20 31 30 30     ca.op .i...e 100
     35b:	6e 46 20 13 6f 20 54 50 31 20 9f 61 20 54 50 33     nF .o TP1 .a TP3
     36b:	20 9a 6f 9b 98 20 9e 6f 93 69 13 6f 9c 9b 65 9d      .o.. .o.i.o..e.
     37b:	9d a7 3a 20 22 31 08 03 08 33 ff 3e 31 30 30 6e     ..: "1...3.>100n
     38b:	46 22 20 93 69 13 6f 92 70 61 96 61 65 9f a4 63     F" .i.o.pa.ae..c
     39b:	a7 2e 20 88 70 6f 94 70 61 9c 79 20 9f 61 20 13     .. .po.pa.y .a .
     3ab:	6f 9a 79 9c 65 9d 9f 61 15 69 a6 20 13 98 93 2e     o.y.e..a.i. ....
     3bb:	20 9d 61 20 68 74 74 70 3a 2f 2f 20 6d 69 6b 72      .a http:// mikr
     3cb:	6f 63 6f 6e 74 72 6f 6c 6c 65 72 2e 20 6e 65 74     ocontroller. net
     3db:	2f 74 72 61 6e 73 69 73 74 6f 72 20 74 65 73 74     /transistor test
     3eb:	65 72 20 00                                         er .

000003ef <RHtab>:
     3ef:	b9 03 87 03 58 03 2e 03 07 03 e4 02 c3 02 a4 02     ....X...........
     3ff:	88 02                                               ..

00000401 <LogTab>:
     401:	00 00 14 00 29 00 3e 00 53 00 69 00 80 00 97 00     ....).>.S.i.....
     411:	ae 00 c6 00 df 00 f8 00 12 01 2d 01 49 01 65 01     ..........-.I.e.
     421:	82 01 a0 01 be 01 de 01 ff 01 21 02 44 02 68 02     ..........!.D.h.
     431:	8e 02 b5 02 de 02 09 03 35 03 64 03 94 03 c8 03     ........5.d.....
     441:	fe 03 37 04 73 04 b4 04 f9 04 43 05 93 05 ea 05     ..7.s.....C.....
     451:	49 06 b3 06 29 07 ae 07 48 08 ff 08 de 09 fd 0a     I...)...H.......
     461:	93 0c 48 0f 99 1b                                   ..H...

00000467 <bigfont>:
	...
     477:	1e 21 21 21 12 00 80 7f 00 00 00 7e 4a 4a 4a 34     .!!!.......~JJJ4
     487:	00 00 00 00 00 00 fc 40 20 10 08 04 02 01 00 00     .......@ .......
     497:	00 01 01 01 01 01 01 01 01 01 01 01 01 01 7f 04     ................
     4a7:	88 d0 e0 f0 f8 00 00 00 00 00 00 00 00 00 00 00     ................
     4b7:	00 00 00 00 00 00 00 fc 94 94 84 00 00 01 02 fc     ................
	...
     4d3:	1e 21 21 21 12 e0 c0 80 40 20 10 0f 00 00 00 c0     .!!!....@ ......
     4e3:	20 20 20 40 00 00 00 fc 00 00 9e 9e 04 03 03 03        @............
     4f3:	03 02 00 00 00 20 20 23 24 25 25 23 20 20 20 3f     .....  #$%%#   ?
     503:	00 00 7b 7b 21 42 84 04 80 c0 00 00 00 00 00 00     ..{{!B..........
	...
     51b:	fc 94 94 84 00 04 06 07 07 07 08 f0 00 00 00 00     ................
	...
     533:	00 80 3f 21 21 12 0c 00 00 00 00 ff 00 00 00 f0     ..?!!...........
     543:	08 48 48 c8 00 00 fe 00 00 e7 81 81 81 c1 e1 f1     .HH.............
     553:	81 81 81 01 00 20 20 20 21 21 21 20 20 20 3f 00     .....   !!!   ?.
     563:	00 f3 40 40 40 41 43 47 40 40 7f c0 00 00 00 00     ..@@@ACG@@......
	...
     57b:	00 00 48 94 94 94 64 00 00 00 00 ff 00 00 00 00     ..H...d.........
	...
     597:	3f 21 21 12 0c 00 00 ff 00 00 00 f0 08 48 48 d0     ?!!..........HH.
     5a7:	00 00 00 00 00 00 fe fe 04 04 04 04 04 04 04 07     ................
     5b7:	00 08 08 08 09 09 09 08 08 7f 3e 1c 08 08 7f 7f     ..........>.....
     5c7:	20 20 20 20 20 20 20 e0 00 00 00 00 00 00 00 00            .........
	...
     5df:	48 94 94 94 64 00 00 ff 00 00 00 00 00 00 00 00     H...d...........
     5ef:	00 00 00 ff 00 3c 0a 09 0a 3c 00 22 31 29 29 26     .....<...<."1))&
     5ff:	00 00 82 86 8e 9e be fe fe be de ef f6 fa fe fe     ................
     60f:	fa f2 e2 c2 82 00 00 00 08 08 08 04 02 79 84 a4     .............y..
     61f:	a4 68 00 ff 00 00 00 00 00 00 00 00 00 00 00 00     .h..............
	...
     637:	00 00 00 ff 00 00 f0 28 24 28 f0 00 10 08 fc 00     .......($(......
	...
     64f:	00 00 00 3c 0a 09 0a 3c 00 ff 00 00 00 00 00 00     ...<...<........
	...
     66b:	04 0c 1c 3c 7c ff 7c 3c 1c 0c 04 00 00 00 00 00     ...<|.|<........
     67b:	00 9e a1 a9 a9 9a 80 43 23 13 0b 07 03 ff 03 03     .......C#.......
     68b:	03 03 03 03 00 00 00 00 00 00 00 00 00 00 00 78     ...............x
     69b:	84 84 84 48 00 ff 00 00 00 00 00 00 00 00 00 f0     ...H............
     6ab:	08 04 e2 11 09 09 09 09 09 09 09 09 09 11 21 c2     ..............!.
     6bb:	04 08 10 e0 00 00 00 01 02 04 04 07 00 00 00 00     ................
     6cb:	00 80 40 20 10 88 44 23 10 08 04 03 00 00 00 00     ..@ ..D#........
     6db:	00 00 00 00 00 00 00 fe 01 00 fc 02 01 00 00 00     ................
	...
     6f7:	00 00 00 79 49 49 79 00 00 00 00 00 00 00 00 00     ...yIIy.........

00000707 <font>:
     707:	40 f0 10 10 10 f0 40 00 01 01 01 01 01 00 40 f8     @.....@.......@.
     717:	f0 e0 40 f8 40 00 03 01 00 00 03 00 40 f8 40 e0     ..@.@.......@.@.
     727:	f0 f8 40 00 03 00 00 01 03 00 40 fc fc 00 fc fc     ..@.......@.....
     737:	40 00 07 07 00 07 07 00 e0 10 10 10 e0 00 00 04     @...............
     747:	07 00 07 04 00 00 00 f8 00 00 f0 00 00 0e 01 02     ................
     757:	01 03 02 00 08 08 08 08 08 f8 40 02 02 02 02 02     ..........@.....
     767:	03 00 40 f8 08 08 08 08 08 00 03 02 02 02 02 02     ..@.............
     777:	40 40 40 40 40 40 40 00 00 00 00 00 00 00 40 40     @@@@@@@.......@@
     787:	c0 00 00 80 00 00 00 01 02 02 01 02 00 80 00 00     ................
     797:	c0 40 40 02 01 02 02 01 00 00 00 fc 02 12 12 ec     .@@.............
     7a7:	00 0e 03 00 01 01 00 00 00 00 00 00 00 00 00 00     ................
	...
     7e7:	00 f8 04 02 fe 02 00 0c 07 04 04 07 0c 00 fe 00     ................
     7f7:	00 00 fe 00 00 07 04 04 04 07 0c 00 fe 00 fe 00     ................
     807:	fe 00 00 07 04 07 04 07 0c 00 00 e0 10 08 f8 08     ................
     817:	00 0c 07 04 04 07 0c 00 e0 14 fc 14 e0 00 00 01     ................
     827:	0a 0f 0a 01 00 00 f8 00 00 00 f8 00 00 07 04 04     ................
     837:	04 07 0c 00 f8 00 f8 00 f8 00 00 07 04 07 04 07     ................
     847:	0c 00 00 00 00 00 00 00 00 00 00 00 00 00 00 00     ................
	...
     8d7:	3c fe 3c 00 00 00 00 00 1b 00 00 00 00 16 0e 00     <.<.............
     8e7:	16 0e 00 00 00 00 00 00 00 00 08 fe 08 08 fe 08     ................
     8f7:	00 01 07 01 01 07 01 00 38 fe 44 84 fe 08 00 04     ........8.D.....
     907:	1f 08 08 1f 07 00 1c 14 9c 40 20 18 00 06 01 00     .........@ .....
     917:	0e 0a 0e 00 88 54 22 54 88 c0 00 03 04 04 02 01     .....T"T........
     927:	06 00 00 00 16 0e 00 00 00 00 00 00 00 00 00 00     ................
     937:	f0 08 04 02 02 00 00 03 04 08 10 10 00 00 00 02     ................
     947:	02 04 08 f0 00 00 10 10 08 04 03 00 48 50 e0 e0     ............HP..
     957:	50 48 00 02 01 00 00 01 02 00 00 40 40 f0 40 40     PH.........@@.@@
     967:	00 00 00 00 01 00 00 00 00 00 00 00 00 00 00 00     ................
     977:	00 16 0e 00 00 00 40 40 40 40 40 40 00 00 00 00     ......@@@@@@....
	...
     993:	00 06 06 00 00 00 00 00 80 40 20 10 00 02 01 00     .........@ .....
     9a3:	00 00 00 00 f8 04 02 02 04 f8 00 01 02 04 04 02     ................
     9b3:	01 00 00 08 04 fe 02 00 00 00 00 04 07 04 00 00     ................
     9c3:	08 04 82 42 24 18 00 06 05 04 04 04 06 00 06 02     ...B$...........
     9d3:	12 12 2a c6 00 01 02 04 04 02 01 00 e0 98 86 80     ..*.............
     9e3:	f8 80 00 00 00 00 04 07 04 00 3e 22 12 12 22 c6     ..........>"..".
     9f3:	00 01 02 04 04 02 01 00 f8 24 12 12 22 c0 00 01     .........$.."...
     a03:	02 04 04 02 01 00 06 02 c2 62 32 1e 00 00 00 07     .........b2.....
     a13:	00 00 00 00 88 54 22 22 54 88 00 01 02 04 04 02     .....T""T.......
     a23:	01 00 38 44 82 82 44 f8 00 00 04 04 04 02 01 00     ..8D..D.........
     a33:	00 00 30 30 00 00 00 00 00 06 06 00 00 00 00 00     ..00............
     a43:	30 30 00 00 00 00 00 0a 06 00 00 00 00 40 a0 10     00...........@..
     a53:	08 04 00 00 00 00 01 02 04 00 20 20 20 20 20 20     ..........      
     a63:	00 01 01 01 01 01 01 00 00 04 08 10 a0 40 00 00     .............@..
     a73:	04 02 01 00 00 00 18 04 82 42 24 18 00 00 00 0d     .........B$.....
     a83:	00 00 00 00 f8 04 62 92 94 f8 00 01 02 04 04 04     ......b.........
     a93:	02 00 00 f8 84 82 84 f8 00 00 07 00 00 00 07 00     ................
     aa3:	02 fe 22 22 22 dc 00 04 07 04 04 04 03 00 f8 04     .."""...........
     ab3:	02 02 04 0e 00 01 02 04 04 04 03 00 02 fe 02 02     ................
     ac3:	04 f8 00 04 07 04 04 02 01 00 02 fe 22 72 02 06     ............"r..
     ad3:	00 04 07 04 04 04 06 00 02 fe 22 72 02 06 00 04     .........."r....
     ae3:	07 04 00 00 00 00 f8 04 02 82 84 8e 00 01 02 04     ................
     af3:	04 02 07 00 00 fe 20 20 20 fe 00 00 07 00 00 00     ......   .......
     b03:	07 00 00 00 02 fe 02 00 00 00 00 04 07 04 00 00     ................
     b13:	00 00 00 02 fe 02 00 00 02 04 04 03 00 00 02 fe     ................
     b23:	22 f0 9c 06 00 04 07 04 00 07 04 00 02 fe 02 00     "...............
     b33:	00 00 00 04 07 04 04 04 06 00 00 fe 1c 70 1c fe     .............p..
     b43:	00 00 07 00 00 00 07 00 fe 1c 70 c0 fe 00 00 07     ..........p.....
     b53:	00 00 01 07 00 00 f8 04 02 02 04 f8 00 01 02 04     ................
     b63:	04 02 01 00 02 fe 42 42 42 3c 00 04 07 04 00 00     ......BBB<......
     b73:	00 00 f8 04 02 02 04 f8 00 01 02 04 05 02 05 00     ................
     b83:	02 fe 42 c2 42 3c 00 04 07 00 00 07 04 00 0c 12     ..B.B<..........
     b93:	22 22 44 8e 00 01 02 04 04 02 01 00 00 0e 02 fe     ""D.............
     ba3:	02 0e 00 00 00 04 07 04 00 00 00 fe 00 00 00 fe     ................
     bb3:	00 00 03 04 04 04 03 00 00 7e c0 00 c0 7e 00 00     .........~...~..
     bc3:	00 01 07 01 00 00 00 fe 80 f8 80 fe 00 00 01 07     ................
     bd3:	01 07 01 00 8e d8 70 70 d8 8e 00 07 00 00 00 00     ......pp........
     be3:	07 00 3e 60 c0 60 3e 00 00 00 04 07 04 00 00 00     ..>`.`>.........
     bf3:	06 82 42 22 12 0e 00 07 04 04 04 04 06 00 00 fe     ..B"............
     c03:	02 02 02 00 00 00 0f 08 08 08 00 00 08 10 20 40     .............. @
     c13:	80 00 00 00 00 00 00 00 01 02 00 02 02 02 fe 00     ................
     c23:	00 00 08 08 08 0f 00 00 00 08 04 02 04 08 00 00     ................
	...
     c3f:	00 08 08 08 08 08 08 08 00 00 0e 16 00 00 00 00     ................
     c4f:	00 00 00 00 00 00 c0 28 28 48 f0 00 00 03 04 04     .......((H......
     c5f:	04 03 04 00 02 fe 12 08 08 f0 00 04 07 04 04 04     ................
     c6f:	03 00 e0 10 08 08 10 38 00 01 02 04 04 04 02 00     .......8........
     c7f:	f0 08 08 10 fe 02 00 03 04 04 04 07 04 00 e0 90     ................
     c8f:	88 88 90 e0 00 01 02 04 04 04 00 00 00 10 fc 12     ................
     c9f:	12 04 00 00 04 07 04 00 00 00 f0 08 08 08 f0 08     ................
     caf:	00 01 0a 0a 09 07 00 00 02 fe 10 08 08 f0 00 04     ................
     cbf:	07 04 00 00 07 00 00 00 16 f6 00 00 00 00 00 04     ................
     ccf:	07 04 00 00 00 00 00 16 f6 00 00 00 04 08 08 07     ................
     cdf:	00 00 02 fe 40 f0 98 08 00 04 07 04 00 07 04 00     ....@...........
     cef:	00 00 02 fe 00 00 00 00 00 04 07 04 00 00 08 f8     ................
     cff:	08 f0 08 f0 00 04 07 00 07 00 07 00 08 f8 10 08     ................
     d0f:	08 f0 00 04 07 00 00 00 07 00 e0 10 08 08 10 e0     ................
     d1f:	00 01 02 04 04 02 01 00 08 f0 08 08 08 f0 00 08     ................
     d2f:	0f 09 02 02 01 00 f0 08 08 08 f0 08 00 01 02 02     ................
     d3f:	09 0f 08 00 08 f8 20 10 08 30 00 04 07 04 00 00     ...... ..0......
     d4f:	00 00 30 48 48 48 90 38 00 02 04 04 04 04 03 00     ..0HHH.8........
     d5f:	00 10 fe 10 10 00 00 00 00 03 04 04 02 00 f8 00     ................
     d6f:	00 00 f8 08 00 03 04 04 02 07 04 00 78 c0 00 c0     ............x...
     d7f:	78 00 00 00 01 07 01 00 00 00 f8 80 f0 80 f8 00     x...............
     d8f:	00 01 07 01 07 01 00 00 18 b0 c0 c0 b0 18 00 06     ................
     d9f:	03 00 00 03 06 00 08 f8 00 00 f8 08 00 00 09 0a     ................
     daf:	0a 07 00 00 18 08 88 48 28 18 00 06 05 04 04 04     .......H(.......
     dbf:	06 00 00 40 a0 1c 02 02 00 00 00 00 07 08 08 00     ...@............
     dcf:	00 00 00 3e 00 00 00 00 00 00 1f 00 00 00 00 02     ...>............
     ddf:	02 1c a0 40 00 00 08 08 07 00 00 00 04 06 02 06     ...@............
     def:	04 06 00 00 00 00 00 00 00 00 00 00 00 00 00 00     ................
	...
     e07:	02 fe 22 12 12 e6 00 04 07 04 04 04 03 00 02 fe     ..".............
     e17:	02 02 02 06 00 04 07 04 00 00 00 00 16 f6 90 d0     ................
     e27:	16 36 00 04 07 04 05 04 06 00 00 de 70 fe 70 de     .6..........p.p.
     e37:	00 00 07 00 07 00 07 00 0e 04 22 22 54 88 00 02     ..........""T...
     e47:	04 04 04 02 01 00 00 fe c0 70 1c fe 00 00 07 01     .........p......
     e57:	00 00 07 00 00 f8 82 c6 62 f8 00 00 07 01 00 00     ........b.......
     e67:	07 00 00 f8 04 02 fe 02 00 04 07 00 04 07 04 00     ................
     e77:	00 fe 02 02 02 fe 00 00 07 00 00 00 07 00 02 3e     ...............>
     e87:	40 40 fe 02 00 00 02 04 04 03 00 00 e0 10 0a fe     @@..............
     e97:	0a 10 e0 00 01 0a 0f 0a 01 00 02 7e 80 42 fe 02     ...........~.B..
     ea7:	00 00 00 00 04 07 04 00 00 fe 00 fe 00 fe 00 00     ................
     eb7:	07 04 07 04 07 00 02 fe 42 20 20 c0 00 04 07 04     ........B  .....
     ec7:	04 04 03 00 fe 40 20 c0 00 fe 00 07 04 04 03 00     .....@ .........
     ed7:	07 00 0e 04 72 22 24 f8 00 02 04 04 04 02 01 00     ....r"$.........
     ee7:	fe 20 fc 02 02 fc 00 07 00 03 04 04 03 00 3c 42     . ............<B
     ef7:	c2 42 fe 02 00 04 07 01 00 07 04 00 00 f0 48 24     .B............H$
     f07:	26 c2 00 00 03 04 04 04 03 00 08 f8 48 48 48 b0     &...........HHH.
     f17:	00 04 07 04 04 04 03 00 08 f8 08 08 08 18 00 04     ................
     f27:	07 04 00 00 00 00 c6 a6 90 90 a6 c6 00 01 02 04     ................
     f37:	04 04 00 00 00 b8 c0 f8 c0 b8 00 00 07 00 07 00     ................
     f47:	07 00 38 10 08 48 a8 10 00 03 04 04 04 04 03 00     ..8..H..........
     f57:	00 f8 80 c0 60 f8 00 00 07 01 00 00 07 00 00 f0     ....`...........
     f67:	00 8c c6 f0 00 00 07 03 01 00 07 00 08 f8 48 e0     ..............H.
     f77:	38 08 00 04 07 04 01 07 04 00 00 e0 10 08 f8 08     8...............
     f87:	00 04 07 00 04 07 04 00 00 f8 70 c0 70 f8 00 00     ..........p.p...
     f97:	07 00 01 00 07 00 00 f8 40 40 40 f8 00 00 07 00     ........@@@.....
     fa7:	00 00 07 00 00 f8 08 08 08 f8 00 00 07 00 00 00     ................
     fb7:	07 00 00 38 08 f8 08 38 00 00 00 04 07 04 00 00     ...8...8........
     fc7:	08 f8 00 00 f8 08 00 00 00 01 05 07 04 00 f8 00     ................
     fd7:	f0 00 f8 00 00 07 04 07 04 07 00 00 38 08 f8 40     ............8..@
     fe7:	20 c0 00 00 04 07 04 04 03 00 f8 40 20 c0 00 f8      ..........@ ...
     ff7:	00 07 04 04 03 00 07 00 08 f8 40 20 20 c0 00 04     ..........@  ...
    1007:	07 04 04 04 03 00 38 10 48 48 50 e0 00 01 02 04     ......8.HHP.....
    1017:	04 02 01 00 f8 40 f0 08 08 f0 00 07 00 03 04 04     .....@..........
    1027:	03 00 70 88 88 88 f0 08 00 04 06 01 00 07 04 00     ..p.............
	...

00001038 <__ctors_end>:
    1038:	11 24       	eor	r1, r1
    103a:	1f be       	out	0x3f, r1	; 63
    103c:	cf ef       	ldi	r28, 0xFF	; 255
    103e:	d8 e0       	ldi	r29, 0x08	; 8
    1040:	de bf       	out	0x3e, r29	; 62
    1042:	cd bf       	out	0x3d, r28	; 61

00001044 <__do_clear_bss>:
    1044:	21 e0       	ldi	r18, 0x01	; 1
    1046:	a0 e0       	ldi	r26, 0x00	; 0
    1048:	b1 e0       	ldi	r27, 0x01	; 1
    104a:	01 c0       	rjmp	.+2      	; 0x104e <.do_clear_bss_start>

0000104c <.do_clear_bss_loop>:
    104c:	1d 92       	st	X+, r1

0000104e <.do_clear_bss_start>:
    104e:	ae 3b       	cpi	r26, 0xBE	; 190
    1050:	b2 07       	cpc	r27, r18
    1052:	e1 f7       	brne	.-8      	; 0x104c <.do_clear_bss_loop>
    1054:	0e 94 a6 16 	call	0x2d4c	; 0x2d4c <main>
    1058:	0c 94 de 3e 	jmp	0x7dbc	; 0x7dbc <_exit>

0000105c <__bad_interrupt>:
    105c:	0c 94 00 00 	jmp	0	; 0x0 <__vectors>

00001060 <_lcd_hw_write>:
	rcall	wait1us
	ret
 #else /* no LCD_SPI_OPEN_COL */
  #ifdef FAST_SPI_OUTPUT
               ; Set RS (0=Cmd, 1=Char)
	set_ce_low
    1060:	5d 98       	cbi	0x0b, 5	; 11
	set_ce_output		// enable chip
    1062:	55 9a       	sbi	0x0a, 5	; 10
               set_b0_output		; set B0 to output
               set_rs_low		; SCE to GND
               set_rs_output		//init hardware
               set_en_high		; force data read from LCD controller
   #else
               sbrc    preg_1, 0
    1064:	80 fd       	sbrc	r24, 0
                       set_rs_high
    1066:	59 9a       	sbi	0x0b, 1	; 11
               sbrs    preg_1, 0
    1068:	80 ff       	sbrs	r24, 0
                       set_rs_low
    106a:	59 98       	cbi	0x0b, 1	; 11
               set_rs_output;		//init hardware
    106c:	51 9a       	sbi	0x0a, 1	; 10
               set_b0_output		; wait for address setup, set B0 to output
    106e:	53 9a       	sbi	0x0a, 3	; 10
   #endif
               ; Send bit-7
               set_en_low
    1070:	5a 98       	cbi	0x0b, 2	; 11
               sbrc    preg_2, 7
    1072:	67 fd       	sbrc	r22, 7
                       set_b0_high
    1074:	5b 9a       	sbi	0x0b, 3	; 11
               sbrs    preg_2, 7
    1076:	67 ff       	sbrs	r22, 7
                       set_b0_low
    1078:	5b 98       	cbi	0x0b, 3	; 11
               set_en_high		; force data read from LCD controller
    107a:	5a 9a       	sbi	0x0b, 2	; 11

               ; Send bit-6
               set_en_low
    107c:	5a 98       	cbi	0x0b, 2	; 11
               sbrc    preg_2, 6
    107e:	66 fd       	sbrc	r22, 6
                       set_b0_high
    1080:	5b 9a       	sbi	0x0b, 3	; 11
               sbrs    preg_2, 6
    1082:	66 ff       	sbrs	r22, 6
                       set_b0_low
    1084:	5b 98       	cbi	0x0b, 3	; 11
               set_en_high		; force data read from LCD controller
    1086:	5a 9a       	sbi	0x0b, 2	; 11

               ; Send bit-5
               set_en_low
    1088:	5a 98       	cbi	0x0b, 2	; 11
               sbrc    preg_2, 5
    108a:	65 fd       	sbrc	r22, 5
                       set_b0_high
    108c:	5b 9a       	sbi	0x0b, 3	; 11
               sbrs    preg_2, 5
    108e:	65 ff       	sbrs	r22, 5
                       set_b0_low
    1090:	5b 98       	cbi	0x0b, 3	; 11
               set_en_high		; force data read from LCD controller
    1092:	5a 9a       	sbi	0x0b, 2	; 11

               ; Send bit-4
               set_en_low
    1094:	5a 98       	cbi	0x0b, 2	; 11
               sbrc    preg_2, 4
    1096:	64 fd       	sbrc	r22, 4
                       set_b0_high
    1098:	5b 9a       	sbi	0x0b, 3	; 11
               sbrs    preg_2, 4
    109a:	64 ff       	sbrs	r22, 4
                       set_b0_low
    109c:	5b 98       	cbi	0x0b, 3	; 11
               set_en_high		; force data read from LCD controller
    109e:	5a 9a       	sbi	0x0b, 2	; 11

               ; Send bit-3
               set_en_low
    10a0:	5a 98       	cbi	0x0b, 2	; 11
               sbrc    preg_2, 3
    10a2:	63 fd       	sbrc	r22, 3
                       set_b0_high
    10a4:	5b 9a       	sbi	0x0b, 3	; 11
               sbrs    preg_2, 3
    10a6:	63 ff       	sbrs	r22, 3
                       set_b0_low
    10a8:	5b 98       	cbi	0x0b, 3	; 11
               set_en_high		; force data read from LCD controller
    10aa:	5a 9a       	sbi	0x0b, 2	; 11

               ; Send bit-2
               set_en_low
    10ac:	5a 98       	cbi	0x0b, 2	; 11
               sbrc    preg_2, 2
    10ae:	62 fd       	sbrc	r22, 2
                       set_b0_high
    10b0:	5b 9a       	sbi	0x0b, 3	; 11
               sbrs    preg_2, 2
    10b2:	62 ff       	sbrs	r22, 2
                       set_b0_low
    10b4:	5b 98       	cbi	0x0b, 3	; 11
               set_en_high		; force data read from LCD controller
    10b6:	5a 9a       	sbi	0x0b, 2	; 11

               ; Send bit-1
               set_en_low
    10b8:	5a 98       	cbi	0x0b, 2	; 11
               sbrc    preg_2, 1
    10ba:	61 fd       	sbrc	r22, 1
                       set_b0_high
    10bc:	5b 9a       	sbi	0x0b, 3	; 11
               sbrs    preg_2, 1
    10be:	61 ff       	sbrs	r22, 1
                       set_b0_low
    10c0:	5b 98       	cbi	0x0b, 3	; 11
               set_en_high              ; force data read from LCD controller
    10c2:	5a 9a       	sbi	0x0b, 2	; 11

               ; Send bit-0
               set_en_low
    10c4:	5a 98       	cbi	0x0b, 2	; 11
               sbrc    preg_2, 0
    10c6:	60 fd       	sbrc	r22, 0
                       set_b0_high
    10c8:	5b 9a       	sbi	0x0b, 3	; 11
               sbrs    preg_2, 0
    10ca:	60 ff       	sbrs	r22, 0
                       set_b0_low
    10cc:	5b 98       	cbi	0x0b, 3	; 11
               set_en_high              ; force data read from LCD controller
    10ce:	5a 9a       	sbi	0x0b, 2	; 11
   #if (LCD_INTERFACE_MODE == MODE_3LINE)
               set_rs_high		; SCE to VCC
   #endif
        set_ce_high		// disable chip
    10d0:	5d 9a       	sbi	0x0b, 5	; 11
	set_en_low
    10d2:	5a 98       	cbi	0x0b, 2	; 11
	set_b0_low		// ## reset b0 to GND to prevent incorrect detection of rotary encoder movement
    10d4:	5b 98       	cbi	0x0b, 3	; 11
	ret		// return _lcd_hw_write
    10d6:	08 95       	ret

000010d8 <i2lcd>:
i2lcd:			;	void i2lcd(int iw)

#if FLASHEND > 0x1fff

;;  	movw	r20, r24
 	sbrs	r25, 7
    10d8:	97 ff       	sbrs	r25, 7
 	rjmp	to_lcd		; if (iw >= 0) {
    10da:	09 c0       	rjmp	.+18     	; 0x10ee <u2lcd>
;   // negativ value, output -  and invert iw
        push	r24		; save r24:r25
    10dc:	8f 93       	push	r24
        push	r25
    10de:	9f 93       	push	r25
 	ldi	r24,'-'		; 45
    10e0:	8d e2       	ldi	r24, 0x2D	; 45
 	RCALL	lcd_data	; lcd_data('-'); uses r22
    10e2:	9a d5       	rcall	.+2868   	; 0x1c18 <lcd_data>
        pop	r25		; recall r25:r24
    10e4:	9f 91       	pop	r25
        pop	r24		; old r24
    10e6:	8f 91       	pop	r24
        com	r25
    10e8:	90 95       	com	r25
	neg	r24
    10ea:	81 95       	neg	r24
        sbci	r25,-1		; iw = - iw
    10ec:	9f 4f       	sbci	r25, 0xFF	; 255

000010ee <u2lcd>:
#endif

u2lcd:			;	void i2lcd(uint16_t iw)
to_lcd:			;	void i2lcd(uint16_t iw)
 	ldi	r22, lo8(outval)	;0x0F
    10ee:	6b e1       	ldi	r22, 0x1B	; 27
 	ldi	r23, hi8(outval)	;0x01
    10f0:	71 e0       	ldi	r23, 0x01	; 1
 	ldi	r20, 10
    10f2:	4a e0       	ldi	r20, 0x0A	; 10
 	ldi	r21, 0x00	; 0
    10f4:	50 e0       	ldi	r21, 0x00	; 0
 	ACALL	utoa		; utoa(iw, outval, 10);	//output voltage to string
    10f6:	0e 94 7d 3e 	call	0x7cfa	; 0x7cfa <utoa>
 	RCALL	lcd_string	;lcd_string(utoa(iw, outval, 10));	//output correction voltage
    10fa:	2c c6       	rjmp	.+3160   	; 0x1d54 <lcd_string>

000010fc <i2lcd_space>:

 	ret
    10fc:	ed df       	rcall	.-38     	; 0x10d8 <i2lcd>

#if FLASHEND > 0x1fff
.GLOBAL i2lcd_space
i2lcd_space:
	RCALL	i2lcd
    10fe:	01 c0       	rjmp	.+2      	; 0x1102 <space_ret>

00001100 <u2lcd_space>:
	rjmp	space_ret	; use return from u2lcd_space
    1100:	eb df       	rcall	.-42     	; 0x10d8 <i2lcd>

00001102 <space_ret>:

u2lcd_space:
	RCALL	i2lcd
    1102:	d7 c5       	rjmp	.+2990   	; 0x1cb2 <lcd_space>

00001104 <PinLayout>:
space_ret:
	RCALL    lcd_space
    1104:	ef 92       	push	r14
	ret
    1106:	ff 92       	push	r15

#ifndef EBC_STYLE 
;   // Layout with 123= style
 	push	r14
 	push	r15
 	push	r16
    1108:	0f 93       	push	r16
 	push	r17
    110a:	1f 93       	push	r17

 	mov	r17, r24		; Pin1
    110c:	18 2f       	mov	r17, r24
 	mov	r16, r22		; Pin2
    110e:	06 2f       	mov	r16, r22
 	mov	r15, r20		; Pin3
    1110:	f4 2e       	mov	r15, r20
 	ldi	r24, lo8(N123_str)	; 0x0B
    1112:	82 e7       	ldi	r24, 0x72	; 114
 	ldi	r25, hi8(N123_str)	; 0x01	
    1114:	91 e0       	ldi	r25, 0x01	; 1
 #ifdef USE_EEPROM
 	RCALL	lcd_fix_string	; lcd_MEM_string(N123_str);		//" 123="
    1116:	29 d6       	rcall	.+3154   	; 0x1d6a <lcd_fix_string>
 #else
 	RCALL	lcd_pgm_string	; lcd_MEM_string(N123_str);		//" 123="
 #endif
 	eor	r14, r14	; for (ipp=0;
    1118:	ee 24       	eor	r14, r14

0000111a <loop1>:
loop1:
 	lds	r30, _trans
    111a:	e0 91 36 01 	lds	r30, 0x0136
 	lds	r31, _trans+1
    111e:	f0 91 37 01 	lds	r31, 0x0137
 	ldd	r24, Z+OFFS_e	; _trans->e
    1122:	86 85       	ldd	r24, Z+14	; 0x0e
 	cp	r14, r24
    1124:	e8 16       	cp	r14, r24
 	brne	checkb		; if (ipp == _trans->e) 
    1126:	11 f4       	brne	.+4      	; 0x112c <checkb>
 	mov	r24, r17	; pin1
    1128:	81 2f       	mov	r24, r17
        rjmp	data_ipp  	; lcd_data(pin1);	// Output Character in right order
    112a:	09 c0       	rjmp	.+18     	; 0x113e <data_ipp>

0000112c <checkb>:
checkb:
 	ldd	r24, Z+OFFS_b	; _trans->b
    112c:	84 85       	ldd	r24, Z+12	; 0x0c
 	cp	r14, r24	; if (ipp == _trans->b) 
    112e:	e8 16       	cp	r14, r24
 	brne	checkc
    1130:	11 f4       	brne	.+4      	; 0x1136 <checkc>
 	mov	r24, r16
    1132:	80 2f       	mov	r24, r16
        rjmp	data_ipp	;  lcd_data(pin2);
    1134:	04 c0       	rjmp	.+8      	; 0x113e <data_ipp>

00001136 <checkc>:
checkc:
 	ldd	r24, Z+OFFS_c	; _trans->c
    1136:	85 85       	ldd	r24, Z+13	; 0x0d
 	cp	r14, r24
    1138:	e8 16       	cp	r14, r24
 	brne	next_ipp		; if (ipp == _trans->c) 
    113a:	11 f4       	brne	.+4      	; 0x1140 <next_ipp>
 	mov	r24, r15
    113c:	8f 2d       	mov	r24, r15

0000113e <data_ipp>:
data_ipp:
 	RCALL	lcd_data	;  lcd_data(pin3);
    113e:	6c d5       	rcall	.+2776   	; 0x1c18 <lcd_data>

00001140 <next_ipp>:
next_ipp:
 	inc	r14
    1140:	e3 94       	inc	r14
 	mov	r24, r14
    1142:	8e 2d       	mov	r24, r14
 	cpi	r24, 0x03	;  for (     ;ipp<3;ipp++) {
    1144:	83 30       	cpi	r24, 0x03	; 3
 	brne	loop1 
    1146:	49 f7       	brne	.-46     	; 0x111a <loop1>

 	pop	r17
    1148:	1f 91       	pop	r17
 	pop	r16
    114a:	0f 91       	pop	r16
 	pop	r15
    114c:	ff 90       	pop	r15
 	pop	r14
    114e:	ef 90       	pop	r14
 	ret
    1150:	08 95       	ret

00001152 <PinLayoutLine>:
#ifdef WITH_GRAPHICS
 .GLOBAL PinLayoutLine
 .func PinLayoutLine

PinLayoutLine:
 	push	r14
    1152:	ef 92       	push	r14
 	push	r15
    1154:	ff 92       	push	r15
 	push	r16
    1156:	0f 93       	push	r16
 	push	r17
    1158:	1f 93       	push	r17

 	mov	r17, r24		; Pin1
    115a:	18 2f       	mov	r17, r24
 	mov	r16, r22		; Pin2
    115c:	06 2f       	mov	r16, r22
 	mov	r15, r20		; Pin3
    115e:	f4 2e       	mov	r15, r20
	ldi	r24, 0
    1160:	80 e0       	ldi	r24, 0x00	; 0
	call	lcd_next_line_wait		; lcd_next_line_wait(0);
    1162:	e5 d5       	rcall	.+3018   	; 0x1d2e <lcd_next_line_wait>
    1164:	88 e7       	ldi	r24, 0x78	; 120
	mov	r22, r16
	mov	r24, r17
	RCALL	PinLayout		; PinLayout(Pin1, Pin2, Pin3)
 #else

 	ldi	r24, lo8(Pin_str)	; 
    1166:	91 e0       	ldi	r25, 0x01	; 1
 	ldi	r25, hi8(Pin_str)	; 	
    1168:	00 d6       	rcall	.+3072   	; 0x1d6a <lcd_fix_string>
  #ifdef USE_EEPROM
 	RCALL	lcd_fix_string		; lcd_MEM_string(Pin_str);	//"Pin "
    116a:	ee 24       	eor	r14, r14

0000116c <lloop1>:
  #else
 	RCALL	lcd_pgm_string		; lcd_MEM_string(Pin_str);	//"Pin "
  #endif
  #ifndef EBC_STYLE 
;   // Layout with 1= 2= 3= style
 	eor	r14, r14	; for (ipp=0;
    116c:	8e 2d       	mov	r24, r14
lloop1:
        mov	r24, r14
    116e:	9e d5       	rcall	.+2876   	; 0x1cac <lcd_testpin>
	RCALL	lcd_testpin	; lcd_testpin(ipp)
    1170:	ee d5       	rcall	.+3036   	; 0x1d4e <lcd_equal>
	RCALL	lcd_equal	; lcd_data('=')
    1172:	e0 91 36 01 	lds	r30, 0x0136
 	lds	r30, _trans
    1176:	f0 91 37 01 	lds	r31, 0x0137
 	lds	r31, _trans+1
    117a:	86 85       	ldd	r24, Z+14	; 0x0e
 	ldd	r24, Z+OFFS_e	; _trans->e
    117c:	e8 16       	cp	r14, r24
 	cp	r14, r24
    117e:	11 f4       	brne	.+4      	; 0x1184 <lcheckb>
 	brne	lcheckb		; if (ipp == _trans->e) 
    1180:	81 2f       	mov	r24, r17
 	mov	r24, r17	; pin1
    1182:	09 c0       	rjmp	.+18     	; 0x1196 <ldata_ipp>

00001184 <lcheckb>:
        rjmp	ldata_ipp  	; lcd_data(pin1);	// Output Character in right order
    1184:	84 85       	ldd	r24, Z+12	; 0x0c
lcheckb:
 	ldd	r24, Z+OFFS_b	; _trans->b
    1186:	e8 16       	cp	r14, r24
 	cp	r14, r24	; if (ipp == _trans->b) 
    1188:	11 f4       	brne	.+4      	; 0x118e <lcheckc>
 	brne	lcheckc
    118a:	80 2f       	mov	r24, r16
 	mov	r24, r16
    118c:	04 c0       	rjmp	.+8      	; 0x1196 <ldata_ipp>

0000118e <lcheckc>:
        rjmp	ldata_ipp	;  lcd_data(pin2);
    118e:	85 85       	ldd	r24, Z+13	; 0x0d
lcheckc:
 	ldd	r24, Z+OFFS_c	; _trans->c
    1190:	e8 16       	cp	r14, r24
 	cp	r14, r24
    1192:	11 f4       	brne	.+4      	; 0x1198 <lnext_ipp>
 	brne	lnext_ipp		; if (ipp == _trans->c) 
    1194:	8f 2d       	mov	r24, r15

00001196 <ldata_ipp>:
 	mov	r24, r15
    1196:	40 d5       	rcall	.+2688   	; 0x1c18 <lcd_data>

00001198 <lnext_ipp>:
ldata_ipp:
 	RCALL	lcd_data	;  lcd_data(pin3);
    1198:	8c d5       	rcall	.+2840   	; 0x1cb2 <lcd_space>
lnext_ipp:
	RCALL	lcd_space	;  lcd_space()
    119a:	e3 94       	inc	r14
 	inc	r14
    119c:	8e 2d       	mov	r24, r14
 	mov	r24, r14
    119e:	83 30       	cpi	r24, 0x03	; 3
 	cpi	r24, 0x03	;  for (     ;ipp<3;ipp++) {
    11a0:	29 f7       	brne	.-54     	; 0x116c <lloop1>
 	brne	lloop1 
    11a2:	1f 91       	pop	r17
 	RCALL	lcd_testpin	; lcd_testpin(_trans->c);

   #endif /* =321 */
  #endif  /* EBC_STYLE */
 #endif  /* NO_LONG_PINLAYOUT */
 	pop	r17		; restore registers and return
    11a4:	0f 91       	pop	r16
 	pop	r16
    11a6:	ff 90       	pop	r15
 	pop	r15
    11a8:	ef 90       	pop	r14
 	pop	r14
    11aa:	08 95       	ret

000011ac <Rnum2pins>:
 	ret
    11ac:	68 2f       	mov	r22, r24
#endif     /* WITH_GRAPHICS */

 .GLOBAL Rnum2pins
 .func Rnum2pins
 Rnum2pins:
	mov	r22,r24
    11ae:	80 e0       	ldi	r24, 0x00	; 0
	ldi	r24, TP1
    11b0:	92 e0       	ldi	r25, 0x02	; 2
	ldi	r25, TP3
    11b2:	66 23       	and	r22, r22
        and	r22,r22
    11b4:	09 f4       	brne	.+2      	; 0x11b8 <nozero>
        brne    nozero
    11b6:	91 e0       	ldi	r25, 0x01	; 1

000011b8 <nozero>:
        ldi	r25, TP2
    11b8:	62 30       	cpi	r22, 0x02	; 2
nozero:
	cpi	r22, 2
    11ba:	09 f4       	brne	.+2      	; 0x11be <no_two>
	brne	no_two
    11bc:	81 e0       	ldi	r24, 0x01	; 1

000011be <no_two>:
	ldi	r24, TP2
    11be:	08 95       	ret

000011c0 <RvalOut>:
 .extern ResistorVal

 .section .text

RvalOut:		; void RvalOut(uint8_t nrr) 	
 	push	r16
    11c0:	0f 93       	push	r16

        mov	r16, r24
    11c2:	08 2f       	mov	r16, r24
	LDIZ	ResistorVal
    11c4:	e6 ea       	ldi	r30, 0xA6	; 166
    11c6:	f1 e0       	ldi	r31, 0x01	; 1
	add	r24, r24	; nrr*2
    11c8:	88 0f       	add	r24, r24
	add	r24, r24	; nrr*4
    11ca:	88 0f       	add	r24, r24
	add	r30, r24
    11cc:	e8 0f       	add	r30, r24
	adc	r31, zero_reg
    11ce:	f1 1d       	adc	r31, r1

 	ld	r22, Z		; resis[rr].rx
    11d0:	60 81       	ld	r22, Z
 	ldd	r23, Z+1	; 0x01
    11d2:	71 81       	ldd	r23, Z+1	; 0x01
 	ldd	r24, Z+2	; 0x02
    11d4:	82 81       	ldd	r24, Z+2	; 0x02
 	ldd	r25, Z+3	; 0x03
    11d6:	93 81       	ldd	r25, Z+3	; 0x03
#if FLASHEND > 0x1fff
 	cpi	r22, 0x64	; 100
    11d8:	64 36       	cpi	r22, 0x64	; 100
 	cpc	r23, r1
    11da:	71 05       	cpc	r23, r1
 	cpc	r24, r1
    11dc:	81 05       	cpc	r24, r1
 	cpc	r25, r1
    11de:	91 05       	cpc	r25, r1
 	brcc	ad1d8e 		; (ResistorVal[nrr] < 100)
    11e0:	68 f4       	brcc	.+26     	; 0x11fc <ad1d8e>
 	lds	r18, inductor_lpre
    11e2:	20 91 19 01 	lds	r18, 0x0119
	sbrc	r18, 7		; minus bit set?
    11e6:	27 fd       	sbrc	r18, 7
 	rjmp	ad1d8e 		; (inductor_lpre >= 0)
    11e8:	09 c0       	rjmp	.+18     	; 0x11fc <ad1d8e>
	mov	r24,r16
    11ea:	80 2f       	mov	r24, r16
	ACALL	Rnum2pins;	; pins = Rnum2pins(nrr)
    11ec:	df df       	rcall	.-66     	; 0x11ac <Rnum2pins>
    11ee:	69 2f       	mov	r22, r25
        mov	r22, r25
    11f0:	07 d2       	rcall	.+1038   	; 0x1600 <GetESR>
 	ACALL	GetESR		; rr = GetESR(resis[nrr].ra,resis[nrr].rb);
    11f2:	6e ef       	ldi	r22, 0xFE	; 254
    11f4:	23 e0       	ldi	r18, 0x03	; 3
;        ldi	r24, 0
;        ldi	r25, 0
; 	ldi	r20, -2		; 254
; 	ldi	r16, 0x03	; 3
; 	rjmp	ad1d94		; DisplayValue(rr,-2,LCD_CHAR_OMEGA,3);
	ldi	r22, -2
    11f6:	44 e0       	ldi	r20, 0x04	; 4
	ldi	r18, 3
    11f8:	e7 d6       	rcall	.+3534   	; 0x1fc8 <DisplayValue16>
	ldi	r20, LCD_CHAR_OMEGA
    11fa:	04 c0       	rjmp	.+8      	; 0x1204 <ret_with_space>

000011fc <ad1d8e>:
	RCALL	DisplayValue16	; DisplayValue16(rr,-2,LCD_OMEGA,3);
    11fc:	4f ef       	ldi	r20, 0xFF	; 255
	rjmp	ret_with_space
    11fe:	04 e0       	ldi	r16, 0x04	; 4
ad1d8e:		; } else {
#endif
	; r22-r25 = ResistorVal[rr]
 	ldi	r20, -1		; 255
    1200:	24 e0       	ldi	r18, 0x04	; 4
 	ldi	r16, 0x04	; DisplayValue(resis[nrr].rx,-1,LCD_CHAR_OMEGA,4);
    1202:	f9 d5       	rcall	.+3058   	; 0x1df6 <DisplayValue>

00001204 <ret_with_space>:
;ad1d94:
 	ldi	r18, LCD_CHAR_OMEGA	; 244
    1204:	56 d5       	rcall	.+2732   	; 0x1cb2 <lcd_space>
 	RCALL	DisplayValue
    1206:	0f 91       	pop	r16
ret_with_space:
 	RCALL	lcd_space	; lcd_space();
    1208:	08 95       	ret

0000120a <mVAusgabe>:
 	pop	r16
    120a:	86 30       	cpi	r24, 0x06	; 6
 	ret
    120c:	58 f4       	brcc	.+22     	; 0x1224 <ad1ca4>
	mVAusgabe:
	;   if (nn < 6) {
		cpi	r24, 0x06	; 6
		brcc	ad1ca4;
	      // Output in mV units
		LDIZ	diodes+12;
    120e:	e5 e9       	ldi	r30, 0x95	; 149
    1210:	f1 e0       	ldi	r31, 0x01	; 1
		add	r30,r24
    1212:	e8 0f       	add	r30, r24
		adc	r31,zero_reg
    1214:	f1 1d       	adc	r31, r1
		add	r30,r24
    1216:	e8 0f       	add	r30, r24
		adc	r31,zero_reg
    1218:	f1 1d       	adc	r31, r1
		ld	r24, Z		; diodes.Voltage[nn]
    121a:	80 81       	ld	r24, Z
		ldd	r25, Z+1	; 0x01
    121c:	91 81       	ldd	r25, Z+1	; 0x01
		ldi	r22, 0x03	; 3
    121e:	63 e0       	ldi	r22, 0x03	; 3
		RCALL	Display_mV	; Display_mV(diodes.Voltage[nn],3);
    1220:	de d6       	rcall	.+3516   	; 0x1fde <Display_mV>
		RCALL	lcd_space;	; lcd_space();
    1222:	47 c5       	rjmp	.+2702   	; 0x1cb2 <lcd_space>

00001224 <ad1ca4>:
	ad1ca4:
		ret
    1224:	08 95       	ret

00001226 <UfAusgabe>:
	.extern mVAusgabe

	.func UfAusgabe

UfAusgabe:
 	push	r17
    1226:	1f 93       	push	r17
 	mov	r17, r24
    1228:	18 2f       	mov	r17, r24
 	lds	r24, ResistorsFound;	0x0168
    122a:	80 91 6f 01 	lds	r24, 0x016F
 	and	r24, r24
    122e:	88 23       	and	r24, r24
 	breq	ad1cbe; 	   if (ResistorsFound > 0) { 
    1230:	19 f0       	breq	.+6      	; 0x1238 <ad1cbe>
 	RCALL	lcd_space;	lcd_space();
    1232:	3f d5       	rcall	.+2686   	; 0x1cb2 <lcd_space>
 	ldi	r24, LCD_CHAR_RESIS3;	0
    1234:	80 e0       	ldi	r24, 0x00	; 0
 	RCALL	lcd_data;      lcd_data(LCD_CHAR_RESIS3);	// special symbol or R
    1236:	f0 d4       	rcall	.+2528   	; 0x1c18 <lcd_data>

00001238 <ad1cbe>:
ad1cbe:
 	RCALL	lcd_line2;					//2. row
    1238:	06 d4       	rcall	.+2060   	; 0x1a46 <lcd_line2>
 	ldi	r24, lo8(Uf_str);	0xE9
    123a:	89 e6       	ldi	r24, 0x69	; 105
 	ldi	r25, hi8(Uf_str);	0x01
    123c:	91 e0       	ldi	r25, 0x01	; 1
#ifdef USE_EEPROM
 	RCALL	lcd_fix_string	; lcd_PGM_string(Uf_str);	//"Uf="
    123e:	95 d5       	rcall	.+2858   	; 0x1d6a <lcd_fix_string>
#else
 	RCALL	lcd_pgm_string	; lcd_PGM_string(Uf_str);	//"Uf="
#endif
 	mov	r24, r17
    1240:	81 2f       	mov	r24, r17
 	swap	r24
    1242:	82 95       	swap	r24
 	andi	r24, 0x0F
    1244:	8f 70       	andi	r24, 0x0F	; 15
 	rcall	mVAusgabe	; mVAusgabe(bcdnum >> 4);
    1246:	e1 df       	rcall	.-62     	; 0x120a <mVAusgabe>
 	mov	r24, r17
    1248:	81 2f       	mov	r24, r17
 	andi	r24, 0x0F	; 15
    124a:	8f 70       	andi	r24, 0x0F	; 15
 	rcall	mVAusgabe	; mVAusgabe(bcdnum & 0x0f);
    124c:	de df       	rcall	.-68     	; 0x120a <mVAusgabe>
 	pop	r17
    124e:	1f 91       	pop	r17
 	ret
    1250:	08 95       	ret

00001252 <SerienDiodenAusgabe>:
	.extern AnKat_str

	.func  SerienDiodenAusgabe

SerienDiodenAusgabe:
 	lds	r24, diode_sequence;	0x0102
    1252:	80 91 06 01 	lds	r24, 0x0106
 	swap	r24
    1256:	82 95       	swap	r24
 	andi	r24, 0x0F	; first = diode_sequence >> 4;
    1258:	8f 70       	andi	r24, 0x0F	; 15
	rcall	DiodeSymbol_ApinCpin	;  1->|-2
    125a:	18 d0       	rcall	.+48     	; 0x128c <DiodeSymbol_ApinCpin>

 	lds	r24, diode_sequence;	0x0102
    125c:	80 91 06 01 	lds	r24, 0x0106
 	andi	r24, 0x03	; second = diode_sequence & 3;
    1260:	83 70       	andi	r24, 0x03	; 3
 	RCALL	DiodeSymbol_ACpin	;  ->|-3
    1262:	1a d0       	rcall	.+52     	; 0x1298 <DiodeSymbol_ACpin>
 	lds	r24, diode_sequence;	x0102
    1264:	80 91 06 01 	lds	r24, 0x0106
 	rcall	UfAusgabe	; UfAusgabe(diode_sequence);
    1268:	de cf       	rjmp	.-68     	; 0x1226 <UfAusgabe>

0000126a <load_diodes_adr>:
    	ret
    126a:	e9 e8       	ldi	r30, 0x89	; 137
 .endfunc

        .func	load_diodes_adr
load_diodes_adr:
 	ldi	r30, lo8(diodes)	;0x80
    126c:	f1 e0       	ldi	r31, 0x01	; 1
 	ldi	r31, hi8(diodes)	;0x01
    126e:	e8 0f       	add	r30, r24
 	add	r30, r24	; [nn]
    1270:	f1 1d       	adc	r31, r1
 	adc	r31, zero_reg
    1272:	08 95       	ret

00001274 <DiodeSymbol_withPins>:
	ret
    1274:	cf 93       	push	r28
	.func	DiodeSymbol_withPins

DiodeSymbol_withPins:
#if FLASHEND > 0x1fff
 // enough memory (>8k) to sort the pins
        push    r28
    1276:	f9 df       	rcall	.-14     	; 0x126a <load_diodes_adr>
	rcall	load_diodes_adr
    1278:	90 81       	ld	r25, Z

cat_first1:
	rcall	DiodeSymbol_CpinApin
 #else
  // the higher test pin number is right side
	ld	r25, Z
    127a:	c6 81       	ldd	r28, Z+6	; 0x06
	ldd	r28, Z+6	; if (anode_nr < cathode_nr) {
    127c:	c9 17       	cp	r28, r25
	cp	r28, r25
    127e:	10 f4       	brcc	.+4      	; 0x1284 <cat_first2>
	brcc	cat_first2
    1280:	05 d0       	rcall	.+10     	; 0x128c <DiodeSymbol_ApinCpin>

	rcall	DiodeSymbol_ApinCpin
    1282:	01 c0       	rjmp	.+2      	; 0x1286 <diode_fin>

00001284 <cat_first2>:
	rjmp	diode_fin
    1284:	11 d0       	rcall	.+34     	; 0x12a8 <DiodeSymbol_CpinApin>

00001286 <diode_fin>:

//   } else {

cat_first2:
	rcall	DiodeSymbol_CpinApin
    1286:	15 d5       	rcall	.+2602   	; 0x1cb2 <lcd_space>
 #endif
#else
	rcall	DiodeSymbol_ApinCpin
#endif
diode_fin:
	rcall	lcd_space
    1288:	cf 91       	pop	r28
	pop	r28
    128a:	08 95       	ret

0000128c <DiodeSymbol_ApinCpin>:
	ret
    128c:	ee df       	rcall	.-36     	; 0x126a <load_diodes_adr>

	.GLOBAL DiodeSymbol_ApinCpin
	.func	DiodeSymbol_ApinCpin

DiodeSymbol_ApinCpin:
	rcall	load_diodes_adr
    128e:	8f 93       	push	r24
	push	r24
    1290:	80 81       	ld	r24, Z
 	ld	r24, Z		;Anode
    1292:	0c d5       	rcall	.+2584   	; 0x1cac <lcd_testpin>
 	RCALL	lcd_testpin	; lcd_testpin(diodes.Anode[nn]);
    1294:	8f 91       	pop	r24
	pop	r24
    1296:	00 c0       	rjmp	.+0      	; 0x1298 <DiodeSymbol_ACpin>

00001298 <DiodeSymbol_ACpin>:
	rcall	DiodeSymbol_ACpin	; ->|-3
    1298:	8f 93       	push	r24
        ret
    129a:	87 e3       	ldi	r24, 0x37	; 55

	.GLOBAL DiodeSymbol_ACpin
	.func	DiodeSymbol_ACpin

DiodeSymbol_ACpin:
	push	r24
    129c:	91 e0       	ldi	r25, 0x01	; 1
 	ldi	r24, lo8(AnKat_str)	;0xA3
    129e:	65 d5       	rcall	.+2762   	; 0x1d6a <lcd_fix_string>
 	ldi	r25, hi8(AnKat_str)	;0x03
    12a0:	8f 91       	pop	r24
  #ifdef USE_EEPROM
	.extern lcd_fix_string
 	RCALL	lcd_fix_string	; lcd_PGM_string(AnKat_str);	//"->|-"
    12a2:	e3 df       	rcall	.-58     	; 0x126a <load_diodes_adr>
  #else
	.extern lcd_pgm_string
 	RCALL	lcd_pgm_string	; lcd_PGM_string(AnKat_str);	//"->|-"
  #endif
	pop	r24
    12a4:	86 81       	ldd	r24, Z+6	; 0x06
	rcall	load_diodes_adr
    12a6:	02 c5       	rjmp	.+2564   	; 0x1cac <lcd_testpin>

000012a8 <DiodeSymbol_CpinApin>:
	ldd	r24, Z+6	; Cathode
    12a8:	e0 df       	rcall	.-64     	; 0x126a <load_diodes_adr>
 	RCALL	lcd_testpin	; lcd_testpin(diodes.Cathode[nn]);
    12aa:	8f 93       	push	r24
	ret
    12ac:	86 81       	ldd	r24, Z+6	; 0x06

	.GLOBAL DiodeSymbol_CpinApin
	.func	DiodeSymbol_CpinApin

DiodeSymbol_CpinApin:
	rcall	load_diodes_adr
    12ae:	fe d4       	rcall	.+2556   	; 0x1cac <lcd_testpin>
	push	r24
    12b0:	8f 91       	pop	r24
 	ldd	r24, Z+6	;Cathode
    12b2:	00 c0       	rjmp	.+0      	; 0x12b4 <DiodeSymbol_CApin>

000012b4 <DiodeSymbol_CApin>:
 	RCALL	lcd_testpin	; lcd_testpin(diodes.Cathode[nn]);
    12b4:	8f 93       	push	r24
	pop	r24
    12b6:	83 e3       	ldi	r24, 0x33	; 51
	rcall	DiodeSymbol_CApin	; -|<-3
    12b8:	91 e0       	ldi	r25, 0x01	; 1
        ret
    12ba:	57 d5       	rcall	.+2734   	; 0x1d6a <lcd_fix_string>

	.GLOBAL DiodeSymbol_CApin
	.func	DiodeSymbol_CApin

DiodeSymbol_CApin:
	push	r24
    12bc:	8f 91       	pop	r24
 	ldi	r24, lo8(KatAn_str)	;0xA3
    12be:	d5 df       	rcall	.-86     	; 0x126a <load_diodes_adr>
 	ldi	r25, hi8(KatAn_str)	;0x03
    12c0:	80 81       	ld	r24, Z
  #ifdef USE_EEPROM
	.extern lcd_fix_string
 	RCALL	lcd_fix_string	; lcd_PGM_string(KatAn_str);	//"->|-"
    12c2:	f4 c4       	rjmp	.+2536   	; 0x1cac <lcd_testpin>

000012c4 <uart_putc>:
 .section .text
uart_putc:	
#if defined(WITH_UART) && (!defined(WITH_HARDWARE_SERIAL))
;	push bitcnt
;	in temp,_SFR_IO_ADDR(SREG)
		push	Txbyte		; save character 
    12c4:	8f 93       	push	r24
	    	push bitcnt		; save register used for bit count
    12c6:	2f 93       	push	r18
		ldi	bitcnt,10	;1+8+sb (sb is # of stop bits)
    12c8:	2a e0       	ldi	r18, 0x0A	; 10
		com	Txbyte		;Inverte everything
    12ca:	80 95       	com	r24
		sbi	SER_DDR,SERIAL_BIT	; enable output of serial bit
    12cc:	3b 9a       	sbi	0x07, 3	; 7
		sec			;Start bit
    12ce:	08 94       	sec

000012d0 <putchar0>:

putchar0:	brcc	putchar1	;If carry set
    12d0:	10 f4       	brcc	.+4      	; 0x12d6 <putchar1>
	#ifdef SWUART_INVERT
		sbi	SER_PORT,SERIAL_BIT	;    send a '0'
	#else
		cbi	SER_PORT,SERIAL_BIT	;    send a '0'
    12d2:	43 98       	cbi	0x08, 3	; 8
	#endif
		rjmp	putchar2	;else	
    12d4:	02 c0       	rjmp	.+4      	; 0x12da <putchar2>

000012d6 <putchar1>:

putchar1:	
	#ifdef SWUART_INVERT
		cbi	SER_PORT,SERIAL_BIT	;    send a '1'
	#else
		sbi	SER_PORT,SERIAL_BIT	;    send a '1'
    12d6:	43 9a       	sbi	0x08, 3	; 8
	...

000012da <putchar2>:
	#endif
		nop

putchar2:
                rcall   wait100us	; about 9600 Baud
    12da:	20 d0       	rcall	.+64     	; 0x131c <wait100us>
       	#if  F_CPU >= 8000000UL
                rcall	wait3us
    12dc:	27 d0       	rcall	.+78     	; 0x132c <wait3us>
	#endif
		lsr	Txbyte		;Get next bit
    12de:	86 95       	lsr	r24
		dec	bitcnt		;If not all bit sent
    12e0:	2a 95       	dec	r18
		brne	putchar0	;   send next
    12e2:	b1 f7       	brne	.-20     	; 0x12d0 <putchar0>
					;else
		pop	bitcnt 		; restore register used for bit count
    12e4:	2f 91       	pop	r18
		pop	Txbyte		; restore character send
    12e6:	8f 91       	pop	r24
		lds	r25, UCSR0A
		sbrs	r25, UDRE0
		rjmp	w3		; wait
		AOUT    UDR0, r24	; put data to transmit buffer
#endif	/* def WITH_HARDWARE_SERIAL */
		ret			;   return
    12e8:	08 95       	ret

000012ea <wait5s>:
; A maximum of 28 bytes of space for return addresses is used in RAM 
; I see no way to implement this function with C-language (too tricky)


wait5s:
 rcall wait1s		;	12+x return-adresses
    12ea:	03 d0       	rcall	.+6      	; 0x12f2 <wait1000ms>

000012ec <wait4s>:
wait4s:
 rcall wait1s		;	12+x return-adresses
    12ec:	02 d0       	rcall	.+4      	; 0x12f2 <wait1000ms>

000012ee <wait3s>:
wait3s:
 rcall wait1s		;	12+x return-adresses
    12ee:	01 d0       	rcall	.+2      	; 0x12f2 <wait1000ms>

000012f0 <wait2s>:
wait2s:
 rcall wait1s		;1s     12+x Return-Adresses
    12f0:	00 d0       	rcall	.+0      	; 0x12f2 <wait1000ms>

000012f2 <wait1000ms>:

wait1s:
wait1000ms:	
 rcall wait500ms	;500ms	11+x Return-Adresses
    12f2:	00 d0       	rcall	.+0      	; 0x12f4 <wait500ms>

000012f4 <wait500ms>:

wait500ms:
 rcall wait100ms	;100ms	10+x Return-Adresses
    12f4:	03 d0       	rcall	.+6      	; 0x12fc <wait100ms>

000012f6 <wait400ms>:
wait400ms:
 rcall wait100ms	;100ms	10+x Return-Adresses
    12f6:	02 d0       	rcall	.+4      	; 0x12fc <wait100ms>

000012f8 <wait300ms>:
wait300ms:
 rcall wait100ms	;100ms	10+x Return-Adresses
    12f8:	01 d0       	rcall	.+2      	; 0x12fc <wait100ms>

000012fa <wait200ms>:
wait200ms:
 rcall wait100ms	;100ms	10+x Return-Adresses
    12fa:	00 d0       	rcall	.+0      	; 0x12fc <wait100ms>

000012fc <wait100ms>:


wait100ms:
 rcall wait50ms	    	; 50ms	9+x Return-Adresses
    12fc:	00 d0       	rcall	.+0      	; 0x12fe <wait50ms>

000012fe <wait50ms>:

wait50ms:
 rcall wait10ms	    	;10ms	8+x Return-Adresses 
    12fe:	03 d0       	rcall	.+6      	; 0x1306 <wait10ms>

00001300 <wait40ms>:
wait40ms:
 rcall wait10ms	    	;10ms	8+x Return-Adresses  
    1300:	02 d0       	rcall	.+4      	; 0x1306 <wait10ms>

00001302 <wait30ms>:
wait30ms:
 rcall wait10ms	    	;10ms	8+x Return-Adresses  
    1302:	01 d0       	rcall	.+2      	; 0x1306 <wait10ms>

00001304 <wait20ms>:
wait20ms:
 rcall wait10ms	    	;10ms	8+x Return-Adresses
    1304:	00 d0       	rcall	.+0      	; 0x1306 <wait10ms>

00001306 <wait10ms>:

wait10ms:
 rcall wait5ms	   	;5ms	7+x Return-Adresses
    1306:	00 d0       	rcall	.+0      	; 0x1308 <wait5ms>

00001308 <wait5ms>:
wait5ms:
 wdr				; every 5ms one Watchdog reset!
    1308:	a8 95       	wdr
 rcall wait1ms	   	;1ms	6+x Return-Adresses
    130a:	03 d0       	rcall	.+6      	; 0x1312 <wait1ms>

0000130c <wait4ms>:
wait4ms:
 rcall wait1ms	   	;1ms	6+x Return-Adresses
    130c:	02 d0       	rcall	.+4      	; 0x1312 <wait1ms>

0000130e <wait3ms>:
wait3ms:
 rcall wait1ms	   	;1ms	6+x Return-Adresses
    130e:	01 d0       	rcall	.+2      	; 0x1312 <wait1ms>

00001310 <wait2ms>:
wait2ms:
 rcall wait1ms	   	;1ms	6+x Return-Adresses
    1310:	00 d0       	rcall	.+0      	; 0x1312 <wait1ms>

00001312 <wait1ms>:

wait1ms:
 rcall wait500us    	;500us	5+x Return-Adresses
    1312:	00 d0       	rcall	.+0      	; 0x1314 <wait500us>

00001314 <wait500us>:
wait500us:
 rcall wait100us    	;100us	4+x Return-Adresses
    1314:	03 d0       	rcall	.+6      	; 0x131c <wait100us>

00001316 <wait400us>:
wait400us:
 rcall wait100us    	;100us	4+x Return-Adresses
    1316:	02 d0       	rcall	.+4      	; 0x131c <wait100us>

00001318 <wait300us>:
wait300us:
 rcall wait100us    	;100us	4+x Return-Adresses
    1318:	01 d0       	rcall	.+2      	; 0x131c <wait100us>

0000131a <wait200us>:
wait200us:
 rcall wait100us    	;100us	4+x Return-Adresses
    131a:	00 d0       	rcall	.+0      	; 0x131c <wait100us>

0000131c <wait100us>:

wait100us:
#if US100_TICS > (2 * US50_TICS)
 nop
#endif
 rcall wait50us	    	; 50us delay
    131c:	00 d0       	rcall	.+0      	; 0x131e <wait50us>

0000131e <wait50us>:
wait50us:
#if US50_TICS > (US40_TICS + US10_TICS)
 nop
#endif
 rcall wait10us     	;10us delay
    131e:	03 d0       	rcall	.+6      	; 0x1326 <wait10us>

00001320 <wait40us>:
wait40us:
#if US40_TICS > (US30_TICS + US10_TICS)
 nop
#endif
 rcall wait10us     	;10us delay
    1320:	02 d0       	rcall	.+4      	; 0x1326 <wait10us>

00001322 <wait30us>:
wait30us:
#if US30_TICS > (US20_TICS + US10_TICS)
 nop
#endif
 rcall wait10us     	;10us delay
    1322:	01 d0       	rcall	.+2      	; 0x1326 <wait10us>

00001324 <wait20us>:
wait20us:
#if US20_TICS > (2 * US10_TICS)
 nop
#endif
 rcall wait10us		;10us delay
    1324:	00 d0       	rcall	.+0      	; 0x1326 <wait10us>

00001326 <wait10us>:

#if US5_TICS >= RCALL_TICS
 #if US10_TICS > (2 * US5_TICS)
  nop
 #endif
 rcall wait5us
    1326:	00 d0       	rcall	.+0      	; 0x1328 <wait5us>

00001328 <wait5us>:
  #if NS500_TICS >= RCALL_TICS
wait5us:
   #if US5_TICS > (US4_TICS + US1_TICS)
    nop
   #endif
   rcall wait1us
    1328:	03 d0       	rcall	.+6      	; 0x1330 <wait1us>

0000132a <wait4us>:
wait4us:
   #if US4_TICS > (US3_TICS + US1_TICS)
    nop
   #endif
   rcall wait1us
    132a:	02 d0       	rcall	.+4      	; 0x1330 <wait1us>

0000132c <wait3us>:
wait3us:
   #if US3_TICS > (US2_TICS + US1_TICS)
    nop
   #endif
   rcall wait1us
    132c:	01 d0       	rcall	.+2      	; 0x1330 <wait1us>

0000132e <wait2us>:
wait2us:
   #if US2_TICS > (2 * US1_TICS)
    nop
   #endif
   rcall wait1us
    132e:	00 d0       	rcall	.+0      	; 0x1330 <wait1us>

00001330 <wait1us>:
wait1us:
   ; a 500ns delay is also possible with call
   #if US1_TICS > (2 * NS500_TICS)
    nop
   #endif
   rcall wait500ns
    1330:	00 d0       	rcall	.+0      	; 0x1332 <wait500ns>

00001332 <wait500ns>:
 #endif
 #if WAST_TICS2 >= 2
    rjmp .		/* two additional tics */
 #endif
 #if ((WAST_TICS2 / 2) * 2) < WAST_TICS2
    nop			/* one additional tic */
    1332:	00 00       	nop
 #endif

 ret
    1334:	08 95       	ret

00001336 <sleep_5ms>:

;/* set the processor to sleep state */
;/* wake up will be done with compare match interrupt of counter 2 */
; void sleep_5ms(uint8_t spause){
sleep_5ms:
 	ldi	r25, 0x00	;  pause = spause;
    1336:	90 e0       	ldi	r25, 0x00	; 0
 	cpi	r24, 201
    1338:	89 3c       	cpi	r24, 0xC9	; 201
 	brcs	wloop		; if (spause > 200) 
    133a:	28 f0       	brcs	.+10     	; 0x1346 <wloop>

;// spause = 202 = 2s
;// spause = 203 = 3s
;// spause = 204 = 4s
;// spause = 205 = 5s
 	subi	r24, 0xC8	; 200 pause = (spause-200) * 200;
    133c:	88 5c       	subi	r24, 0xC8	; 200
 	ldi	r20, 0xC8	; 200
    133e:	48 ec       	ldi	r20, 0xC8	; 200
 	mul	r24, r20	; (spause-200) * 200
    1340:	84 9f       	mul	r24, r20
 	movw	r24, r0		; r24:25 = (spause-200) * 200
    1342:	c0 01       	movw	r24, r0
 	eor	r1, r1
    1344:	11 24       	eor	r1, r1

00001346 <wloop>:

wloop:
 	sbiw	r24, 0x00	; 0 while (pause > 0)
    1346:	00 97       	sbiw	r24, 0x00	; 0
 	brne	check_remain 
    1348:	09 f4       	brne	.+2      	; 0x134c <check_remain>
; 	sts	TIMSK2, r1	; TIMSK2 = (0<<OCIE2B) | (0<<OCIE2A) | (0<<TOIE2); /* disable output compare match A interrupt */ 
;#endif
 	ret
    134a:	08 95       	ret

0000134c <check_remain>:

check_remain:
#if (F_CPU_HZ / 400) > RESTART_DELAY_TICS
        lds	r18, TCCR1B	; if (TCCR1B & ((1<<CS12)|(1<<CS11)|(1<<CS10)) != 0) 
    134c:	20 91 81 00 	lds	r18, 0x0081
	andi	r18, ((1<<CS12)|(1<<CS11)|(1<<CS10))	;
    1350:	27 70       	andi	r18, 0x07	; 7
	breq	do_sleep
    1352:	19 f0       	breq	.+6      	; 0x135a <do_sleep>
;  timer 1 is running, don't use sleep
	RCALL	wait5ms		; wait5ms();
    1354:	d9 df       	rcall	.-78     	; 0x1308 <wait5ms>
	sbiw	r24, 1		; pause -= 1;
    1356:	01 97       	sbiw	r24, 0x01	; 1
	rjmp	wloop
    1358:	f6 cf       	rjmp	.-20     	; 0x1346 <wloop>

0000135a <do_sleep>:
do_sleep:
 	cpi	r24, 0x01	; 1
    135a:	81 30       	cpi	r24, 0x01	; 1
 	cpc	r25, r1
    135c:	91 05       	cpc	r25, r1
 	breq	only_one 		; if (pause > 1)
    135e:	19 f0       	breq	.+6      	; 0x1366 <only_one>
 	sbiw	r24, 0x02	; pause -= 2;
    1360:	02 97       	sbiw	r24, 0x02	; 2
;     // Startup time is too long with 1MHz Clock!!!!
	ldi	r19, DELAY_10ms ; 	/* set to 10ms above the actual counter */
    1362:	3c e8       	ldi	r19, 0x8C	; 140
 	rjmp	set_cntr 
    1364:	03 c0       	rjmp	.+6      	; 0x136c <set_cntr>

00001366 <only_one>:

only_one:
	ldi	r19, DELAY_5ms	; 	/* set to 5ms above the actual counter */
    1366:	3e e3       	ldi	r19, 0x3E	; 62
 	ldi	r24, 0x00	;  pause = 0;
    1368:	80 e0       	ldi	r24, 0x00	; 0
 	ldi	r25, 0x00	; 0
    136a:	90 e0       	ldi	r25, 0x00	; 0

0000136c <set_cntr>:
   
set_cntr:
 	lds	r18, TCNT2
    136c:	20 91 b2 00 	lds	r18, 0x00B2
 	add	r18, r19	; + t2_offset
    1370:	23 0f       	add	r18, r19
 	sts	OCR2A, r18	; OCR2A = TCNT2 + t2_offset;	/* set the compare value */
    1372:	20 93 b3 00 	sts	0x00B3, r18
 	ldi	r20, ((0<<OCIE2B) | (1<<OCIE2A) | (0<<TOIE2)); /* enable output compare match A interrupt */ 
    1376:	42 e0       	ldi	r20, 0x02	; 2
 	sts	TIMSK2, r20	; TIMSK2 = (0<<OCIE2B) | (1<<OCIE2A) | (0<<TOIE2); /* enable output compare match A interrupt */ 
    1378:	40 93 70 00 	sts	0x0070, r20

;;	ldi	r18, (1 << SM1) | (1 << SM0) | (0 << SE); set_sleep_mode(SLEEP_MODE_PWR_SAVE)
;;	out	_SFR_IO_ADDR(SMCR), r18;        /*  SMCR = (1 <<SM1) | (1 << SM0) | (0 << SE); */
	ldi	r18, (1 << SM1) | (1 << SM0) | (1 << SE);
    137c:	27 e0       	ldi	r18, 0x07	; 7
	out	_SFR_IO_ADDR(SMCR), r18;        /*  SMCR = (1 <<SM1) | (1 << SM0) | (1 << SE); */
    137e:	23 bf       	out	0x33, r18	; 51
	sleep			;
    1380:	88 95       	sleep
; // wake up after output compare match interrupt
	ldi	r18, (1 << SM1) | (1 << SM0) | (0 << SE);
    1382:	26 e0       	ldi	r18, 0x06	; 6
	out	_SFR_IO_ADDR(SMCR), r18;        /*  SMCR = (1 << SM0) | (0 << SE); */
    1384:	23 bf       	out	0x33, r18	; 51
 	sts	TIMSK2, r1	; TIMSK2 = (0<<OCIE2B) | (0<<OCIE2A) | (0<<TOIE2); /* disable output compare match A interrupt */ 
    1386:	10 92 70 00 	sts	0x0070, r1
 	wdr			; wdt_reset();
    138a:	a8 95       	wdr
#else
;    // restart delay ist too long, use normal delay of 5ms
	RCALL	wait5ms		; wait5ms();	// wait5ms includes wdt_reset()
	sbiw	r24, 1		; pause -= 1;
#endif
 	rjmp	wloop 
    138c:	dc cf       	rjmp	.-72     	; 0x1346 <wloop>

0000138e <W20msReadADC>:
W5msReadADC:
	ACALL wait5ms;
			;// runs directly to ReadADC, this will replace "ACALL ReadADC + ret"
#else
W20msReadADC:
	push	r24;
    138e:	8f 93       	push	r24
	ldi	r24, 4;		/* 4 * 5ms */
    1390:	84 e0       	ldi	r24, 0x04	; 4
	RCALL	sleep_5ms;
    1392:	d1 df       	rcall	.-94     	; 0x1336 <sleep_5ms>
	rjmp   to_read;
    1394:	07 c0       	rjmp	.+14     	; 0x13a4 <to_read>

00001396 <W10msReadADC>:
W10msReadADC:
	push	r24;
    1396:	8f 93       	push	r24
	ldi	r24, 2;		/* 2 * 5ms */
    1398:	82 e0       	ldi	r24, 0x02	; 2
	RCALL	sleep_5ms;
    139a:	cd df       	rcall	.-102    	; 0x1336 <sleep_5ms>
	rjmp   to_read;
    139c:	03 c0       	rjmp	.+6      	; 0x13a4 <to_read>

0000139e <W5msReadADC>:
W5msReadADC:
	push	r24;
    139e:	8f 93       	push	r24
	ldi	r24, 1;		/* 1 * 5ms */
    13a0:	81 e0       	ldi	r24, 0x01	; 1
	RCALL	sleep_5ms;
    13a2:	c9 df       	rcall	.-110    	; 0x1336 <sleep_5ms>

000013a4 <to_read>:

to_read:
	pop	r24;
    13a4:	8f 91       	pop	r24

000013a6 <ReadADC>:

;unsigned int ReadADC(uint8_t Probe) 
ReadADC:
;  //returns result of ADC port Probe scaled to mV resolution (unsigned int)
;  unsigned long Value;
	push	r17;
    13a6:	1f 93       	push	r17
; unsigned int U; /* return value (mV) */
; uint8_t Samples; /* loop counter */
; unsigned long Value; /* ADC value */
	mov	r17, r24;	Probe
    13a8:	18 2f       	mov	r17, r24
	ori	r17, (1 << REFS0)	; Probe |= (1 << REFS0); /* use internal reference anyway */
    13aa:	10 64       	ori	r17, 0x40	; 64

000013ac <get_sample>:
get_sample:
        AOUT	ADMUX, r17		; ADMUX = Probe; /* set input channel and U reference */
    13ac:	10 93 7c 00 	sts	0x007C, r17
#ifdef AUTOSCALE_ADC
 /* if voltage reference changed run a dummy conversion */
	mov	r30, r17;
    13b0:	e1 2f       	mov	r30, r17
       	andi	r30, (1 << REFS1)	; Samples = Probe & (1 << REFS1); /* get REFS1 bit flag */
    13b2:	e0 78       	andi	r30, 0x80	; 128
	lds	r24, ADCconfig+RefFlag	;
    13b4:	80 91 26 01 	lds	r24, 0x0126
       	cp	r30, r24;
    13b8:	e8 17       	cp	r30, r24
       	breq	no_ref_change			; if (Samples != ADCconfig.RefFlag) 
    13ba:	59 f0       	breq	.+22     	; 0x13d2 <no_ref_change>
	sts	ADCconfig+RefFlag, r30	; ADCconfig.RefFlag = Samples; /* update flag */
    13bc:	e0 93 26 01 	sts	0x0126, r30
 #ifdef NO_AREF_CAP
	RCALL	wait100us		; wait100us(); /* time for voltage stabilization */
    13c0:	ad df       	rcall	.-166    	; 0x131c <wait100us>
  #else
	ldi	r24, 2			; /* 2 * 5ms */
	RCALL	sleep_5ms		; wait_about10ms()
  #endif
 #endif		/* end NO_AREF_CAP */
	StartADCwait                    ; // allways do one dummy read of ADC, 112us
    13c2:	8f e9       	ldi	r24, 0x9F	; 159
    13c4:	80 93 7a 00 	sts	0x007A, r24
    13c8:	83 e0       	ldi	r24, 0x03	; 3
    13ca:	83 bf       	out	0x33, r24	; 51
    13cc:	88 95       	sleep
    13ce:	82 e0       	ldi	r24, 0x02	; 2
    13d0:	83 bf       	out	0x33, r24	; 51

000013d2 <no_ref_change>:
#endif		/* end AUTOSCALE_ADC */

;unsigned int ReadADC (uint8_t Probe) {
no_ref_change:
 /* * sample ADC readings */
	ldi	r18, 0x00;	 Value = 0UL; /* reset sampling variable */
    13d2:	20 e0       	ldi	r18, 0x00	; 0
	ldi	r19, 0x00; 
    13d4:	30 e0       	ldi	r19, 0x00	; 0
	movw	r20, r18;
    13d6:	a9 01       	movw	r20, r18
	ldi	r30, 0x00;	 Samples = 0; /* number of samples to take */
    13d8:	e0 e0       	ldi	r30, 0x00	; 0
	rjmp	r2ae8 ;
    13da:	1f c0       	rjmp	.+62     	; 0x141a <r2ae8>

000013dc <Loop>:
; while (Samples < ADCconfig.Samples) /* take samples */ 
Loop:
	StartADCwait                    /* start ADC and wait */
    13dc:	8f e9       	ldi	r24, 0x9F	; 159
    13de:	80 93 7a 00 	sts	0x007A, r24
    13e2:	83 e0       	ldi	r24, 0x03	; 3
    13e4:	83 bf       	out	0x33, r24	; 51
    13e6:	88 95       	sleep
    13e8:	82 e0       	ldi	r24, 0x02	; 2
    13ea:	83 bf       	out	0x33, r24	; 51

	lds	r22, ADCL;     Value += ADCW; /* add ADC reading */
    13ec:	60 91 78 00 	lds	r22, 0x0078
	lds	r23, ADCH;
    13f0:	70 91 79 00 	lds	r23, 0x0079
	add	r18, r22;
    13f4:	26 0f       	add	r18, r22
	adc	r19, r23;
    13f6:	37 1f       	adc	r19, r23
	adc	r20, r1;
    13f8:	41 1d       	adc	r20, r1
	adc	r21, r1;
    13fa:	51 1d       	adc	r21, r1
#ifdef AUTOSCALE_ADC
;    /* auto-switch voltage reference for low readings */
;    if ((Samples == 4) && (ADCconfig.U_Bandgap > 255) && ((uint16_t)Value < 1024) && !(Probe & (1 << REFS1))) {
	cpi	r30, 0x04;	Samples == 4
    13fc:	e4 30       	cpi	r30, 0x04	; 4
	brne	cnt_next		; if ((Samples == 4) && 
    13fe:	61 f4       	brne	.+24     	; 0x1418 <cnt_next>
	lds	r24, ADCconfig+3;
    1400:	80 91 28 01 	lds	r24, 0x0128
        cpi	r24,0;
    1404:	80 30       	cpi	r24, 0x00	; 0
        breq	cnt_next		; if ( && (ADCconfig.U_Bandgap > 255) )
    1406:	41 f0       	breq	.+16     	; 0x1418 <cnt_next>
       	ldi	r24, hi8(1024)		; Value < 1024
    1408:	84 e0       	ldi	r24, 0x04	; 4
	cpi	r18, lo8(1024)
    140a:	20 30       	cpi	r18, 0x00	; 0
	cpc	r19, r24;
    140c:	38 07       	cpc	r19, r24
	brcc	cnt_next		; if ( &&  && ((uint16_t)Value < 1024) )
    140e:	20 f4       	brcc	.+8      	; 0x1418 <cnt_next>
	sbrc	r17, REFS1;
    1410:	17 fd       	sbrc	r17, 7
	rjmp	cnt_next		; if ( &&  &&  && !(Probe & (1 << REFS1))) 
    1412:	02 c0       	rjmp	.+4      	; 0x1418 <cnt_next>
	ori	r17, (1 << REFS1);   Probe |= (1 << REFS1); /* select internal bandgap reference */
    1414:	10 68       	ori	r17, 0x80	; 128
 #if (PROCESSOR_TYP == 644) || (PROCESSOR_TYP == 1280)
	cbr	r17, (1<<REFS0); Probe &= ~(1 << REFS0);  /* ATmega640/1280/2560 1.1V Reference with REFS0=0 */
 #endif
	rjmp	get_sample ;       goto get_sample; /* re-run sampling */
    1416:	ca cf       	rjmp	.-108    	; 0x13ac <get_sample>

00001418 <cnt_next>:
#endif		/* end AUTOSCALE_ADC */
cnt_next:
	subi	r30, 0xFF;	  Samples++; /* one more done */
    1418:	ef 5f       	subi	r30, 0xFF	; 255

0000141a <r2ae8>:
r2ae8:
	lds	r24, ADCconfig+Samples;
    141a:	80 91 25 01 	lds	r24, 0x0125
	cp	r30, r24		; while (Samples < ADCconfig.Samples) /* take samples */ 
    141e:	e8 17       	cp	r30, r24
	brcs	Loop ;
    1420:	e8 f2       	brcs	.-70     	; 0x13dc <Loop>
	lds	r22, ADCconfig+U_AVCC		; U = ADCconfig.U_AVCC; /* Vcc reference */
    1422:	60 91 29 01 	lds	r22, 0x0129
       	lds	r23, ADCconfig+U_AVCC+1;
    1426:	70 91 2a 01 	lds	r23, 0x012A
#ifdef AUTOSCALE_ADC
; /* * convert ADC reading to voltage * - single sample: U = ADC reading * U_ref / 1024 */
; /* get voltage of reference used */
	sbrs	r17, REFS1			; if (Probe & (1 << REFS1))
    142a:	17 ff       	sbrs	r17, 7
	rjmp	r2b02 ;
    142c:	04 c0       	rjmp	.+8      	; 0x1436 <r2b02>
	lds	r22, ADCconfig+U_Bandgap	; U = ADCconfig.U_Bandgap; /* bandgap reference */
    142e:	60 91 27 01 	lds	r22, 0x0127
	lds	r23, ADCconfig+U_Bandgap+1;
    1432:	70 91 28 01 	lds	r23, 0x0128

00001436 <r2b02>:
#endif		/* end AUTOSCALE_ADC */
; /* convert to voltage; */
r2b02:
	ldi	r24, 0x00			; Value *= U; /* ADC readings * U_ref */
    1436:	80 e0       	ldi	r24, 0x00	; 0
	ldi	r25, 0x00; 0
    1438:	90 e0       	ldi	r25, 0x00	; 0
	ACALL	__mulsi3;			; sum(ADCreads) * ADC_reference
    143a:	0e 94 ed 3c 	call	0x79da	; 0x79da <__mulsi3>
	ldi	r18, lo8(1023)			; Value /= 1023; /* / 1024 for 10bit ADC */
    143e:	2f ef       	ldi	r18, 0xFF	; 255
	ldi	r19, hi8(1023);
    1440:	33 e0       	ldi	r19, 0x03	; 3
	ldi	r20, 0x00; 0
    1442:	40 e0       	ldi	r20, 0x00	; 0
	ldi	r21, 0x00; 0
    1444:	50 e0       	ldi	r21, 0x00	; 0
	ACALL	__udivmodsi4;			R22-25 / R18-21
    1446:	0e 94 2f 3d 	call	0x7a5e	; 0x7a5e <__udivmodsi4>
	movw	r22, r18;
    144a:	b9 01       	movw	r22, r18
	movw	r24, r20;
    144c:	ca 01       	movw	r24, r20
; /* de-sample to get average voltage */
	lds	r18,ADCconfig+Samples			; Value /= ADCconfig.Samples;
    144e:	20 91 25 01 	lds	r18, 0x0125
	ldi	r19, 0x00; 0
    1452:	30 e0       	ldi	r19, 0x00	; 0
	ldi	r20, 0x00; 0
    1454:	40 e0       	ldi	r20, 0x00	; 0
	ldi	r21, 0x00; 0
    1456:	50 e0       	ldi	r21, 0x00	; 0
	ACALL	__udivmodsi4;			R22-25 / R18-21
    1458:	0e 94 2f 3d 	call	0x7a5e	; 0x7a5e <__udivmodsi4>
	movw	r24, r18			;;//   return ((unsigned int)(Value / (1023 * (unsigned long)ADCconfig.Samples)));
    145c:	c9 01       	movw	r24, r18
	pop	r17;
    145e:	1f 91       	pop	r17
    	ret;
    1460:	08 95       	ret

00001462 <abs_diff>:
 .endfunc

.func abs_diff
.GLOBAL abs_diff
abs_diff:
	movw	r18, r22
    1462:	9b 01       	movw	r18, r22
        sub	r18, r24
    1464:	28 1b       	sub	r18, r24
	sbc	r19, r25
    1466:	39 0b       	sbc	r19, r25
	brcs	is_pl		; return v1-v2
    1468:	50 f0       	brcs	.+20     	; 0x147e <is_pl>
	movw	r24, r18
    146a:	c9 01       	movw	r24, r18
	ret			; return v2-v1
    146c:	08 95       	ret

0000146e <vcc_diff>:

.func vcc_diff
.GLOBAL vcc_diff
; uint16_t vcc_diff(uint16_t v2)	// computes unsigned_diff(ADCconfig.U_AVCC, v2)
vcc_diff:
	movw	r22, r24
    146e:	bc 01       	movw	r22, r24
	lds	r24, ADCconfig+U_AVCC
    1470:	80 91 29 01 	lds	r24, 0x0129
	lds	r25, ADCconfig+U_AVCC+1
    1474:	90 91 2a 01 	lds	r25, 0x012A

00001478 <unsigned_diff>:
.func unsigned_diff
.GLOBAL unsigned_diff
; uint16_t unsigned_diff(uint16_t v1, uint16_t v2)  // computes v1-v2 if positive, otherwise returns 0

unsigned_diff:
	cp	r22, r24
    1478:	68 17       	cp	r22, r24
	cpc	r23, r25
    147a:	79 07       	cpc	r23, r25
	brcc	no_pl
    147c:	18 f4       	brcc	.+6      	; 0x1484 <no_pl>

0000147e <is_pl>:
is_pl:
	sub	r24, r22
    147e:	86 1b       	sub	r24, r22
	sbc	r25, r23
    1480:	97 0b       	sbc	r25, r23
	ret			; return v1-v2
    1482:	08 95       	ret

00001484 <no_pl>:
no_pl:
	ldi	r24, 0
    1484:	80 e0       	ldi	r24, 0x00	; 0
	ldi	r25, 0
    1486:	90 e0       	ldi	r25, 0x00	; 0
	ret	;
    1488:	08 95       	ret

0000148a <RefVoltage>:
 

RefVoltage:

#ifdef AUTO_CAL
 	ldi	r24, lo8(ref_offset)	; 1
    148a:	81 e7       	ldi	r24, 0x71	; 113
 	ldi	r25, hi8(ref_offset)	; 0
    148c:	93 e0       	ldi	r25, 0x03	; 3
;; 	ACALL	eeprom_read_word	; eeprom_read_word((uint16_t *)(&ref_offset));
;; 	lds	r18, ref_mv
;; 	lds	r19, ref_mv+1
;; 	add	r18, r24		; referenz =  ref_mv +
;; 	adc	r19, r25
	ACALL	eeprom_read_byte	; eeprom_read_word((uint16_t *)(&ref_offset)); done as two read_byte
    148e:	0e 94 b0 3e 	call	0x7d60	; 0x7d60 <eeprom_read_byte>
	mov	r19, r24
    1492:	38 2f       	mov	r19, r24
	ldi	r24, lo8(ref_offset+1)
    1494:	82 e7       	ldi	r24, 0x72	; 114
	ldi	r25, hi8(ref_offset+1)
    1496:	93 e0       	ldi	r25, 0x03	; 3
	ACALL	eeprom_read_byte
    1498:	0e 94 b0 3e 	call	0x7d60	; 0x7d60 <eeprom_read_byte>
 	lds	r18, ref_mv
    149c:	20 91 2d 01 	lds	r18, 0x012D
	add	r18, r19
    14a0:	23 0f       	add	r18, r19
 	lds	r19, ref_mv+1
    14a2:	30 91 2e 01 	lds	r19, 0x012E
	adc	r19, r24
    14a6:	38 1f       	adc	r19, r24
	lds	r18, ref_mv
	lds	r19, ref_mv+1
	subi	r18, -REF_C_KORR		; referenz = ref_mv + REF_C_KORR;
	adc	r19, zero_reg
#endif
        sts	ref_mv_offs, r18
    14a8:	20 93 0f 01 	sts	0x010F, r18
        sts	ref_mv_offs+1, r19
    14ac:	30 93 10 01 	sts	0x0110, r19

#ifdef AUTO_RH 
 	ldi	r24, hi8(Ref_Tab_Beginn)	; 3
    14b0:	83 e0       	ldi	r24, 0x03	; 3
 	cpi	r18, lo8(Ref_Tab_Beginn)	; 232
    14b2:	28 3e       	cpi	r18, 0xE8	; 232
 	cpc	r19, r24
    14b4:	38 07       	cpc	r19, r24
 	brcs	ad210e 				; if (referenz >= Ref_Tab_Beginn) 
    14b6:	20 f0       	brcs	.+8      	; 0x14c0 <ad210e>
 	movw	r24, r18
    14b8:	c9 01       	movw	r24, r18
 	subi	r24, lo8(Ref_Tab_Beginn)	; 232 referenz -= Ref_Tab_Beginn;
    14ba:	88 5e       	subi	r24, 0xE8	; 232
 	sbci	r25, hi8(Ref_Tab_Beginn)	; 3
    14bc:	93 40       	sbci	r25, 0x03	; 3
 	rjmp	ad2112 
    14be:	02 c0       	rjmp	.+4      	; 0x14c4 <ad2112>

000014c0 <ad210e>:
ad210e:
 	ldi	r24, 0x00	; referenz = 0;		// limit to begin of table
    14c0:	80 e0       	ldi	r24, 0x00	; 0
 	ldi	r25, 0x00	; 0
    14c2:	90 e0       	ldi	r25, 0x00	; 0

000014c4 <ad2112>:
ad2112:
 	ldi	r22, lo8(Ref_Tab_Abstand)	; 50 tabind = referenz / Ref_Tab_Abstand;
    14c4:	62 e3       	ldi	r22, 0x32	; 50
 	ldi	r23, hi8(Ref_Tab_Abstand)	; 0
    14c6:	70 e0       	ldi	r23, 0x00	; 0
 	ACALL	__udivmodhi4
    14c8:	0e 94 08 3d 	call	0x7a10	; 0x7a10 <__udivmodhi4>
;  r22 = tabind = referenz / Ref_Tab_Abstand;
;  r24 =  tabres = referenz % Ref_Tab_Abstand;
 	cpi	r22, 0x08	; if (tabind > 7) 
    14cc:	68 30       	cpi	r22, 0x08	; 8
 	brcs	ad2120 
    14ce:	08 f0       	brcs	.+2      	; 0x14d2 <ad2120>
 	ldi	r22, 0x07	; tabind = 7;		// limit to end of table
    14d0:	67 e0       	ldi	r22, 0x07	; 7

000014d2 <ad2120>:
ad2120:
; // interpolate the table of factors

	LDIZ	RHtab
    14d2:	ef ee       	ldi	r30, 0xEF	; 239
    14d4:	f3 e0       	ldi	r31, 0x03	; 3
	add	r30, r22
    14d6:	e6 0f       	add	r30, r22
	adc	r31, zero_reg
    14d8:	f1 1d       	adc	r31, r1
	add	r30, r22
    14da:	e6 0f       	add	r30, r22
	adc	r31, zero_reg
    14dc:	f1 1d       	adc	r31, r1

 	lpm	r20, Z+		; y1 = pgm_read_word(&RHtab[tabind]);
    14de:	45 91       	lpm	r20, Z+
 	lpm	r21, Z+
    14e0:	55 91       	lpm	r21, Z+
 	lpm	r18, Z+		; y2 = pgm_read_word(&RHtab[tabind+1]);
    14e2:	25 91       	lpm	r18, Z+
 	lpm	r19, Z+
    14e4:	35 91       	lpm	r19, Z+
 	ldi	r22, Ref_Tab_Abstand	; 50
    14e6:	62 e3       	ldi	r22, 0x32	; 50
 	sub	r22, r24		; tabres = Ref_Tab_Abstand-tabres;
    14e8:	68 1b       	sub	r22, r24
;  // interpolate the table of factors
;  // RHmultip is the interpolated factor to compute capacity from load time with 470k
;; 	ldi	r23, 0x00	; 0
 	sub	r20, r18	; y1 - y2
    14ea:	42 1b       	sub	r20, r18
 #if FLASHEND > 0x1fff
	sbc	r21, r19	; hi8(y1 - y2) is usually allway zero
    14ec:	53 0b       	sbc	r21, r19
 #endif
 	mul	r22, r20	; lo8(tabres) * lo8(y1-y2)
    14ee:	64 9f       	mul	r22, r20
 	movw	r24, r0		; r24:25 = *
    14f0:	c0 01       	movw	r24, r0
 #if FLASHEND > 0x1fff
 	mul	r22, r21	; lo8(tabres) * hi8(y1-y2)
    14f2:	65 9f       	mul	r22, r21
 	add	r25, r0		; r25 + lo8(*)
    14f4:	90 0d       	add	r25, r0
 #endif
;; 	mul	r23, r20	; hi8(tabres) * lo8(y1*y2) , allways zero
;; 	add	r25, r0		; r25 + lo8(*)

 	eor	r1, r1
    14f6:	11 24       	eor	r1, r1
 	adiw	r24, (Ref_Tab_Abstand/2)	; 25
    14f8:	49 96       	adiw	r24, 0x19	; 25
 	ldi	r22, lo8(Ref_Tab_Abstand)	; 50
    14fa:	62 e3       	ldi	r22, 0x32	; 50
 	ldi	r23, hi8(Ref_Tab_Abstand)	; 0
    14fc:	70 e0       	ldi	r23, 0x00	; 0
 	ACALL	__udivmodhi4	; ((y1 - y2) * tabres + (Ref_Tab_Abstand/2)) / Ref_Tab_Abstand 
    14fe:	0e 94 08 3d 	call	0x7a10	; 0x7a10 <__udivmodhi4>
 	add	r22, r18	; + y2
    1502:	62 0f       	add	r22, r18
 	adc	r23, r19
    1504:	73 1f       	adc	r23, r19
 	sts	RHmultip+1, r23
    1506:	70 93 72 01 	sts	0x0172, r23
 	sts	RHmultip, r22
    150a:	60 93 71 01 	sts	0x0171, r22
	ldi	r23, hi8(DEFAULT_RH_FAKT)
 	sts	RHmultip, r22
 	sts	RHmultip+1, r23
#endif 
#ifdef AUTO_CAL
	ldi	r24, lo8(RefDiff)
    150e:	83 e7       	ldi	r24, 0x73	; 115
	ldi	r25, hi8(RefDiff)
    1510:	93 e0       	ldi	r25, 0x03	; 3
	ACALL	eeprom_read_byte	; (int8_t)eeprom_read_byte((uint8_t *)&RefDiff));
    1512:	0e 94 b0 3e 	call	0x7d60	; 0x7d60 <eeprom_read_byte>
	eor	r25, r25		; set zero for sign extend
    1516:	99 27       	eor	r25, r25
        sbrc	r24, 7			; minus?
    1518:	87 fd       	sbrc	r24, 7
	com	r25			; yes, set to 0xff
    151a:	90 95       	com	r25
        lds	r22, ref_mv		; ADCconfig.U_Bandgap = (ref_mv + (int8_t)eeprom_read_byte((uint8_t *)&RefDiff));
    151c:	60 91 2d 01 	lds	r22, 0x012D
        lds	r23, ref_mv+1
    1520:	70 91 2e 01 	lds	r23, 0x012E
	add	r24, r22
    1524:	86 0f       	add	r24, r22
	adc	r25, r23
    1526:	97 1f       	adc	r25, r23
        lds	r25, ref_mv+1
	add	r24, r22
        adc	r25, r23
#endif
#define U_Bandgap 2
        sts	ADCconfig+U_Bandgap+1, r25
    1528:	90 93 28 01 	sts	0x0128, r25
        sts	ADCconfig+U_Bandgap, r24
    152c:	80 93 27 01 	sts	0x0127, r24
	sts	adc_internal_reference+1, r25		; adc_internal_reference = ADCconfig.U_Bandgap;
    1530:	90 93 6e 01 	sts	0x016E, r25
	sts	adc_internal_reference, r24
    1534:	80 93 6d 01 	sts	0x016D, r24


 	ret
    1538:	08 95       	ret

0000153a <get_log>:
 .section .text

; // get_log interpolate a table with the function -1000*log(1 - (permil/1000))
; uint16_t get_log(uint16_t permil) {
get_log:
 	push	r28
    153a:	cf 93       	push	r28
 	push	r29
    153c:	df 93       	push	r29

 	ldi	r18, lo8(Log_Tab_Distance)	;0x14
    153e:	24 e1       	ldi	r18, 0x14	; 20
 	ldi	r19, hi8(Log_Tab_Distance)	;0x00	
    1540:	30 e0       	ldi	r19, 0x00	; 0
 	movw	r22, r18
    1542:	b9 01       	movw	r22, r18
 	call	__udivmodhi4		; tabind = permil / Log_Tab_Distance;	// index to table
    1544:	0e 94 08 3d 	call	0x7a10	; 0x7a10 <__udivmodhi4>
 	movw	r26, r24
    1548:	dc 01       	movw	r26, r24
;  r26:27 = tabres = permil % Log_Tab_Distance;	// fraction of table distance
;  // interpolate the table of factors
;  y1 = pgm_read_word(&LogTab[tabind]);	// get the lower table value
	LDIZ	LogTab;
    154a:	e1 e0       	ldi	r30, 0x01	; 1
    154c:	f4 e0       	ldi	r31, 0x04	; 4
        add	r30, r22
    154e:	e6 0f       	add	r30, r22
        adc	r31, r23
    1550:	f7 1f       	adc	r31, r23
        add	r30, r22
    1552:	e6 0f       	add	r30, r22
	adc	r31, r23	; &LogTab[tabind]
    1554:	f7 1f       	adc	r31, r23
 	lpm	r28, Z+		; y1 = pgm_read_word(&LogTab[tabind]);	// get the lower table value
    1556:	c5 91       	lpm	r28, Z+
 	lpm	r29, Z+
    1558:	d5 91       	lpm	r29, Z+
 	lpm	r20, Z+		; y2 = pgm_read_word(&LogTab[tabind+1]); // get the higher table value
    155a:	45 91       	lpm	r20, Z+
 	lpm	r21, Z+
    155c:	55 91       	lpm	r21, Z+
;  result = ((y2 - y1) * tabres ) / Log_Tab_Distance + y1; // interpolate
 	sub	r20, r28	;  (y2 - y1) 
    155e:	4c 1b       	sub	r20, r28
	sbc	r21, r29	;  hi8(y2 - y1) 
    1560:	5d 0b       	sbc	r21, r29
 	mul	r20, r26	; * tabres   (maximum 19)
    1562:	4a 9f       	mul	r20, r26
 	movw	r24, r0		;  r24:25 =  ((y2 - y1) * tabres )
    1564:	c0 01       	movw	r24, r0
	mul	r20, r27	; hi8(tabres) 
    1566:	4b 9f       	mul	r20, r27
	add	r25, r0
    1568:	90 0d       	add	r25, r0
	mul	r21, r26	; hi8(y2 - Y1) 
    156a:	5a 9f       	mul	r21, r26
	add	r25, r0
    156c:	90 0d       	add	r25, r0
 	eor	r1, r1
    156e:	11 24       	eor	r1, r1
 	movw	r22, r18	; Log_Tab_Distance
    1570:	b9 01       	movw	r22, r18
 	call	__udivmodhi4	;   ((y2 - y1) * tabres ) / Log_Tab_Distance
    1572:	0e 94 08 3d 	call	0x7a10	; 0x7a10 <__udivmodhi4>
 	add	r22, r28	;  result = ((y2 - y1) * tabres ) / Log_Tab_Distance + y1; // interpolate
    1576:	6c 0f       	add	r22, r28
 	adc	r23, r29
    1578:	7d 1f       	adc	r23, r29
 	movw	r24, r22	; return(result);
    157a:	cb 01       	movw	r24, r22
 	pop	r29
    157c:	df 91       	pop	r29
 	pop	r28
    157e:	cf 91       	pop	r28
 	ret
    1580:	08 95       	ret

00001582 <GetRLmultip>:

 .section .text

; unsigned int GetRLmultip(unsigned int cvolt) 
GetRLmultip:
	push    r0
    1582:	0f 92       	push	r0
 	ldi	r18, hi8(RL_Tab_Beginn) 	; 1
    1584:	21 e0       	ldi	r18, 0x01	; 1
 	cpi	r24, lo8(RL_Tab_Beginn)		; 44
    1586:	8c 32       	cpi	r24, 0x2C	; 44
 	cpc	r25, r18
    1588:	92 07       	cpc	r25, r18
 	brcc	is_bigger		;if (cvolt >= RL_Tab_Beginn) 
    158a:	10 f4       	brcc	.+4      	; 0x1590 <is_bigger>
        ldi	r24, lo8(RL_Tab_Beginn)		; uvolt = 0 = RL_Tab_Begin - RL_Tab_Begin
    158c:	8c e2       	ldi	r24, 0x2C	; 44
        ldi	r25, hi8(RL_Tab_Beginn)		; limit to begin of table
    158e:	91 e0       	ldi	r25, 0x01	; 1

00001590 <is_bigger>:
is_bigger:
 	subi	r24, lo8(RL_Tab_Beginn)	;  uvolt = cvolt - RL_Tab_Beginn;
    1590:	8c 52       	subi	r24, 0x2C	; 44
 	sbci	r25, hi8(RL_Tab_Beginn)	; 1
    1592:	91 40       	sbci	r25, 0x01	; 1

 	ldi	r22, lo8(RL_Tab_Abstand)	; 25
    1594:	69 e1       	ldi	r22, 0x19	; 25
 	ldi	r23, hi8(RL_Tab_Abstand)	; 0
    1596:	70 e0       	ldi	r23, 0x00	; 0
 	ACALL	__udivmodhi4 	;tabind = uvolt / RL_Tab_Abstand;
    1598:	0e 94 08 3d 	call	0x7a10	; 0x7a10 <__udivmodhi4>
;  r24:25 tabres = uvolt % RL_Tab_Abstand;  // r25 allways zero
;  tabres = RL_Tab_Abstand - tabres;
 	ldi	r25, RL_Tab_Abstand	; 25
    159c:	99 e1       	ldi	r25, 0x19	; 25
 	cpi	r22, ((RL_Tab_Length/RL_Tab_Abstand)-1)	; if (tabind > ((RL_Tab_Length/RL_Tab_Abstand)-1)) 
    159e:	6b 32       	cpi	r22, 0x2B	; 43
 	brcs	is_lower 
    15a0:	10 f0       	brcs	.+4      	; 0x15a6 <is_lower>
	mov	r25, r24		; tabres = 0 = (RL_Tab_Abstand==tabres) - tabres
    15a2:	98 2f       	mov	r25, r24
 	ldi	r22, (RL_Tab_Length/RL_Tab_Abstand)-1; tabind = (RL_Tab_Length/RL_Tab_Abstand)-1;// limit to end of table
    15a4:	6b e2       	ldi	r22, 0x2B	; 43

000015a6 <is_lower>:
is_lower:
 	sub	r25, r24		; tabres = RL_Tab_Abstand - tabres;
    15a6:	98 1b       	sub	r25, r24

	; r22 = tabind , r25 = tabres

	LDIZ	RLtab
    15a8:	ee ee       	ldi	r30, 0xEE	; 238
    15aa:	f2 e0       	ldi	r31, 0x02	; 2
	add	r30, r22		; + tabind
    15ac:	e6 0f       	add	r30, r22
	adc	r31, zero_reg
    15ae:	f1 1d       	adc	r31, r1
	add	r30, r22		; + tabind (word access)
    15b0:	e6 0f       	add	r30, r22
	adc	r31, zero_reg
    15b2:	f1 1d       	adc	r31, r1

#ifdef MEM_EEPROM
        push	r25			; save tabres
    15b4:	9f 93       	push	r25
	movw	r24,r30
    15b6:	cf 01       	movw	r24, r30
	ACALL	eeprom_read_byte	; y1 = MEM_read_word(&RLtab[tabind]);
    15b8:	0e 94 b0 3e 	call	0x7d60	; 0x7d60 <eeprom_read_byte>
	mov	r20, r24
    15bc:	48 2f       	mov	r20, r24
	adiw	r30, 1			; address of high order byte
    15be:	31 96       	adiw	r30, 0x01	; 1
	movw	r24,r30
    15c0:	cf 01       	movw	r24, r30
	ACALL	eeprom_read_byte	; y1 = MEM_read_word(&RLtab[tabind]);
    15c2:	0e 94 b0 3e 	call	0x7d60	; 0x7d60 <eeprom_read_byte>
	mov	r21, r24
    15c6:	58 2f       	mov	r21, r24
	adiw	r30, 1			; tabind+1
    15c8:	31 96       	adiw	r30, 0x01	; 1
	movw	r24,r30
    15ca:	cf 01       	movw	r24, r30
	ACALL	eeprom_read_byte	; y2 = MEM_read_word(&RLtab[tabind+1]);
    15cc:	0e 94 b0 3e 	call	0x7d60	; 0x7d60 <eeprom_read_byte>
	mov	r18, r24
    15d0:	28 2f       	mov	r18, r24
	adiw	r30, 1			; address of high order byte
    15d2:	31 96       	adiw	r30, 0x01	; 1
	movw	r24,r30
    15d4:	cf 01       	movw	r24, r30
	ACALL	eeprom_read_byte	; y2 = MEM_read_word(&RLtab[tabind+1]);
    15d6:	0e 94 b0 3e 	call	0x7d60	; 0x7d60 <eeprom_read_byte>
	mov	r19, r24
    15da:	38 2f       	mov	r19, r24
        pop	r22			; restore tabres in r22
    15dc:	6f 91       	pop	r22
 	lpm	r19, Z+
 	mov	r22, r25
#endif
;  return ( ((y1 - y2) * tabres + (RL_Tab_Abstand/2)) / RL_Tab_Abstand + y2); // interpolate table
;; 	ldi	r23, 0x00	; hi8(tabres) allways zero
 	sub	r20, r18	; y1 - y2
    15de:	42 1b       	sub	r20, r18
 	sbc	r21, r19 	; maximum of 3466 need two registers
    15e0:	53 0b       	sbc	r21, r19

 	mul	r22, r20	;lo8(tabres) * lo8(y1-y2)
    15e2:	64 9f       	mul	r22, r20
 	movw	r24, r0		; r24:25 = *
    15e4:	c0 01       	movw	r24, r0
 	mul	r22, r21	;lo8(tabres) * hi8(y1-y2)
    15e6:	65 9f       	mul	r22, r21
 	add	r25, r0		; r25 + lo8(*)
    15e8:	90 0d       	add	r25, r0
;; 	mul	r23, r20	;hi8(tabres) * lo8(y1-y2) , allways zero
;; 	add	r25, r0		; r25 + lo8(*)
 	eor	r1, r1
    15ea:	11 24       	eor	r1, r1
 	adiw	r24, (RL_Tab_Abstand/2)		; 12
    15ec:	0c 96       	adiw	r24, 0x0c	; 12
 	ldi	r22, lo8(RL_Tab_Abstand)	; 25
    15ee:	69 e1       	ldi	r22, 0x19	; 25
 	ldi	r23, hi8(RL_Tab_Abstand)	; 0
    15f0:	70 e0       	ldi	r23, 0x00	; 0
 	ACALL	__udivmodhi4	; ((y1 - y2) * tabres + (RL_Tab_Abstand/2)) / RL_Tab_Abstand 
    15f2:	0e 94 08 3d 	call	0x7a10	; 0x7a10 <__udivmodhi4>
 	add	r22, r18			; + y2
    15f6:	62 0f       	add	r22, r18
 	adc	r23, r19
    15f8:	73 1f       	adc	r23, r19
 	movw	r24, r22
    15fa:	cb 01       	movw	r24, r22
	pop	r0
    15fc:	0f 90       	pop	r0
 	ret
    15fe:	08 95       	ret

00001600 <GetESR>:
       	out	_SFR_IO_ADDR(SREG), r0;
	out	_SFR_IO_ADDR(SPL), r28;
#else
 .extern __prologue_saves__
 .extern __epilogue_restores__
	ldi	r26, 30			;
    1600:	ae e1       	ldi	r26, 0x1E	; 30
	ldi	r27, 0			;
    1602:	b0 e0       	ldi	r27, 0x00	; 0
	ldi	r30, lo8(gs(Retur2))	;
    1604:	e6 e0       	ldi	r30, 0x06	; 6
	ldi	r31, hi8(gs(Retur2))	;
    1606:	fb e0       	ldi	r31, 0x0B	; 11
	jmp	__prologue_saves__ 	;
    1608:	0c 94 1d 3e 	jmp	0x7c3a	; 0x7c3a <__prologue_saves__>

0000160c <Retur2>:

#if TP_MIN > 0
	subi	r22, TP_MIN
	subi	r24, TP_MIN
#endif
	mov	SelectLowPin, r22;
    160c:	66 2e       	mov	r6, r22
	mov	SelectHighPin, r24;
    160e:	b8 2e       	mov	r11, r24
        add	r24, r22;
    1610:	86 0f       	add	r24, r22
	std	Y+1, r24;
    1612:	89 83       	std	Y+1, r24	; 0x01

	lds	r18, PartFound;		/* if (PartFound == PART_CAPACITOR) { */
    1614:	20 91 13 01 	lds	r18, 0x0113
	cpi	r18, PART_CAPACITOR;	
    1618:	28 30       	cpi	r18, 0x08	; 8
; 	brne	ad_35e4;
	brne	load_max;
    161a:	59 f5       	brne	.+86     	; 0x1672 <load_max>
	lds	r18, cap+cval_max;      /* cap_val_nF = cap.cval_max; */
    161c:	20 91 77 01 	lds	r18, 0x0177
	lds	r19, cap+cval_max+1;
    1620:	30 91 78 01 	lds	r19, 0x0178
	lds	r20, cap+cval_max+2;
    1624:	40 91 79 01 	lds	r20, 0x0179
	lds	r21, cap+cval_max+3;
    1628:	50 91 7a 01 	lds	r21, 0x017A
        sbrc	r21, 7;			/* negativ bit is set */
    162c:	57 fd       	sbrc	r21, 7
	rjmp	set_high
    162e:	15 c0       	rjmp	.+42     	; 0x165a <set_high>
	lds	r17, cap+cpre_max;      /* prefix = cap.cpre_max; */
    1630:	10 91 86 01 	lds	r17, 0x0186
	rjmp	ad_35ba;
    1634:	09 c0       	rjmp	.+18     	; 0x1648 <ad_35ba>

00001636 <ad_35ac>:

ad_35ac:
	movw	r24, r20;               /* cval /= 10;          // reduce value by factor ten */
    1636:	ca 01       	movw	r24, r20
	movw	r22, r18
    1638:	b9 01       	movw	r22, r18
	ldi	r18, 0x0A; 10
    163a:	2a e0       	ldi	r18, 0x0A	; 10
	mov	r19, zero_reg
    163c:	31 2d       	mov	r19, r1
	mov	r20, zero_reg
    163e:	41 2d       	mov	r20, r1
	mov	r21, zero_reg
    1640:	51 2d       	mov	r21, r1
	call	__udivmodsi4;           /* r18:21 = r22:25  / r18:21 */
    1642:	0e 94 2f 3d 	call	0x7a5e	; 0x7a5e <__udivmodsi4>
	subi	r17, 0xFF;              /* prefix++;            // take next decimal prefix */
    1646:	1f 5f       	subi	r17, 0xFF	; 255

00001648 <ad_35ba>:

ad_35ba:
	cpi	r17, -9;                /* while (prefix < -9) { // set cval to nF unit */
    1648:	17 3f       	cpi	r17, 0xF7	; 247
	brlt	ad_35ac;                /*  } */
    164a:	ac f3       	brlt	.-22     	; 0x1636 <ad_35ac>
        brne    load_max;		/* load max value for correction */
    164c:	91 f4       	brne	.+36     	; 0x1672 <load_max>


;	cpi	r18, lo8(900/10);       /* if (cap_val_nF < (900/10)) return(0xffff);   //capacity lower than 90 nF */
;	ldi	r22, hi8(900/10)
	cpi	r18, lo8(200/10);       /* if (cap_val_nF < (200/10)) return(0xffff);   //capacity lower than 20 nF */
    164e:	24 31       	cpi	r18, 0x14	; 20
	ldi	r22, hi8(200/10)
    1650:	60 e0       	ldi	r22, 0x00	; 0
	cpc	r19, r22
    1652:	36 07       	cpc	r19, r22
	cpc	r20, zero_reg
    1654:	41 05       	cpc	r20, r1
	cpc	r21, zero_reg
    1656:	51 05       	cpc	r21, r1
	brcc	ad_35e4
    1658:	18 f4       	brcc	.+6      	; 0x1660 <ad_35e4>

0000165a <set_high>:
set_high:
	ldi	r24, 0xff;
    165a:	8f ef       	ldi	r24, 0xFF	; 255
	ldi	r25, 0xff;
    165c:	9f ef       	ldi	r25, 0xFF	; 255
	rjmp	ad_exit; 
    165e:	41 c1       	rjmp	.+642    	; 0x18e2 <ad_exit>

00001660 <ad_35e4>:
ad_35e4:				/* } */
	cpi	r17, -9;		/* if ((pp > -9) || (cap_val_nF > 32000)) { */
    1660:	17 3f       	cpi	r17, 0xF7	; 247
	brne	load_max;
    1662:	39 f4       	brne	.+14     	; 0x1672 <load_max>
	ldi	r24, lo8(32000);
    1664:	80 e0       	ldi	r24, 0x00	; 0
	cp	r18, r24
    1666:	28 17       	cp	r18, r24
        ldi	r24, hi8(32000);
    1668:	8d e7       	ldi	r24, 0x7D	; 125
	cpc	r19, r24;
    166a:	38 07       	cpc	r19, r24
;	ldi	r24, hlo8(32000);
;	cpc	r20, r24;
	cpc	r20, r1;
    166c:	41 05       	cpc	r20, r1
;	ldi	r24, hhi8(32000);
;	cpc	r21, r24;
	cpc	r20, r1;
    166e:	41 05       	cpc	r20, r1
	brcs	store_cvn;
    1670:	10 f0       	brcs	.+4      	; 0x1676 <store_cvn>

00001672 <load_max>:
load_max:
	ldi	r18, lo8(32000);		/* cap_val_nF = 65000 */
    1672:	20 e0       	ldi	r18, 0x00	; 0
	ldi	r19, hi8(32000);
    1674:	3d e7       	ldi	r19, 0x7D	; 125

00001676 <store_cvn>:
;	ldi	r20, hlo8(32000);		/* upper word is allways zero */
;	ldi	r21, hhi8(32000);		/* upper word is allways zero */
store_cvn:
	std	Y+cap_val_nF, r18
    1676:	2c 8b       	std	Y+20, r18	; 0x14
	std	Y+cap_val_nF+1, r19
    1678:	3d 8b       	std	Y+21, r19	; 0x15
     /* normal ADC-speed, ADC-Clock 8us */
	ldi	r25, (1<<ADEN) | (1<<ADIF) | (1<<ADIE) | AUTO_CLOCK_DIV; /* enable ADC and Interrupt */
	mov	StartADCmsk, r25;
	sts	ADCSRA, StartADCmsk; 	/*  ADCSRA = StartADCmsk;	// enable ADC and Interrupt */
#else
	ldi	r18, (1<<ADSC) | (1<<ADEN) | (1<<ADIF) | AUTO_CLOCK_DIV; /* enable and start ADC */
    167a:	27 ed       	ldi	r18, 0xD7	; 215
	mov	StartADCmsk, r18;
    167c:	a2 2e       	mov	r10, r18
#endif

#if (((PIN_RL1 + 1) != PIN_RH1) || ((PIN_RL2 + 1) != PIN_RH2) || ((PIN_RL3 + 1) != PIN_RH3))
	LDIZ	PinRLRHADCtab+6; 	/* LoADC = pgm_read_byte((&PinRLRHADCtab[6])+cap.ca) | TXD_MSK; */
#else
	LDIZ	PinRLRHADCtab+3; 	/* LoADC = pgm_read_byte((&PinRLRHADCtab[3])+cap.ca) | TXD_MSK; */
    167e:	e8 e5       	ldi	r30, 0x58	; 88
    1680:	f2 e0       	ldi	r31, 0x02	; 2
#endif
	add	r30, SelectLowPin;
    1682:	e6 0d       	add	r30, r6
	adc	r31, zero_reg;
    1684:	f1 1d       	adc	r31, r1
	lpm	r24, Z+;
    1686:	85 91       	lpm	r24, Z+
	ori	r24, TXD_MSK;
    1688:	88 60       	ori	r24, 0x08	; 8
	std	Y+LoADC, r24;
    168a:	8e 87       	std	Y+14, r24	; 0x0e

#if (((PIN_RL1 + 1) != PIN_RH1) || ((PIN_RL2 + 1) != PIN_RH2) || ((PIN_RL3 + 1) != PIN_RH3))
	LDIZ	PinRLRHADCtab+6; 	/* HiADC = pgm_read_byte((&PinRLRHADCtab[6])+cap.cb) | TXD_MSK; */
#else
	LDIZ	PinRLRHADCtab+3; 	/* HiADC = pgm_read_byte((&PinRLRHADCtab[3])+cap.cb) | TXD_MSK; */
    168c:	e8 e5       	ldi	r30, 0x58	; 88
    168e:	f2 e0       	ldi	r31, 0x02	; 2
#endif
	add	r30, SelectHighPin;
    1690:	eb 0d       	add	r30, r11
	adc	r31, zero_reg;
    1692:	f1 1d       	adc	r31, r1
	lpm	r24, Z+;
    1694:	85 91       	lpm	r24, Z+
	ori	r24, TXD_MSK;
    1696:	88 60       	ori	r24, 0x08	; 8
	std	Y+HiADC, r24;
    1698:	8f 87       	std	Y+15, r24	; 0x0f

	LDIZ	PinRLRHADCtab;	/* LoPinR_L = pgm_read_byte(&PinRLRHADCtab[cap.ca]);  //R_L mask for LowPin R_L load */
    169a:	e5 e5       	ldi	r30, 0x55	; 85
    169c:	f2 e0       	ldi	r31, 0x02	; 2
	add	r30, SelectLowPin;
    169e:	e6 0d       	add	r30, r6
	adc	r31, zero_reg;
    16a0:	f1 1d       	adc	r31, r1
	lpm	LoPinR_L, Z+;
    16a2:	75 90       	lpm	r7, Z+

	LDIZ	PinRLRHADCtab;	/* HiPinR_L = pgm_read_byte(&PinRLRHADCtab[cap.cb]);	//R_L mask for HighPin R_L load */
    16a4:	e5 e5       	ldi	r30, 0x55	; 85
    16a6:	f2 e0       	ldi	r31, 0x02	; 2
	add	r30, SelectHighPin;
    16a8:	eb 0d       	add	r30, r11
	adc	r31, zero_reg;
    16aa:	f1 1d       	adc	r31, r1
	lpm	HiPinR_L, Z+;
    16ac:	c5 90       	lpm	r12, Z+
	or	SelectLowPin, r25;
	//  SelectHighPin = (cap.cb | (1<<REFS1) | (0<<REFS0));	// switch ADC to HighPin, Internal Ref. 
	or	SelectHighPin, r25;
#else
	//  SelectLowPin = (cap.ca | (1<<REFS1) | (1<<REFS0));	// switch ADC to LowPin, Internal Ref. 
	ldi	r25, (1<<REFS1)|(1<<REFS0);	0xC0
    16ae:	90 ec       	ldi	r25, 0xC0	; 192
	or	SelectLowPin, r25;
    16b0:	69 2a       	or	r6, r25
	//  SelectHighPin = (cap.cb | (1<<REFS1) | (1<<REFS0));	// switch ADC to HighPin, Internal Ref. 
	or	SelectHighPin, r25;
    16b2:	b9 2a       	or	r11, r25
#endif


	// Measurement of ESR of capacitors AC Mode
	ldi	r24, 0x01; 	/* sumvolt0 = 1;	// set sum of LowPin voltage to 1 to prevent divide by zero */
    16b4:	81 e0       	ldi	r24, 0x01	; 1
	mov	r14, r24;
    16b6:	e8 2e       	mov	r14, r24
	mov	r15, zero_reg;
    16b8:	f1 2c       	mov	r15, r1
	mov	r16, zero_reg;
    16ba:	01 2d       	mov	r16, r1
	mov	r17, zero_reg;
    16bc:	11 2d       	mov	r17, r1
	std	Y+sumvolt1, r24;	/* sumvolt1 = 1;	// clear sum of HighPin voltage with current */
    16be:	8e 83       	std	Y+6, r24	; 0x06
	//                                // offset is about (x*10*200)/34000 in 0.01 Ohm units
	std	Y+sumvolt1+1, zero_reg;
    16c0:	1f 82       	std	Y+7, r1	; 0x07
	std	Y+sumvolt1+2, zero_reg;
    16c2:	18 86       	std	Y+8, r1	; 0x08
	std	Y+sumvolt1+3, zero_reg;
    16c4:	19 86       	std	Y+9, r1	; 0x09
	std	Y+sumvolt2, zero_reg;	/* sumvolt2 = 0;	// clear sum of HighPin voltage without current */
    16c6:	1a 86       	std	Y+10, r1	; 0x0a
	std	Y+sumvolt2+1, zero_reg;
    16c8:	1b 86       	std	Y+11, r1	; 0x0b
	std	Y+sumvolt2+2, zero_reg;
    16ca:	1c 86       	std	Y+12, r1	; 0x0c
	std	Y+sumvolt2+3, zero_reg;
    16cc:	1d 86       	std	Y+13, r1	; 0x0d
	std	Y+LowUpCount, zero_reg;
    16ce:	18 8e       	std	Y+24, r1	; 0x18
	std	Y+HighUpCount, zero_reg;
    16d0:	19 8e       	std	Y+25, r1	; 0x19
	std	Y+HighTooHigh, zero_reg;
    16d2:	1b 8e       	std	Y+27, r1	; 0x1b
	std	Y+LowTooHigh, zero_reg;
    16d4:	1a 8e       	std	Y+26, r1	; 0x1a
	call	EntladePins;	/* EntladePins();	// discharge capacitor */
    16d6:	0e 94 42 26 	call	0x4c84	; 0x4c84 <EntladePins>
	ldi	r24, TXD_VAL;
    16da:	88 e0       	ldi	r24, 0x08	; 8
	AOUT	ADC_PORT, r24; /* ADC_PORT = TXD_VAL;	// switch ADC-Port to GND */
    16dc:	88 b9       	out	0x08, r24	; 8
	sts	ADMUX, SelectLowPin;	/* ADMUX = SelectLowPin;	// set Mux input and Voltage Reference to internal 1.1V */
    16de:	60 92 7c 00 	sts	0x007C, r6
#ifdef NO_AREF_CAP
	call	wait100us;			/* time for voltage stabilization */
    16e2:	1c de       	rcall	.-968    	; 0x131c <wait100us>
    16e4:	3f 85       	ldd	r19, Y+15	; 0x0f
#else
	call	wait10ms;    		/* time for voltage stabilization with 100nF */
#endif
	/* start voltage should be negativ */
	ldd	r19, Y+HiADC;		/* ADC_DDR = HiADC;	// switch High Pin to GND */
    16e6:	37 b9       	out	0x07, r19	; 7
	AOUT	ADC_DDR, r19;		/* switch High Pin to GND */
    16e8:	75 b8       	out	0x05, r7	; 5
	AOUT	R_PORT, LoPinR_L	/* r7 */
    16ea:	74 b8       	out	0x04, r7	; 4
	AOUT	R_DDR, LoPinR_L		/* r7 */
    16ec:	55 e0       	ldi	r21, 0x05	; 5

000016ee <plop1>:
	ldi	r21, (HALF_PULSE_LENGTH_TICS/3)
    16ee:	5a 95       	dec	r21
plop1:
	dec	r21
    16f0:	f1 f7       	brne	.-4      	; 0x16ee <plop1>
	brne	plop1
    16f2:	00 00       	nop
#if (HALF_PULSE_LENGTH_TICS % 3) > 1
	nop
#endif
#if (HALF_PULSE_LENGTH_TICS % 3) > 0
	nop
    16f4:	14 b8       	out	0x04, r1	; 4
#endif
	AOUT	R_DDR, zero_reg;	/* R_DDR = 0 */
    16f6:	15 b8       	out	0x05, r1	; 5
	AOUT	R_PORT, zero_reg;	/* R_PORT = 0 */
    16f8:	dd 24       	eor	r13, r13

000016fa <esr_loop>:

	   // Measurement frequency is given by sum of ADC-Reads < 1116 Hz for normal ADC speed.
	   // ADC Sample and Hold (SH) is done 1.5 ADC clock number after real start of conversion.
	   // Real ADC-conversion is started with the next ADC-Clock (125kHz) after setting the ADSC bit.
	eor	r13, r13;			/* for(ii=0;ii<MAX_CNT;ii++) { */
    16fa:	3e 85       	ldd	r19, Y+14	; 0x0e
						// That will cause too high voltage without current.
	//         adcv[0] = ADCW;		// Voltage LowPin with current
	//         ADMUX = SelectHighPin;
	      /* ********* Forward direction, connect Low side with GND *********** */
esr_loop:
	ldd	r19, Y+LoADC;
    16fc:	37 b9       	out	0x07, r19	; 7
	AOUT	ADC_DDR, r19;		/* ADC_DDR = LoADC;	// switch Low-Pin to output (GND) */
    16fe:	75 b8       	out	0x05, r7	; 5
	AOUT	R_PORT, LoPinR_L;	/* R_PORT = LoPinR_L (r7) */
    1700:	74 b8       	out	0x04, r7	; 4
	AOUT	R_DDR, LoPinR_L;	/* R_DDR = LoPinR_L (r7) */
    1702:	60 92 7c 00 	sts	0x007C, r6
	sts	ADMUX, SelectLowPin;		/* ADMUX = SelectLowPin; */
    1706:	a8 95       	wdr

	wdr	;				/* wdt_reset(); */
    1708:	a0 92 7a 00 	sts	0x007A, r10
;=#=	StartADCwait			/* start ADC and wait */
	StartADCwait			/* start ADC and wait */
    170c:	80 91 7a 00 	lds	r24, 0x007A
    1710:	86 fd       	sbrc	r24, 6
    1712:	fc cf       	rjmp	.-8      	; 0x170c <esr_loop+0x12>
    1714:	20 90 78 00 	lds	r2, 0x0078
	lds	adcv0L, ADCW;			/* adcv[0] = ADCW;	// Voltage LowPin reference */
    1718:	30 90 79 00 	lds	r3, 0x0079
	lds	adcv0H, ADCW+1;
    171c:	b0 92 7c 00 	sts	0x007C, r11
	sts	ADMUX, SelectHighPin;		/* ADMUX = SelectHighPin; */
    1720:	4c 2d       	mov	r20, r12

	mov	r20, HiPinR_L
    1722:	e3 d0       	rcall	.+454    	; 0x18ea <strtADC_pulse>
	rcall	strtADC_pulse		; start ADC, generate pulse and wait 
    1724:	20 91 78 00 	lds	r18, 0x0078

	lds	r18, ADCW;		/* adcv[1] = ADCW;	// Voltage HighPin with current */
    1728:	30 91 79 00 	lds	r19, 0x0079
	lds	r19, ADCW+1;
    172c:	28 8b       	std	Y+16, r18	; 0x10
	sts	ADCSRA, StartADCmsk; 	/*  ADCSRA = StartADCmsk;	// enable ADC and Interrupt */
#endif

;=======

	std	Y+adcvv1, r18;
    172e:	39 8b       	std	Y+17, r19	; 0x11
	std	Y+adcvv1+1, r19;
    1730:	3f 85       	ldd	r19, Y+15	; 0x0f

	      /* ********* Reverse direction, connect High side with GND *********** */
	ldd	r19, Y+HiADC;		/* ADC_DDR = HiADC;	// switch High Pin to GND */
    1732:	37 b9       	out	0x07, r19	; 7
	AOUT	ADC_DDR, r19;		/* ADC_DDR = HiADC;	// switch High-Pin to output (GND) */
    1734:	c5 b8       	out	0x05, r12	; 5
	AOUT	R_PORT, HiPinR_L;	/* R_PORT = HiPinR_L (r12);	// switch R-Port to VCC */
    1736:	c4 b8       	out	0x04, r12	; 4
	AOUT	R_DDR, HiPinR_L;	/* R_DDR = HiPinR_L (r12);	// switch R_L port for HighPin to output (VCC) */
    1738:	a8 95       	wdr

	wdr	;			/* wdt_reset(); */
    173a:	b0 92 7c 00 	sts	0x007C, r11
	sts	ADMUX, SelectHighPin;	/* ADMUX = SelectHighPin; */
    173e:	a0 92 7a 00 	sts	0x007A, r10

;=#=	StartADCwait		/* start ADC and wait */
	StartADCwait		/* start ADC and wait */
    1742:	80 91 7a 00 	lds	r24, 0x007A
    1746:	86 fd       	sbrc	r24, 6
    1748:	fc cf       	rjmp	.-8      	; 0x1742 <esr_loop+0x48>
    174a:	60 91 78 00 	lds	r22, 0x0078

	lds	r22, ADCW;         	/* adcv[2] = ADCW;	// Reverse Reference Voltage HighPin  */
    174e:	70 91 79 00 	lds	r23, 0x0079
	lds	r23, ADCW+1;
    1752:	60 92 7c 00 	sts	0x007C, r6
	sts	ADMUX, SelectLowPin;	/*  ADMUX = SelectLowPin; */
    1756:	47 2d       	mov	r20, r7
	// ****** Polling mode big cap
	mov	r20, LoPinR_L
    1758:	c8 d0       	rcall	.+400    	; 0x18ea <strtADC_pulse>
	rcall	strtADC_pulse		; start ADC, generate pulse and wait 
    175a:	40 91 78 00 	lds	r20, 0x0078

	lds	r20, ADCW;		/* adcv[3] = ADCW;	//  Voltage LowPin with current */
    175e:	50 91 79 00 	lds	r21, 0x0079
	lds	r21, ADCW+1;
    1762:	14 b8       	out	0x04, r1	; 4
#ifdef ADC_Sleep_Mode
	sts	ADCSRA, StartADCmsk; 	/*  ADCSRA = StartADCmsk;	// enable ADC and Interrupt */
#endif

	AOUT	R_DDR, zero_reg; 	/* R_DDR = 0; // switch current off */
    1764:	cb 01       	movw	r24, r22

	movw	r24, r22;		/*  adcv[2] */
    1766:	82 0d       	add	r24, r2
	add	r24, adcv0L;		/* adcv[0] + adcv[2] // add sum of both LowPin voltages with current */
    1768:	93 1d       	adc	r25, r3
	adc	r25, adcv0H;
    176a:	e8 0e       	add	r14, r24

	add	r14, r24;		/* r14:17 = sumvolt0 += (adcv[0] + adcv[2]); */
    176c:	f9 1e       	adc	r15, r25
	adc	r15, r25;
    176e:	01 1d       	adc	r16, r1
	adc	r16, zero_reg;
    1770:	11 1d       	adc	r17, r1
	adc	r17, zero_reg;
    1772:	ea 82       	std	Y+2, r14	; 0x02
	std	Y+sumvolt0, r14;
    1774:	fb 82       	std	Y+3, r15	; 0x03
	std	Y+sumvolt0+1, r15;
    1776:	0c 83       	std	Y+4, r16	; 0x04
	std	Y+sumvolt0+2, r16;
    1778:	1d 83       	std	Y+5, r17	; 0x05
	std	Y+sumvolt0+3, r17;
    177a:	88 89       	ldd	r24, Y+16	; 0x10
	ldd	r24, Y+adcvv1;		/* add HighPin voltages with current */
    177c:	99 89       	ldd	r25, Y+17	; 0x11
	ldd	r25, Y+adcvv1+1; 
    177e:	84 0f       	add	r24, r20
	add	r24, r20;		/* adcv[1] + adcv[3] */
    1780:	95 1f       	adc	r25, r21
	adc	r25, r21;
    1782:	2e 81       	ldd	r18, Y+6	; 0x06
	ldd	r18, Y+sumvolt1;	/* sumvolt1 += (adcv[1] + adcv[3]); */
    1784:	3f 81       	ldd	r19, Y+7	; 0x07
	ldd	r19, Y+sumvolt1+1;
    1786:	68 85       	ldd	r22, Y+8	; 0x08
	ldd	r22, Y+sumvolt1+2;
    1788:	79 85       	ldd	r23, Y+9	; 0x09
	ldd	r23, Y+sumvolt1+3;
    178a:	28 0f       	add	r18, r24
	add	r18, r24;
    178c:	39 1f       	adc	r19, r25
	adc	r19, r25;
    178e:	61 1d       	adc	r22, r1
	adc	r22, zero_reg;
    1790:	71 1d       	adc	r23, r1
	adc	r23, zero_reg;
    1792:	2e 83       	std	Y+6, r18	; 0x06
	std	Y+sumvolt1, r18;
    1794:	3f 83       	std	Y+7, r19	; 0x07
	std	Y+sumvolt1+1, r19;
    1796:	68 87       	std	Y+8, r22	; 0x08
	std	Y+sumvolt1+2, r22;
    1798:	79 87       	std	Y+9, r23	; 0x09
	std	Y+sumvolt1+3, r23;
    179a:	22 e3       	ldi	r18, 0x32	; 50

/*===================================================================================================*/
/*      Range Check for voltages  */
  	/* Y+adcvv1 is still the voltage of forward direction, r20:21 the voltage of reverse direction */
	ldi	r18, lo8(50);
    179c:	24 17       	cp	r18, r20
	cp	r18, r20;
    179e:	15 06       	cpc	r1, r21
	cpc	zero_reg, r21;
    17a0:	48 f0       	brcs	.+18     	; 0x17b4 <is_ok1>
	brcs	is_ok1;		/* r20:21 >= 50 */
    17a2:	75 b8       	out	0x05, r7	; 5
	AOUT	R_PORT, LoPinR_L;	/* R_PORT = LoPinR_L (r7);  */
    17a4:	74 b8       	out	0x04, r7	; 4
	AOUT	R_DDR, LoPinR_L;	/* R_DDR = LoPinR_L (r7);	// switch LowPin with 680 Ohm to VCC */
    17a6:	c4 dd       	rcall	.-1144   	; 0x1330 <wait1us>
	call	wait1us;			/* additional charge the capacitor */
    17a8:	14 b8       	out	0x04, r1	; 4
    17aa:	15 b8       	out	0x05, r1	; 5
	AOUT	R_DDR, zero_reg; 	// switch current off
    17ac:	88 8d       	ldd	r24, Y+24	; 0x18
	AOUT	R_PORT, zero_reg; 
    17ae:	83 95       	inc	r24
	ldd	r24, Y+LowUpCount; 	/* count additional load pulses at Low side */
    17b0:	88 8f       	std	Y+24, r24	; 0x18
	inc	r24;
    17b2:	07 c0       	rjmp	.+14     	; 0x17c2 <is_ok1b>

000017b4 <is_ok1>:
	std	Y+LowUpCount, r24;
    17b4:	48 3e       	cpi	r20, 0xE8	; 232
	rjmp	is_ok1b;
    17b6:	73 e0       	ldi	r23, 0x03	; 3
is_ok1:
	cpi	r20, lo8(1000);
    17b8:	57 07       	cpc	r21, r23
        ldi	r23, hi8(1000);
    17ba:	18 f0       	brcs	.+6      	; 0x17c2 <is_ok1b>
	cpc	r21, r23;
    17bc:	8a 8d       	ldd	r24, Y+26	; 0x1a
        brcs	is_ok1b;			/* voltage reverse direction < 1000 */
    17be:	83 95       	inc	r24
	ldd	r24, Y+LowTooHigh; 	/* count  pulses with too high voltage at Low side */
    17c0:	8a 8f       	std	Y+26, r24	; 0x1a

000017c2 <is_ok1b>:
	inc	r24;
    17c2:	88 89       	ldd	r24, Y+16	; 0x10
	std	Y+LowTooHigh, r24;
    17c4:	99 89       	ldd	r25, Y+17	; 0x11
is_ok1b:
	ldd	r24, Y+adcvv1;
    17c6:	28 17       	cp	r18, r24
	ldd	r25, Y+adcvv1+1;
    17c8:	19 06       	cpc	r1, r25
	cp	r18, r24;
    17ca:	58 f0       	brcs	.+22     	; 0x17e2 <is_ok2>
	cpc	zero_reg, r25;	/* adcvv1 >= 50 */
    17cc:	3e 85       	ldd	r19, Y+14	; 0x0e
	brcs	is_ok2;
    17ce:	37 b9       	out	0x07, r19	; 7
	ldd	r19, Y+LoADC;
    17d0:	c5 b8       	out	0x05, r12	; 5
	AOUT	ADC_DDR, r19;		/* ADC_DDR = LoADC;	// switch Low-Pin to output (GND) */
    17d2:	c4 b8       	out	0x04, r12	; 4
	AOUT	R_PORT, HiPinR_L;	/* R_PORT = HiPinR_L (r12);	// switch R-Port to VCC */
    17d4:	ad dd       	rcall	.-1190   	; 0x1330 <wait1us>
	AOUT	R_DDR, HiPinR_L;	/* R_DDR = HiPinR_L (r12);	// switch R_L port for HighPin to output (VCC) */
    17d6:	14 b8       	out	0x04, r1	; 4
	call	wait1us;			/* additional charge the capacitor */
    17d8:	15 b8       	out	0x05, r1	; 5
    17da:	89 8d       	ldd	r24, Y+25	; 0x19
;##	DelayBigCap;			/* wait the time defined by macro */
	AOUT	R_DDR, zero_reg;	/* R_DDR = 0; // switch current off,  SH is 1.5 ADC clock behind real start */
    17dc:	83 95       	inc	r24
	AOUT	R_PORT, zero_reg;	/* R_PORT = 0; */
    17de:	89 8f       	std	Y+25, r24	; 0x19
	ldd	r24, Y+HighUpCount;	/* count additional load pulses at High side */
    17e0:	07 c0       	rjmp	.+14     	; 0x17f0 <is_ok2b>

000017e2 <is_ok2>:
	inc	r24;
    17e2:	88 3e       	cpi	r24, 0xE8	; 232
	std	Y+HighUpCount, r24;
    17e4:	73 e0       	ldi	r23, 0x03	; 3
	rjmp	is_ok2b;
    17e6:	97 07       	cpc	r25, r23
is_ok2:
	cpi	r24, lo8(1000);
    17e8:	18 f0       	brcs	.+6      	; 0x17f0 <is_ok2b>
        ldi	r23, hi8(1000);
    17ea:	8b 8d       	ldd	r24, Y+27	; 0x1b
	cpc	r25, r23;
    17ec:	83 95       	inc	r24
        brcs	is_ok2b;			/* voltage forward direction < 1000 */
    17ee:	8b 8f       	std	Y+27, r24	; 0x1b

000017f0 <is_ok2b>:
	ldd	r24, Y+HighTooHigh; 	/* count  pulses with too high voltage at High side */
    17f0:	d3 94       	inc	r13
	inc	r24;
    17f2:	5d 2d       	mov	r21, r13
	std	Y+HighTooHigh, r24;
    17f4:	5f 3f       	cpi	r21, 0xFF	; 255
is_ok2b:
/*===================================================================================================*/
	inc	r13;			/* for(    ;ii<MAX_CNT;ii++)  */
    17f6:	49 f0       	breq	.+18     	; 0x180a <ad_38ac>
	mov	r21, r13;
    17f8:	5f 37       	cpi	r21, 0x7F	; 127
	cpi	r21, MAX_CNT;
    17fa:	31 f4       	brne	.+12     	; 0x1808 <jesr_loop>
	breq	ad_38ac;
    17fc:	5c 2d       	mov	r21, r12
#if FLASHEND > 0x3fff
  /* use additional 470k only with processors with more than 16k */
        cpi	r21, MAX_CNT/2;
    17fe:	55 0f       	add	r21, r21
        brne	jesr_loop
    1800:	c5 0e       	add	r12, r21
	add	r30, r21;
	adc	r31, zero_reg;
	lpm	r21, Z+;
	add	LoPinR_L, r21		; enable also the 470k resistor
 #else
	mov	r21, HiPinR_L
    1802:	57 2d       	mov	r21, r7
	add	r21, r21	; quick and dirty: usually is double HiPinR_H
    1804:	55 0f       	add	r21, r21
	add	HiPinR_L, r21
    1806:	75 0e       	add	r7, r21

00001808 <jesr_loop>:
	mov	r21, LoPinR_L
    1808:	78 cf       	rjmp	.-272    	; 0x16fa <esr_loop>

0000180a <ad_38ac>:
	add	r21, r21	; quick and dirty: usually is double LoPinR_H
    180a:	40 90 32 01 	lds	r4, 0x0132
	add	LoPinR_L, r21
 #endif
jesr_loop:
#endif
	rjmp	esr_loop;		/* } // end for */
    180e:	50 90 33 01 	lds	r5, 0x0133

#if RRpinMI == PIN_RM
	ldi	r18, lo8(PIN_RM*10);
	ldi	r19, hi8(PIN_RM*10);
#else
	lds	r4, RRpinMI;		/*  pin_rmi */
    1812:	44 0c       	add	r4, r4
	lds	r5, RRpinMI+1;
    1814:	55 1c       	adc	r5, r5
    1816:	92 01       	movw	r18, r4
	add	r4, r4;		RRpinMI*2
    1818:	e4 e0       	ldi	r30, 0x04	; 4

0000181a <ad_2r>:
	adc	r5, r5;
    181a:	24 0d       	add	r18, r4
	movw	r18, r4;
    181c:	35 1d       	adc	r19, r5
	ldi	r30, 4;
    181e:	ea 95       	dec	r30
ad_2r:
	add	r18, r4;		+ 4*(2*RRpinMI)
    1820:	e1 f7       	brne	.-8      	; 0x181a <ad_2r>
	adc	r19, r5;
    1822:	29 01       	movw	r4, r18
	dec	r30;
    1824:	57 01       	movw	r10, r14
	brne	ad_2r;			add next (2*RRpinMI)
    1826:	68 01       	movw	r12, r16
#endif
	movw	r4, r18;		/* r4:5 = 10 * RRpinMI */
    1828:	6e 80       	ldd	r6, Y+6	; 0x06
	movw	r10, r14;		/* r10:13 = r14:17 = sumvolt0 */
    182a:	7f 80       	ldd	r7, Y+7	; 0x07
	movw	r12, r16;
    182c:	88 84       	ldd	r8, Y+8	; 0x08

	ldd	r6, Y+sumvolt1;
    182e:	99 84       	ldd	r9, Y+9	; 0x09
	ldd	r7, Y+sumvolt1+1;
    1830:	20 91 13 01 	lds	r18, 0x0113
	ldd	r8, Y+sumvolt1+2;
	ldd	r9, Y+sumvolt1+3;
    1834:	28 30       	cpi	r18, 0x08	; 8
/* ############################################################ */
	lds	r18, PartFound;		/* if (PartFound == PART_CAPACITOR) { */
    1836:	c1 f4       	brne	.+48     	; 0x1868 <no_sub>
    1838:	6c 89       	ldd	r22, Y+20	; 0x14
	cpi	r18, PART_CAPACITOR;	
    183a:	7d 89       	ldd	r23, Y+21	; 0x15
 	brne	no_sub;			/* it is not a capacitor */
    183c:	81 2d       	mov	r24, r1
/* Aproximation of 5000*(1 - exp(13.5e-6/(cap_val_nF*1.e-9*(0.1*(PIN_RM+PIN_RP+R_L_VAL)))) - 2500*(1 - exp(-27e-6/(cap_val_nF*1.e-9*(0.1*(PIN_RM+PIN_RP+R_L_VAL))))) */
/*  is done by ((6744116/(PIN_RM+PIN_RP+R_L_VAL))*(6744116/(PIN_RM+PIN_RP+R_L_VAL))) / (cap_val_nF * (cap_val_nF + (137180/(PIN_RM+PIN_RP+R_L_VAL)))) */
/*  is done by 872520 / (cap_val_nF * (cap_val_nF + 19)) */
; #define FAKTOR_ESR (9537620/(PIN_RM+PIN_RP+R_L_VAL))

	ldd	r22, Y+cap_val_nF;	/* sumvolt1 -= (1745098UL*MAX_CNT) / (cap_val_nF * (cap_val_nF + 19)); */
    183e:	91 2d       	mov	r25, r1
	ldd	r23, Y+cap_val_nF+1;
    1840:	65 50       	subi	r22, 0x05	; 5
;	ldd	r24, Y+cap_val_nF+2;
	mov	r24, r1			/* upper bits of cap_val_nF are allway zero */
    1842:	70 40       	sbci	r23, 0x00	; 0
;	ldd	r25, Y+cap_val_nF+3;
	mov	r25, r1			/* upper bits of cap_val_nF are allway zero */
    1844:	80 40       	sbci	r24, 0x00	; 0
;#define FAKTOR_ESR (780000/(PIN_RM+PIN_RP+R_L_VAL))	/* 127 */
 #else
;#define FAKTOR_ESR (920000/(PIN_RM+PIN_RP+R_L_VAL))	/* 127 */
;#define CAP_OFFSET (433200/(PIN_RM+PIN_RP+R_L_VAL))	/* 60 nF */
 #endif
      	subi	r22, lo8(CAP_OFFSET); 0xED; 237
    1846:	90 40       	sbci	r25, 0x00	; 0
      	sbci	r23, hi8(CAP_OFFSET); 0xFF; 255
    1848:	9b 01       	movw	r18, r22
      	sbci	r24, hlo8(CAP_OFFSET); 0xFF; 255
    184a:	ac 01       	movw	r20, r24
      	sbci	r25, hhi8(CAP_OFFSET); 0xFF; 255
    184c:	0e 94 ed 3c 	call	0x79da	; 0x79da <__mulsi3>
	movw	r18, r22;		/* r18:21 = r22:25 = (cap_val_nF-60); */
	movw	r20, r24;
    1850:	9b 01       	movw	r18, r22
	call	__mulsi3;		/* (cap_val_nF - 60) * (cap_val_nF - 60) */
    1852:	ac 01       	movw	r20, r24
    1854:	60 e7       	ldi	r22, 0x70	; 112

       	movw	r18, r22;
    1856:	79 e7       	ldi	r23, 0x79	; 121
       	movw	r20, r24;
    1858:	86 e1       	ldi	r24, 0x16	; 22
       	ldi	r22, lo8(FAKTOR_ESR*FAKTOR_ESR*MAX_CNT); 0x36; 54
    185a:	90 e0       	ldi	r25, 0x00	; 0
       	ldi	r23, hi8(FAKTOR_ESR*FAKTOR_ESR*MAX_CNT); 0x29; 41
    185c:	0e 94 2f 3d 	call	0x7a5e	; 0x7a5e <__udivmodsi4>
       	ldi	r24, hlo8(FAKTOR_ESR*FAKTOR_ESR*MAX_CNT); 0x86; 134
       	ldi	r25, hhi8(FAKTOR_ESR*FAKTOR_ESR*MAX_CNT); 0x1A; 26
    1860:	62 1a       	sub	r6, r18
	call	__udivmodsi4;
    1862:	73 0a       	sbc	r7, r19
    1864:	84 0a       	sbc	r8, r20
	sub	r6, r18
    1866:	95 0a       	sbc	r9, r21

00001868 <no_sub>:
	sbc	r7, r19
    1868:	a6 14       	cp	r10, r6
	sbc	r8, r20
    186a:	b7 04       	cpc	r11, r7
	sbc	r9, r21
    186c:	c8 04       	cpc	r12, r8
no_sub:				/* } */
/* ############################################################ */

	cp	r10, r6;		/* if (sumvolt1 > sumvolt0) {  */
    186e:	d9 04       	cpc	r13, r9
	cpc	r11, r7;
    1870:	28 f4       	brcc	.+10     	; 0x187c <ad_396c>
	cpc	r12, r8;
    1872:	6a 18       	sub	r6, r10
	cpc	r13, r9;
    1874:	7b 08       	sbc	r7, r11
	brcc	ad_396c;
    1876:	8c 08       	sbc	r8, r12
	sub	r6, r10;		/* sumvolt1 -= sumvolt0;	// difference HighPin - LowPin Voltage with current */
    1878:	9d 08       	sbc	r9, r13
	sbc	r7, r11;
    187a:	03 c0       	rjmp	.+6      	; 0x1882 <ad_3972>

0000187c <ad_396c>:
	sbc	r8, r12;
    187c:	66 24       	eor	r6, r6
	sbc	r9, r13;
    187e:	77 24       	eor	r7, r7
	rjmp	ad_3972;		/* } else { */
    1880:	43 01       	movw	r8, r6

00001882 <ad_3972>:
ad_396c:
	eor	r6, r6;			/* sumvolt1 = 0; */
    1882:	b2 01       	movw	r22, r4
	eor	r7, r7
    1884:	80 e0       	ldi	r24, 0x00	; 0
	movw	r8, r6
    1886:	90 e0       	ldi	r25, 0x00	; 0
	ldi	r20, '#';
	ldi	r18, 4	;
	call	DisplayValue16;
	call	wait2s
#endif
	movw	r22, r4
    1888:	93 01       	movw	r18, r6
	ldi	r24, 0x00;
    188a:	a4 01       	movw	r20, r8
	ldi	r25, 0x00;	/*  r22:25 = 10 * (unsigned long)RRpinMI)  */
    188c:	0e 94 ed 3c 	call	0x79da	; 0x79da <__mulsi3>
	      // sumvolt0 is the sum of voltages at LowPin, caused by output resistance of Port
	      // RRpinMI is the port output resistance in 0.1 Ohm units.
	      // we scale up the difference voltage with 10 to get 0.01 Ohm units of ESR
		/* esrvalue = (sumvolt1 * 10 * (unsigned long)RRpinMI) / sumvolt0; */
	movw	r18, r6;		/* r18:21 = r6:9 = sumvolt1 */
	movw	r20, r8;
    1890:	95 01       	movw	r18, r10
	call	__mulsi3;		/* r22:25 = r22:25 * r18:21 */
    1892:	a6 01       	movw	r20, r12
    1894:	0e 94 2f 3d 	call	0x7a5e	; 0x7a5e <__udivmodsi4>
	movw	r18, r10;	/* r18:21 = r10:13 = sumvolt0 */
	movw	r20, r12;
    1898:	89 e4       	ldi	r24, 0x49	; 73
	call	__udivmodsi4;		/* r18:21 = r22:25  / r18:21 */
    189a:	93 e0       	ldi	r25, 0x03	; 3
    189c:	79 81       	ldd	r23, Y+1	; 0x01
	ldi	r24, lo8(EE_ESR_ZEROtab);	/* esr0 = (int8_t)eeprom_read_byte(&EE_ESR_ZEROtab[lopin+hipin]); */
    189e:	87 0f       	add	r24, r23
	ldi	r25, hi8(EE_ESR_ZEROtab);
    18a0:	91 1d       	adc	r25, r1
        ldd	r23, Y+1;
    18a2:	0e 94 b0 3e 	call	0x7d60	; 0x7d60 <eeprom_read_byte>
        add	r24, r23;
	adc	r25, zero_reg;
    18a6:	68 2e       	mov	r6, r24
	call	eeprom_read_byte;
    18a8:	c9 01       	movw	r24, r18
    18aa:	60 e1       	ldi	r22, 0x10	; 16
	mov	r6, r24;
    18ac:	70 e0       	ldi	r23, 0x00	; 0
	movw	r24,r18;	/* r24:25 = r18:19 = esrvalue */
    18ae:	0e 94 08 3d 	call	0x7a10	; 0x7a10 <__udivmodhi4>
	ldi	r22, 16;
	ldi	r23, 0;
    18b2:	26 0f       	add	r18, r22
	call	__udivmodhi4	/* r22:23 = r24:25 / r22:23 */
    18b4:	37 1f       	adc	r19, r23
    18b6:	c9 01       	movw	r24, r18
	add	r18, r22;	/* esrvalue += esrvalue / 16; */
    18b8:	68 16       	cp	r6, r24
	adc	r19, r23;
    18ba:	19 06       	cpc	r1, r25
	movw	r24,r18;	/* esrvalue */
    18bc:	18 f4       	brcc	.+6      	; 0x18c4 <esr_too_less>
	cp	r6, r24;		/* if (esrvalue > esr0) esrvalue -= esr0; */
    18be:	86 19       	sub	r24, r6
	cpc	zero_reg, r25;
    18c0:	91 09       	sbc	r25, r1
	brcc	esr_too_less;
    18c2:	0f c0       	rjmp	.+30     	; 0x18e2 <ad_exit>

000018c4 <esr_too_less>:
	sub	r24, r6;		/* - esr0 */ 
    18c4:	8c 5e       	subi	r24, 0xEC	; 236
	sbc	r25, zero_reg;
    18c6:	9f 4f       	sbci	r25, 0xFF	; 255
	rjmp	ad_exit;
    18c8:	86 15       	cp	r24, r6
esr_too_less:
#ifdef AUTO_CAL
        subi	r24, lo8(-R_LIMIT_TO_UNCALIBRATED);		/* + 0.20 Ohm */
    18ca:	91 05       	cpc	r25, r1
        sbci	r25, hi8(-R_LIMIT_TO_UNCALIBRATED);		/* esrvalue + 20 */
    18cc:	40 f4       	brcc	.+16     	; 0x18de <esr_too_less2>
	cp	r24, r6;		/* if ((esrvalue+20) < esr0) ; */
    18ce:	8c 89       	ldd	r24, Y+20	; 0x14
	cpc	r25, zero_reg;
    18d0:	9d 89       	ldd	r25, Y+21	; 0x15
	brcc	esr_too_less2;
    18d2:	84 39       	cpi	r24, 0x94	; 148
	ldd	r24, Y+cap_val_nF;	/* mark only, if cap_val_nF > 4500 */
    18d4:	81 e1       	ldi	r24, 0x11	; 17
	ldd     r25, Y+cap_val_nF+1;
    18d6:	98 07       	cpc	r25, r24
;	ldd	r26, Y+cap_val_nF+2;	/* the upper bits (cap_val_nF+2|3) are always zero */ 
	cpi	r24, lo8(4500);
    18d8:	10 f0       	brcs	.+4      	; 0x18de <esr_too_less2>
	ldi	r24, hi8(4500);
    18da:	0e 94 4b 16 	call	0x2c96	; 0x2c96 <mark_as_uncalibrated>

000018de <esr_too_less2>:
	cpc	r25, r24;
	brcs	esr_too_less2;
    18de:	81 2d       	mov	r24, r1
	call	mark_as_uncalibrated;
    18e0:	91 2d       	mov	r25, r1

000018e2 <ad_exit>:
    18e2:	6e 96       	adiw	r28, 0x1e	; 30
/*	ldi	r24,'<'; */
/*	call	lcd_data; */
esr_too_less2:
#endif
	mov	r24, zero_reg;
    18e4:	e2 e1       	ldi	r30, 0x12	; 18
	mov	r25, zero_reg;
    18e6:	0c 94 39 3e 	jmp	0x7c72	; 0x7c72 <__epilogue_restores__>

000018ea <strtADC_pulse>:
	pop	r3;
	pop	r2;
	ret;
#else
	adiw	r28, 30
	ldi	r30, 18
    18ea:	10 92 81 00 	sts	0x0081, r1
	jmp	__epilogue_restores__
    18ee:	10 92 80 00 	sts	0x0080, r1
    delay to pin high: lds,sbrc,sts and out Instructions are 7 clock tics */
  #define PIN_HIGH_DELAY (6+OUT_DELAY + 3 + (F_CPU_HZ/4000000))
 #endif
 #define WAST_TICS (((TICS_PER_ADC_CLOCK*5)/2) - HALF_PULSE_LENGTH_TICS - PIN_HIGH_DELAY)
#else
	sts	TCCR1B, r1		; stop counter1
    18f2:	10 92 6f 00 	sts	0x006F, r1
	sts	TCCR1A, r1		; TCCR1A = 0 , normal port operation
    18f6:	10 92 8b 00 	sts	0x008B, r1
	sts	TIMSK1, r1		; disable all timer1 interrupts
    18fa:	10 92 8a 00 	sts	0x008A, r1
	sts	OCR1BH, r1		; OCR!B = 0
    18fe:	57 e0       	ldi	r21, 0x07	; 7
	sts	OCR1BL, r1
    1900:	56 bb       	out	0x16, r21	; 22
    1902:	5f ef       	ldi	r21, 0xFF	; 255
	ldi	r21, (1<<OCF1B) | (1<<OCF1A) | (1<<TOV1)
    1904:	50 93 85 00 	sts	0x0085, r21
	AOUT	TIFR1, r21			; clear flags
	ldi	r21, 0xff
    1908:	50 93 84 00 	sts	0x0084, r21
	sts	TCNT1H, r21		; TCNT1 = -1
    190c:	55 e0       	ldi	r21, 0x05	; 5
	sts	TCNT1L, r21
    190e:	50 93 7b 00 	sts	0x007B, r21
	ldi	r21, (1<<ADTS2) | (1<<ADTS0)	; Start ADC with counter1 compare B
    1912:	57 eb       	ldi	r21, 0xB7	; 183
	sts	ADCSRB, r21
    1914:	50 93 7a 00 	sts	0x007A, r21
	ldi	r21, (1<<ADEN) | (1<<ADATE) | (1<<ADIF) | AUTO_CLOCK_DIV;	/* enable ADC */
    1918:	51 e0       	ldi	r21, 0x01	; 1
	sts	ADCSRA, r21;		/* ADCSRA = (1<<ADEN) | (1<<ADSC) | (1<<ADIF) | AUTO_CLOCK_DIV; // enable ADC */
    191a:	50 93 81 00 	sts	0x0081, r21

	ldi	r21, (1<<CS10) 
    191e:	5f e4       	ldi	r21, 0x4F	; 79

00001920 <wlop1>:
	sts	TCCR1B, r21		; Start Counter 1 with full speed
    1920:	5a 95       	dec	r21
    1922:	f1 f7       	brne	.-4      	; 0x1920 <wlop1>
 #define PIN_HIGH_DELAY (OUT_DELAY - 5 + (F_CPU_HZ/4000000))
 #define WAST_TICS ((TICS_PER_ADC_CLOCK*2) - HALF_PULSE_LENGTH_TICS - PIN_HIGH_DELAY)
#endif
; additional delay to the start of current pulse
	ldi	r21, (WAST_TICS/3)
    1924:	00 00       	nop
wlop1:
	dec	r21
    1926:	00 00       	nop
	brne	wlop1
    1928:	45 b9       	out	0x05, r20	; 5
#if (WAST_TICS % 3) > 1
	nop
    192a:	44 b9       	out	0x04, r20	; 4
#endif
#if (WAST_TICS % 3) > 0
	nop
    192c:	5b e0       	ldi	r21, 0x0B	; 11

0000192e <plop2>:
#endif
	AOUT	R_PORT, r20;		/* R_PORT = HiPinR_L (r12);	// switch R-Port to VCC */
    192e:	5a 95       	dec	r21
	AOUT	R_DDR, r20;		/* R_DDR = HiPinR_L (r12);	// switch R_L port for HighPin to output (VCC) */
    1930:	f1 f7       	brne	.-4      	; 0x192e <plop2>
;	AOUT	R_PORT, LoPinR_L;	/* R_PORT = LoPinR_L (r7) ; */
;	AOUT	R_DDR, LoPinR_L;	/* R_DDR = LoPinR_L (r7) ;	// switch LowPin with 680 Ohm to VCC */
#define FULL_PULSE_LENGTH_TICS ((HALF_PULSE_LENGTH_TICS*2)+(MHZ_CPU/14))
	ldi	r21, (FULL_PULSE_LENGTH_TICS/3)
    1932:	14 b8       	out	0x04, r1	; 4
plop2:
	dec	r21
    1934:	15 b8       	out	0x05, r1	; 5
	brne	plop2
    1936:	10 92 81 00 	sts	0x0081, r1

0000193a <wadfin2>:
#endif
#if (FULL_PULSE_LENGTH_TICS % 3) > 0
	nop
#endif
	AOUT	R_DDR, zero_reg;	/* R_DDR = 0; // switch current off,  SH is 1.5 ADC clock behind real start */
	AOUT	R_PORT, zero_reg;	/* R_PORT = 0; */
    193a:	80 91 7a 00 	lds	r24, 0x007A
#ifndef WITHOUT_CNT_START
	sts	TCCR1B, r1		; stop counter1
    193e:	84 ff       	sbrs	r24, 4
#endif

wadfin2:
	lds	r24, ADCSRA;		/* while (ADCSRA&(1<<ADSC));	// wait for conversion finished */
    1940:	fc cf       	rjmp	.-8      	; 0x193a <wadfin2>
    1942:	80 93 7a 00 	sts	0x007A, r24
	sbrs	r24, ADIF;
	rjmp	wadfin2;
    1946:	08 95       	ret

00001948 <lcd_set_cursor>:
/* ************************************************************************************** */
/* Set the character position to x,y , where x specifies the character number in a text line. */
/* The y position is the page address (8 line units).                                     */
/* For most controllers the y position must be increased by (Height + 7) / 8 for the next text line */
void lcd_set_cursor(uint8_t y, uint8_t x) {
    _lcd_column = x;
    1948:	60 93 35 01 	sts	0x0135, r22
#if (LCD_GRAPHIC_TYPE != 0)
   //move to the specified position (depends on used font)
   _page = y;
    194c:	80 93 03 01 	sts	0x0103, r24
   lcd_text_line = y / PAGES_PER_LINE;
    1950:	86 95       	lsr	r24
    1952:	80 93 a5 01 	sts	0x01A5, r24
    // The pixel memory is greater as the display window.
    // For example the SPL501 controller has 132x65 dot matrix memory
    // LCD_ST7565_H_OFFSET specifies the offset of the 128 pixel of the display window.
   _xpos = (x * FONT_WIDTH);
    1956:	87 e0       	ldi	r24, 0x07	; 7
    1958:	68 9f       	mul	r22, r24
    195a:	60 2d       	mov	r22, r0
    195c:	11 24       	eor	r1, r1
    195e:	60 93 04 01 	sts	0x0104, r22
    1962:	08 95       	ret

00001964 <lcd_save_position>:
}

#if FLASHEND > 0x1fff
/* ************************************************************************************** */
uint8_t lcd_save_position(void) {
 last_text_column = _lcd_column;
    1964:	80 91 35 01 	lds	r24, 0x0135
    1968:	80 93 01 01 	sts	0x0101, r24
 last_text_line = lcd_text_line;
    196c:	80 91 a5 01 	lds	r24, 0x01A5
    1970:	80 93 02 01 	sts	0x0102, r24
 return(last_text_line);
}
    1974:	08 95       	ret

00001976 <lcd_restore_position>:
/* ************************************************************************************** */
void lcd_restore_position(void) {
 lcd_set_cursor((uint8_t)last_text_line * PAGES_PER_LINE, (uint8_t)(last_text_column));
    1976:	80 91 02 01 	lds	r24, 0x0102
    197a:	60 91 01 01 	lds	r22, 0x0101
    197e:	88 0f       	add	r24, r24
    1980:	e3 cf       	rjmp	.-58     	; 0x1948 <lcd_set_cursor>
    1982:	08 95       	ret

00001984 <lcd_command>:
    1984:	68 2f       	mov	r22, r24
} /* end lcd_data() */
 
// sends a command to the LCD
 
void lcd_command(unsigned char temp1) {
	_lcd_hw_write(0x00,temp1);
    1986:	80 e0       	ldi	r24, 0x00	; 0
    1988:	6b cb       	rjmp	.-2346   	; 0x1060 <_lcd_hw_write>
    198a:	08 95       	ret

0000198c <lcd_powersave>:
    198c:	8e ea       	ldi	r24, 0xAE	; 174
#endif
}	/* end lcd_init */
 
#if ((LCD_ST_TYPE == 7565) || (LCD_ST_TYPE == 1306) || (LCR_ST_TYPE == 1327) || (LCD_ST_TYPE == 7108))
void lcd_powersave(void) {
     lcd_command(CMD_DISPLAY_OFF);
    198e:	fa df       	rcall	.-12     	; 0x1984 <lcd_command>
    1990:	85 ea       	ldi	r24, 0xA5	; 165
 #if ((LCD_ST_TYPE == 7565) || (LCD_ST_TYPE == 1306))
     lcd_command(CMD_SET_ALLPTS_ON); // Enter power save mode
    1992:	f8 cf       	rjmp	.-16     	; 0x1984 <lcd_command>
    1994:	08 95       	ret

00001996 <uart_newline>:
    1996:	8d e0       	ldi	r24, 0x0D	; 13
    1998:	95 dc       	rcall	.-1750   	; 0x12c4 <uart_putc>
}  /* end lcd_clear() */


#ifdef WITH_UART
void uart_newline(void) {
   uart_putc('\r');
    199a:	8a e0       	ldi	r24, 0x0A	; 10
   uart_putc('\n');
    199c:	93 cc       	rjmp	.-1754   	; 0x12c4 <uart_putc>
    199e:	08 95       	ret

000019a0 <lcd_line1>:
    19a0:	10 92 a5 01 	sts	0x01A5, r1
/* ******************************************************************************* */
//move to the beginning of the 1. row
void lcd_line1() {
   lcd_text_line = 0;
#if (LCD_GRAPHIC_TYPE != 0)
   lcd_set_cursor(0 * PAGES_PER_LINE,0);
    19a4:	60 e0       	ldi	r22, 0x00	; 0
    19a6:	80 e0       	ldi	r24, 0x00	; 0
    19a8:	cf df       	rcall	.-98     	; 0x1948 <lcd_set_cursor>
    19aa:	f5 cf       	rjmp	.-22     	; 0x1996 <uart_newline>
#else
   lcd_command((uint8_t)(CMD_SetDDRAMAddress + LCD_Row1));
   _lcd_column = 0;
#endif
#ifdef WITH_UART
   uart_newline();		// start of new measurement
    19ac:	08 95       	ret

000019ae <lcd_clear>:
    19ae:	cf 93       	push	r28
    19b0:	df 93       	push	r29
   
#if ((LCD_ST_TYPE == 7565) || (LCD_ST_TYPE == 1306))
   unsigned char p;
   unsigned char count;

   for (p = 0; p < (SCREEN_HEIGHT / 8); p++) {
    19b2:	c0 e0       	ldi	r28, 0x00	; 0
     lcd_command(CMD_SET_COLUMN_UPPER);		// set horizontal position to 0
    19b4:	80 e1       	ldi	r24, 0x10	; 16
    19b6:	e6 df       	rcall	.-52     	; 0x1984 <lcd_command>
    19b8:	80 e0       	ldi	r24, 0x00	; 0
     lcd_command(CMD_SET_COLUMN_LOWER);
    19ba:	e4 df       	rcall	.-56     	; 0x1984 <lcd_command>
    19bc:	8c 2f       	mov	r24, r28
    19be:	80 6b       	ori	r24, 0xB0	; 176
     lcd_command(CMD_SET_PAGE | (0x0f & p));	// set page 0 to 7
    19c0:	e1 df       	rcall	.-62     	; 0x1984 <lcd_command>
    19c2:	d4 e8       	ldi	r29, 0x84	; 132
    19c4:	60 e0       	ldi	r22, 0x00	; 0
    19c6:	81 e0       	ldi	r24, 0x01	; 1
    19c8:	4b db       	rcall	.-2410   	; 0x1060 <_lcd_hw_write>
     for (count = 0; count < 132; count++)
       lcd_write_data(0);
    19ca:	d1 50       	subi	r29, 0x01	; 1
    19cc:	d9 f7       	brne	.-10     	; 0x19c4 <lcd_clear+0x16>
    19ce:	cf 5f       	subi	r28, 0xFF	; 255
    19d0:	c8 30       	cpi	r28, 0x08	; 8
    19d2:	81 f7       	brne	.-32     	; 0x19b4 <lcd_clear+0x6>

   for (p = 0; p < (SCREEN_HEIGHT / 8); p++) {
     lcd_command(CMD_SET_COLUMN_UPPER);		// set horizontal position to 0
     lcd_command(CMD_SET_COLUMN_LOWER);
     lcd_command(CMD_SET_PAGE | (0x0f & p));	// set page 0 to 7
     for (count = 0; count < 132; count++)
    19d4:	e5 df       	rcall	.-54     	; 0x19a0 <lcd_line1>
   
#if ((LCD_ST_TYPE == 7565) || (LCD_ST_TYPE == 1306))
   unsigned char p;
   unsigned char count;

   for (p = 0; p < (SCREEN_HEIGHT / 8); p++) {
    19d6:	df 91       	pop	r29
    19d8:	cf 91       	pop	r28
    19da:	08 95       	ret

000019dc <lcd_init>:
     }
#else
   lcd_command(CMD_CLEAR_DISPLAY);
   wait_about10ms();
#endif
   lcd_line1();			// set cursor to Line1 Column 1, (only for OLED-Display)
    19dc:	58 98       	cbi	0x0b, 0	; 11
    19de:	5a 98       	cbi	0x0b, 2	; 11
}  /* end lcd_clear() */
    19e0:	5b 98       	cbi	0x0b, 3	; 11
    19e2:	5d 98       	cbi	0x0b, 5	; 11
    19e4:	50 9a       	sbi	0x0a, 0	; 10
   HW_LCD_EN_PORT  &= ~_BV(HW_LCD_EN_PIN);
   HW_LCD_B0_PORT  &= ~_BV(HW_LCD_B0_PIN);
   HW_LCD_CE_PORT  &= ~_BV(HW_LCD_CE_PIN);  // LCD CE to low

   HW_LCD_RES_DDR  |= _BV(HW_LCD_RES_PIN); // LCD RESET is Output
   HW_LCD_EN_DDR   |= _BV(HW_LCD_EN_PIN);  // LCD SCL is Output
    19e6:	52 9a       	sbi	0x0a, 2	; 10
   HW_LCD_B0_DDR   |= _BV(HW_LCD_B0_PIN);  // LCD SI is Output
    19e8:	53 9a       	sbi	0x0a, 3	; 10
   HW_LCD_CE_DDR   |= _BV(HW_LCD_CE_PIN);  // LCD CE is Output
    19ea:	55 9a       	sbi	0x0a, 5	; 10
   wait10us();
    19ec:	9c dc       	rcall	.-1736   	; 0x1326 <wait10us>
    19ee:	5d 9a       	sbi	0x0b, 5	; 11
    MCUCR = (0<<PUD);             // enable Pull-Up Resistors mega168 family
  #endif
   HW_LCD_CE_DDR   &= ~_BV(HW_LCD_CE_PIN);  // LCD CS is Input
   HW_LCD_CE_PORT  |= _BV(HW_LCD_CE_PIN);   // enable Pullup  = 1
 #else
   HW_LCD_CE_PORT  |= _BV(HW_LCD_CE_PIN);   // set CS to 1, unselected
    19f0:	55 9a       	sbi	0x0a, 5	; 10
   HW_LCD_CE_DDR   |= _BV(HW_LCD_CE_PIN);  // LCD CS is Output
    19f2:	59 98       	cbi	0x0b, 1	; 11
   HW_LCD_RS_PORT |= _BV(HW_LCD_RS_PIN);	// enable PullUp RS (SCE)  
  #else
   HW_LCD_RS_PORT |= _BV(HW_LCD_RS_PIN);	// switch RS (SCE) to VCC
  #endif  /* LCD_SPI_OPEN_COL */
 #else
   HW_LCD_RS_PORT  &= ~_BV(HW_LCD_RS_PIN);
    19f4:	51 9a       	sbi	0x0a, 1	; 10
   HW_LCD_RS_DDR   |= _BV(HW_LCD_RS_PIN);  // LCD RS (SCE) is Output
    19f6:	84 e1       	ldi	r24, 0x14	; 20
 #endif

   wait_about100ms(); // Set LCD for 100 ms into RESET
    19f8:	9e dc       	rcall	.-1732   	; 0x1336 <sleep_5ms>
    19fa:	58 9a       	sbi	0x0b, 0	; 11
    19fc:	84 e1       	ldi	r24, 0x14	; 20
    MCUCR = (0<<PUD);             // enable Pull-Up Resistors mega168 family
  #endif
   HW_LCD_RES_DDR &= ~_BV(HW_LCD_RES_PIN);	// switch RES to input
   HW_LCD_RES_PORT |= _BV(HW_LCD_RES_PIN);	// enable PullUp RES 
 #else
   HW_LCD_RES_PORT |= _BV(HW_LCD_RES_PIN);	// switch RES to VCC
    19fe:	9b dc       	rcall	.-1738   	; 0x1336 <sleep_5ms>
 #endif  /* LCD_SPI_OPEN_COL */
   wait_about100ms();  // Wait for 100 ms after RESET
    1a00:	8e ea       	ldi	r24, 0xAE	; 174
    1a02:	c0 df       	rcall	.-128    	; 0x1984 <lcd_command>
    1a04:	82 ee       	ldi	r24, 0xE2	; 226
   lcd_command(0x22 ); // set to 4-bit mode
 #endif
#endif

#if ((LCD_ST_TYPE == 7565) || (LCD_ST_TYPE == 1306))
   lcd_command(CMD_DISPLAY_OFF);		// display off
    1a06:	be df       	rcall	.-132    	; 0x1984 <lcd_command>
    1a08:	82 ea       	ldi	r24, 0xA2	; 162
    1a0a:	bc df       	rcall	.-136    	; 0x1984 <lcd_command>
   lcd_command(CMD_INTERNAL_RESET);		// 0xe2
    1a0c:	80 ea       	ldi	r24, 0xA0	; 160
    1a0e:	ba df       	rcall	.-140    	; 0x1984 <lcd_command>
    1a10:	80 ec       	ldi	r24, 0xC0	; 192
   lcd_command(CMD_SET_BIAS_9);			// 0xa3
    1a12:	b8 df       	rcall	.-144    	; 0x1984 <lcd_command>
    1a14:	8f e2       	ldi	r24, 0x2F	; 47
    1a16:	b6 df       	rcall	.-148    	; 0x1984 <lcd_command>
   lcd_command(CMD_SET_ADC_NORMAL);		// 0xa0
    1a18:	84 e2       	ldi	r24, 0x24	; 36
    1a1a:	b4 df       	rcall	.-152    	; 0x1984 <lcd_command>
    1a1c:	81 e8       	ldi	r24, 0x81	; 129
   lcd_command(CMD_SET_COM_NORMAL);		// 0xc0
    1a1e:	b2 df       	rcall	.-156    	; 0x1984 <lcd_command>
    1a20:	88 e4       	ldi	r24, 0x48	; 72
    1a22:	93 e0       	ldi	r25, 0x03	; 3

 #if (LCD_ST_TYPE == 7565)
   //Booster on, Voltage regulator/follower circuit on
   lcd_command(CMD_SET_POWER_CONTROL | 7);	// 0x28 BOOSTER ON | V_REGULATOR ON | V_FOLLOWER ON
    1a24:	0e 94 b0 3e 	call	0x7d60	; 0x7d60 <eeprom_read_byte>
    1a28:	8f 73       	andi	r24, 0x3F	; 63
   lcd_command(CMD_SET_RESISTOR_RATIO | (7 & LCD_ST7565_RESISTOR_RATIO));	// 0x20
    1a2a:	ac df       	rcall	.-168    	; 0x1984 <lcd_command>
    1a2c:	80 e4       	ldi	r24, 0x40	; 64
    1a2e:	aa df       	rcall	.-172    	; 0x1984 <lcd_command>

   lcd_command(CMD_SET_VOLUME_FIRST);		// 0x81 set  volume command
    1a30:	84 ea       	ldi	r24, 0xA4	; 164
    1a32:	a8 df       	rcall	.-176    	; 0x1984 <lcd_command>
    1a34:	86 ea       	ldi	r24, 0xA6	; 166
   lcd_command(eeprom_read_byte(&EE_Volume_Value) & 0x3f);	//set volume value of EEprom
    1a36:	a6 df       	rcall	.-180    	; 0x1984 <lcd_command>
    1a38:	ba df       	rcall	.-140    	; 0x19ae <lcd_clear>
    1a3a:	8f ea       	ldi	r24, 0xAF	; 175
    1a3c:	a3 df       	rcall	.-186    	; 0x1984 <lcd_command>
    1a3e:	60 e0       	ldi	r22, 0x00	; 0
    1a40:	80 e0       	ldi	r24, 0x00	; 0
    1a42:	82 cf       	rjmp	.-252    	; 0x1948 <lcd_set_cursor>

//   lcd_command(CMD_SET_Vcomh_DESELECT_LEVEL);		// set Vcomh deselect level (0xdb), 0x20 is reset value
//   lcd_command(0x40);
//##   lcd_command(CMD_RMW);			// 0xe0 , set Read Modify Write mode
 #endif
   lcd_command(CMD_SET_DISP_START_LINE | (LCD_ST7565_Y_START & 0x3f));	// 0x40
    1a44:	08 95       	ret

00001a46 <lcd_line2>:
    1a46:	81 e0       	ldi	r24, 0x01	; 1
    1a48:	80 93 a5 01 	sts	0x01A5, r24
   lcd_command(CMD_SET_ALLPTS_NORMAL);		// 0xa4
    1a4c:	60 e0       	ldi	r22, 0x00	; 0
    1a4e:	82 e0       	ldi	r24, 0x02	; 2
   lcd_command(CMD_SET_DISP_NORMAL);		// 0xa6 not reverse
    1a50:	7b df       	rcall	.-266    	; 0x1948 <lcd_set_cursor>
    1a52:	a1 cf       	rjmp	.-190    	; 0x1996 <uart_newline>
    1a54:	08 95       	ret

00001a56 <lcd_line3>:

   lcd_clear();
    1a56:	82 e0       	ldi	r24, 0x02	; 2
    1a58:	80 93 a5 01 	sts	0x01A5, r24

   lcd_command(CMD_DISPLAY_ON);			// 0xaf
    1a5c:	60 e0       	ldi	r22, 0x00	; 0
    1a5e:	84 e0       	ldi	r24, 0x04	; 4

   lcd_set_cursor(0,0);
    1a60:	73 df       	rcall	.-282    	; 0x1948 <lcd_set_cursor>
    1a62:	99 cf       	rjmp	.-206    	; 0x1996 <uart_newline>
    1a64:	08 95       	ret

00001a66 <lcd_line4>:
    1a66:	83 e0       	ldi	r24, 0x03	; 3
    1a68:	80 93 a5 01 	sts	0x01A5, r24
/* ******************************************************************************* */
//move to the beginning of the 4. row
void lcd_line4() {
   lcd_text_line = 3;
#if (LCD_GRAPHIC_TYPE != 0)
   lcd_set_cursor(3 * PAGES_PER_LINE,0);
    1a6c:	60 e0       	ldi	r22, 0x00	; 0
    1a6e:	86 e0       	ldi	r24, 0x06	; 6
    1a70:	6b df       	rcall	.-298    	; 0x1948 <lcd_set_cursor>
    1a72:	91 cf       	rjmp	.-222    	; 0x1996 <uart_newline>
#else
   lcd_command((uint8_t)(CMD_SetDDRAMAddress + LCD_Row4));
   _lcd_column = 0;
#endif
#ifdef WITH_UART
   uart_newline();		// start of new line
    1a74:	08 95       	ret

00001a76 <reverse_byte>:
    1a76:	58 2f       	mov	r21, r24
    1a78:	28 e0       	ldi	r18, 0x08	; 8
#endif

/* ******************************************************************************* */
#if (LCD_GRAPHIC_TYPE != 0)
unsigned char reverse_byte(unsigned char b)
{
    1a7a:	30 e0       	ldi	r19, 0x00	; 0
   unsigned char result = 0;
   unsigned char bitin;
   unsigned char bitout;

   for (bitin = 1, bitout = 0x80; bitin != 0; bitin <<= 1, bitout >>= 1) 
    1a7c:	90 e8       	ldi	r25, 0x80	; 128
    1a7e:	41 e0       	ldi	r20, 0x01	; 1

/* ******************************************************************************* */
#if (LCD_GRAPHIC_TYPE != 0)
unsigned char reverse_byte(unsigned char b)
{
   unsigned char result = 0;
    1a80:	80 e0       	ldi	r24, 0x00	; 0
   unsigned char bitin;
   unsigned char bitout;

   for (bitin = 1, bitout = 0x80; bitin != 0; bitin <<= 1, bitout >>= 1) 
      if (b & bitin)
    1a82:	64 2f       	mov	r22, r20
    1a84:	65 23       	and	r22, r21
    1a86:	09 f0       	breq	.+2      	; 0x1a8a <reverse_byte+0x14>
         result |= bitout;
    1a88:	89 2b       	or	r24, r25
{
   unsigned char result = 0;
   unsigned char bitin;
   unsigned char bitout;

   for (bitin = 1, bitout = 0x80; bitin != 0; bitin <<= 1, bitout >>= 1) 
    1a8a:	44 0f       	add	r20, r20
    1a8c:	96 95       	lsr	r25
    1a8e:	21 50       	subi	r18, 0x01	; 1
    1a90:	31 09       	sbc	r19, r1
    1a92:	b9 f7       	brne	.-18     	; 0x1a82 <reverse_byte+0xc>
      if (b & bitin)
         result |= bitout;

   return result;
}
    1a94:	08 95       	ret

00001a96 <lcd_set_pixels>:
/* width and height specifies the dimension of the pixel field.                    */
/* The different controller types uses different ways of loading the pixels.       */
/* For the ST7920 controller the changes are only made in a memory field (RAM).    */
/* ******************************************************************************* */
void lcd_set_pixels(const unsigned char *pdata, unsigned char x, unsigned char y,
unsigned char options, unsigned char width, unsigned char height) {
    1a96:	a0 e0       	ldi	r26, 0x00	; 0
    1a98:	b0 e0       	ldi	r27, 0x00	; 0
    1a9a:	e1 e5       	ldi	r30, 0x51	; 81
    1a9c:	fd e0       	ldi	r31, 0x0D	; 13
    1a9e:	0c 94 21 3e 	jmp	0x7c42	; 0x7c42 <__prologue_saves__+0x8>
    1aa2:	6c 01       	movw	r12, r24
/* ------------------------------------------------------------------------------- */
#if ((LCD_ST_TYPE == 7565) || (LCD_ST_TYPE == 1306) || (LCD_ST_TYPE == 7108) || (LCD_ST_TYPE == 8812) || (LCD_ST_TYPE == 8814))
   if (((x+width) > SCREEN_WIDTH) || ((y+height) > SCREEN_HEIGHT))
    1aa4:	10 e0       	ldi	r17, 0x00	; 0
    1aa6:	c8 01       	movw	r24, r16
    1aa8:	86 0f       	add	r24, r22
    1aaa:	91 1d       	adc	r25, r1
    1aac:	81 38       	cpi	r24, 0x81	; 129
    1aae:	91 05       	cpc	r25, r1
    1ab0:	0c f0       	brlt	.+2      	; 0x1ab4 <lcd_set_pixels+0x1e>
    1ab2:	68 c0       	rjmp	.+208    	; 0x1b84 <lcd_set_pixels+0xee>
    1ab4:	f1 2c       	mov	r15, r1
    1ab6:	e4 0e       	add	r14, r20
    1ab8:	f1 1c       	adc	r15, r1
    1aba:	81 e4       	ldi	r24, 0x41	; 65
    1abc:	e8 16       	cp	r14, r24
    1abe:	f1 04       	cpc	r15, r1
    1ac0:	0c f0       	brlt	.+2      	; 0x1ac4 <lcd_set_pixels+0x2e>
    1ac2:	60 c0       	rjmp	.+192    	; 0x1b84 <lcd_set_pixels+0xee>
   unsigned char offset;
   unsigned char page;
   unsigned char pagemax;
   unsigned char xx;

   page = y >> 3;		// page of screen has 8 pixel lines each
    1ac4:	d4 2f       	mov	r29, r20
    1ac6:	d6 95       	lsr	r29
    1ac8:	d6 95       	lsr	r29
    1aca:	d6 95       	lsr	r29
   pagemax = (y + height - 1) >> 3;
    1acc:	81 e0       	ldi	r24, 0x01	; 1
    1ace:	e8 1a       	sub	r14, r24
    1ad0:	f1 08       	sbc	r15, r1
    1ad2:	83 e0       	ldi	r24, 0x03	; 3
    1ad4:	f5 94       	asr	r15
    1ad6:	e7 94       	ror	r14
    1ad8:	8a 95       	dec	r24
    1ada:	e1 f7       	brne	.-8      	; 0x1ad4 <lcd_set_pixels+0x3e>

   if ((options & OPT_VREVERSE) == OPT_VREVERSE)
    1adc:	82 2f       	mov	r24, r18
    1ade:	82 70       	andi	r24, 0x02	; 2
    1ae0:	a8 2e       	mov	r10, r24
    1ae2:	21 ff       	sbrs	r18, 1
    1ae4:	0d c0       	rjmp	.+26     	; 0x1b00 <lcd_set_pixels+0x6a>
      pdata += (pagemax - page) * width;
    1ae6:	c7 01       	movw	r24, r14
    1ae8:	99 27       	eor	r25, r25
    1aea:	8d 1b       	sub	r24, r29
    1aec:	91 09       	sbc	r25, r1
    1aee:	80 9f       	mul	r24, r16
    1af0:	a0 01       	movw	r20, r0
    1af2:	81 9f       	mul	r24, r17
    1af4:	50 0d       	add	r21, r0
    1af6:	90 9f       	mul	r25, r16
    1af8:	50 0d       	add	r21, r0
    1afa:	11 24       	eor	r1, r1
    1afc:	c4 0e       	add	r12, r20
    1afe:	d5 1e       	adc	r13, r21
    1b00:	ce 2d       	mov	r28, r14
    1b02:	c8 30       	cpi	r28, 0x08	; 8
    1b04:	08 f0       	brcs	.+2      	; 0x1b08 <lcd_set_pixels+0x72>
    1b06:	c7 e0       	ldi	r28, 0x07	; 7
      }
      lcd_command(CMD_SET_COLUMN_ADDR | (0x3f & xx ));
  #elif (LCD_ST_TYPE == 8812)
      lcd_command(CMD_SET_COLUMN | (0x7f & xx));
  #else
      lcd_command(CMD_SET_COLUMN_UPPER | (0x0f & (xx >> 4)));
    1b08:	86 2f       	mov	r24, r22
    1b0a:	82 95       	swap	r24
    1b0c:	8f 70       	andi	r24, 0x0F	; 15
    1b0e:	80 61       	ori	r24, 0x10	; 16
    1b10:	68 2e       	mov	r6, r24
      lcd_command(CMD_SET_COLUMN_LOWER | (0x0f & xx));
    1b12:	6f 70       	andi	r22, 0x0F	; 15
    1b14:	b6 2e       	mov	r11, r22
         }
  #endif
  #if (LCD_ST7565_H_FLIP == 1)
         if (!((options & OPT_HREVERSE) == OPT_HREVERSE))
  #else
         if ((options & OPT_HREVERSE) == OPT_HREVERSE)
    1b16:	21 70       	andi	r18, 0x01	; 1
    1b18:	72 2e       	mov	r7, r18
    1b1a:	78 01       	movw	r14, r16
    1b1c:	81 e0       	ldi	r24, 0x01	; 1
    1b1e:	e8 1a       	sub	r14, r24
    1b20:	f1 08       	sbc	r15, r1
   if ((options & OPT_VREVERSE) == OPT_VREVERSE)
      pdata += (pagemax - page) * width;

   if (pagemax >= (SCREEN_HEIGHT >> 3))
      pagemax = ((SCREEN_HEIGHT - 1) >> 3);	// limit to last page of screen
   for (; page <= pagemax; page++)
    1b22:	cd 17       	cp	r28, r29
    1b24:	50 f1       	brcs	.+84     	; 0x1b7a <lcd_set_pixels+0xe4>
      _lcd_hw_select(3);		// select both controllers
  #endif
  #if (LCD_ST7565_V_FLIP == 1)
      lcd_command(CMD_SET_PAGE | (((SCREEN_HEIGHT / 8) - 1) - page));
  #else
      lcd_command(CMD_SET_PAGE | page);
    1b26:	8d 2f       	mov	r24, r29
    1b28:	80 6b       	ori	r24, 0xB0	; 176
    1b2a:	2c df       	rcall	.-424    	; 0x1984 <lcd_command>
    1b2c:	86 2d       	mov	r24, r6
      }
      lcd_command(CMD_SET_COLUMN_ADDR | (0x3f & xx ));
  #elif (LCD_ST_TYPE == 8812)
      lcd_command(CMD_SET_COLUMN | (0x7f & xx));
  #else
      lcd_command(CMD_SET_COLUMN_UPPER | (0x0f & (xx >> 4)));
    1b2e:	2a df       	rcall	.-428    	; 0x1984 <lcd_command>
    1b30:	8b 2d       	mov	r24, r11
    1b32:	28 df       	rcall	.-432    	; 0x1984 <lcd_command>
      lcd_command(CMD_SET_COLUMN_LOWER | (0x0f & xx));
    1b34:	81 2c       	mov	r8, r1
    1b36:	91 2c       	mov	r9, r1
    1b38:	80 16       	cp	r8, r16
  #endif
      for (offset = 0; offset < width; offset++)
    1b3a:	91 06       	cpc	r9, r17
    1b3c:	a9 f0       	breq	.+42     	; 0x1b68 <lcd_set_pixels+0xd2>
    1b3e:	77 20       	and	r7, r7
    1b40:	31 f0       	breq	.+12     	; 0x1b4e <lcd_set_pixels+0xb8>
    1b42:	f7 01       	movw	r30, r14
         }
  #endif
  #if (LCD_ST7565_H_FLIP == 1)
         if (!((options & OPT_HREVERSE) == OPT_HREVERSE))
  #else
         if ((options & OPT_HREVERSE) == OPT_HREVERSE)
    1b44:	e8 19       	sub	r30, r8
    1b46:	f9 09       	sbc	r31, r9
    1b48:	ec 0d       	add	r30, r12
    1b4a:	fd 1d       	adc	r31, r13
    1b4c:	03 c0       	rjmp	.+6      	; 0x1b54 <lcd_set_pixels+0xbe>
    1b4e:	f6 01       	movw	r30, r12
    1b50:	e8 0d       	add	r30, r8
    1b52:	f9 1d       	adc	r31, r9
    1b54:	84 91       	lpm	r24, Z
    1b56:	a1 10       	cpse	r10, r1
    1b58:	8e df       	rcall	.-228    	; 0x1a76 <reverse_byte>
  #endif
            { byte = pgm_read_byte(pdata + width - offset - 1);
         } else {
            byte = pgm_read_byte(pdata + offset);
    1b5a:	68 2f       	mov	r22, r24
   #endif
  #else
   #if (LCD_ST7565_V_FLIP == 1)
         if (!((options & OPT_VREVERSE) == OPT_VREVERSE))
   #else
         if ((options & OPT_VREVERSE) == OPT_VREVERSE)
    1b5c:	81 e0       	ldi	r24, 0x01	; 1
   #endif
  #endif
            { byte = reverse_byte(byte);
    1b5e:	80 da       	rcall	.-2816   	; 0x1060 <_lcd_hw_write>
    1b60:	8f ef       	ldi	r24, 0xFF	; 255
         }
//         if ((options & OPT_CINVERSE) == OPT_CINVERSE) {
//            byte = ~byte;
//         }
         lcd_write_data(byte);
    1b62:	88 1a       	sub	r8, r24
    1b64:	98 0a       	sbc	r9, r24
    1b66:	e8 cf       	rjmp	.-48     	; 0x1b38 <lcd_set_pixels+0xa2>
    1b68:	aa 20       	and	r10, r10
    1b6a:	19 f0       	breq	.+6      	; 0x1b72 <lcd_set_pixels+0xdc>
    1b6c:	c0 1a       	sub	r12, r16
    1b6e:	d1 0a       	sbc	r13, r17
    1b70:	02 c0       	rjmp	.+4      	; 0x1b76 <lcd_set_pixels+0xe0>
         xx++;
      } /* end for offset */
      if ((options & OPT_VREVERSE) == OPT_VREVERSE) {
    1b72:	c0 0e       	add	r12, r16
    1b74:	d1 1e       	adc	r13, r17
         pdata -= width;
    1b76:	df 5f       	subi	r29, 0xFF	; 255
    1b78:	d4 cf       	rjmp	.-88     	; 0x1b22 <lcd_set_pixels+0x8c>
    1b7a:	80 91 03 01 	lds	r24, 0x0103
      } else {
         pdata += width;
    1b7e:	8f 70       	andi	r24, 0x0F	; 15
   if ((options & OPT_VREVERSE) == OPT_VREVERSE)
      pdata += (pagemax - page) * width;

   if (pagemax >= (SCREEN_HEIGHT >> 3))
      pagemax = ((SCREEN_HEIGHT - 1) >> 3);	// limit to last page of screen
   for (; page <= pagemax; page++)
    1b80:	80 6b       	ori	r24, 0xB0	; 176
    1b82:	00 df       	rcall	.-512    	; 0x1984 <lcd_command>
   } /* end for page */
   // Restore previous cursor position
  #if (LCD_ST7565_V_FLIP == 1)
   lcd_command(CMD_SET_PAGE | (((SCREEN_HEIGHT / 8) - 1) - _page));
  #else
   lcd_command(CMD_SET_PAGE | (0x0f & _page));
    1b84:	cd b7       	in	r28, 0x3d	; 61
    1b86:	de b7       	in	r29, 0x3e	; 62
    1b88:	ee e0       	ldi	r30, 0x0E	; 14
    1b8a:	0c 94 3d 3e 	jmp	0x7c7a	; 0x7c7a <__epilogue_restores__+0x8>

00001b8e <lcd_big_icon>:
    1b8e:	ef 92       	push	r14
         pdata += width;
      }
   } /* end for page */
/* ------------------------------------------------------------------------------- */
#endif /* (LCD_ST_TYPE == 7565 || 1306 || 7108 || 7920 || 8812 || 8814 ... */
}
    1b90:	0f 93       	push	r16
    1b92:	48 2f       	mov	r20, r24
    1b94:	28 2f       	mov	r18, r24
    1b96:	2f 73       	andi	r18, 0x3F	; 63
    1b98:	80 e6       	ldi	r24, 0x60	; 96
  #define HALF_SCREEN_HEIGHT (SCREEN_HEIGHT / 2)
 #endif
 #ifdef LCD_ICON_COLOR
 lcd_fg_color.w = LCD_ICON_COLOR;
 #endif
 pfont = (uint8_t *) bigfont[temp1 & 0x3f];	// first byte of character data
    1b9a:	28 9f       	mul	r18, r24
    1b9c:	90 01       	movw	r18, r0
    1b9e:	11 24       	eor	r1, r1
    1ba0:	c9 01       	movw	r24, r18
    1ba2:	89 59       	subi	r24, 0x99	; 153
    1ba4:	9b 4f       	sbci	r25, 0xFB	; 251
 icon_xx =  TP_WIDTH;		// left side 
 if ((temp1 & 0x40) == 0) icon_xx += (SCREEN_WIDTH / (ONE_B/4)); // right side
    1ba6:	46 ff       	sbrs	r20, 6
    1ba8:	02 c0       	rjmp	.+4      	; 0x1bae <lcd_big_icon+0x20>
 #endif
 #ifdef LCD_ICON_COLOR
 lcd_fg_color.w = LCD_ICON_COLOR;
 #endif
 pfont = (uint8_t *) bigfont[temp1 & 0x3f];	// first byte of character data
 icon_xx =  TP_WIDTH;		// left side 
    1baa:	28 e0       	ldi	r18, 0x08	; 8
    1bac:	01 c0       	rjmp	.+2      	; 0x1bb0 <lcd_big_icon+0x22>
 if ((temp1 & 0x40) == 0) icon_xx += (SCREEN_WIDTH / (ONE_B/4)); // right side
    1bae:	28 e4       	ldi	r18, 0x48	; 72
    1bb0:	20 93 05 01 	sts	0x0105, r18
 icon_yy = 0;
 if ((temp1 & 0x80) == 0) {
    1bb4:	47 ff       	sbrs	r20, 7
    1bb6:	03 c0       	rjmp	.+6      	; 0x1bbe <lcd_big_icon+0x30>
 lcd_fg_color.w = LCD_ICON_COLOR;
 #endif
 pfont = (uint8_t *) bigfont[temp1 & 0x3f];	// first byte of character data
 icon_xx =  TP_WIDTH;		// left side 
 if ((temp1 & 0x40) == 0) icon_xx += (SCREEN_WIDTH / (ONE_B/4)); // right side
 icon_yy = 0;
    1bb8:	10 92 00 01 	sts	0x0100, r1
    1bbc:	08 c0       	rjmp	.+16     	; 0x1bce <lcd_big_icon+0x40>
 if ((temp1 & 0x80) == 0) {
   icon_yy = HALF_SCREEN_HEIGHT;	// lower half of display
    1bbe:	20 e2       	ldi	r18, 0x20	; 32
    1bc0:	20 93 00 01 	sts	0x0100, r18
   // shift lower icon position to the right
   icon_xx +=  (SCREEN_WIDTH / (ONE_B/4))  - ICON_WIDTH - TP_WIDTH - TP_WIDTH - DIODE_WIDTH;
    1bc4:	20 91 05 01 	lds	r18, 0x0105
    1bc8:	2d 5e       	subi	r18, 0xED	; 237
    1bca:	20 93 05 01 	sts	0x0105, r18
 }

 lcd_set_pixels( pfont, icon_xx, icon_yy, 0, ICON_WIDTH, ICON_HEIGHT);	// write the pixel data of the Icon
    1bce:	20 e2       	ldi	r18, 0x20	; 32
    1bd0:	e2 2e       	mov	r14, r18
    1bd2:	08 e1       	ldi	r16, 0x18	; 24
    1bd4:	20 e0       	ldi	r18, 0x00	; 0
    1bd6:	40 91 00 01 	lds	r20, 0x0100
    1bda:	60 91 05 01 	lds	r22, 0x0105
    1bde:	5b df       	rcall	.-330    	; 0x1a96 <lcd_set_pixels>
    1be0:	0f 91       	pop	r16
} /* end lcd_big_icon() */
    1be2:	ef 90       	pop	r14
    1be4:	08 95       	ret

00001be6 <lcd_update_icon_opt>:
    1be6:	ef 92       	push	r14
// followed by the bitfield data.
void lcd_update_icon(const unsigned char *ubitmap) {
 lcd_update_icon_opt(ubitmap, 0);	// call with no special option
}
/* ******************************************************************************* */
void lcd_update_icon_opt(const unsigned char *ubitmap, unsigned char options) {
    1be8:	0f 93       	push	r16
    1bea:	26 2f       	mov	r18, r22
 const unsigned char *pfont;
 uint8_t xx, yy;
 uint8_t ww, hh;
 pfont =  &ubitmap[4];				// the bitfield data begin at position 4
 xx = icon_xx + pgm_read_byte(&ubitmap[0]);	// first byte = offset x to left (upper) corner of the Icon
    1bec:	fc 01       	movw	r30, r24
    1bee:	64 91       	lpm	r22, Z
 yy = icon_yy + pgm_read_byte(&ubitmap[1]);	// second byte = offset y to (left) upper corner of the Icon
    1bf0:	31 96       	adiw	r30, 0x01	; 1
    1bf2:	44 91       	lpm	r20, Z
 ww =  pgm_read_byte(&ubitmap[2]);		// the width of the bitfield
    1bf4:	31 96       	adiw	r30, 0x01	; 1
    1bf6:	04 91       	lpm	r16, Z
 hh =  pgm_read_byte(&ubitmap[3]);		// the height of the bitfield (must be multiple of 8 for ST7565)
    1bf8:	31 96       	adiw	r30, 0x01	; 1
    1bfa:	e4 90       	lpm	r14, Z
 const unsigned char *pfont;
 uint8_t xx, yy;
 uint8_t ww, hh;
 pfont =  &ubitmap[4];				// the bitfield data begin at position 4
 xx = icon_xx + pgm_read_byte(&ubitmap[0]);	// first byte = offset x to left (upper) corner of the Icon
 yy = icon_yy + pgm_read_byte(&ubitmap[1]);	// second byte = offset y to (left) upper corner of the Icon
    1bfc:	30 91 00 01 	lds	r19, 0x0100
    1c00:	43 0f       	add	r20, r19
void lcd_update_icon_opt(const unsigned char *ubitmap, unsigned char options) {
 const unsigned char *pfont;
 uint8_t xx, yy;
 uint8_t ww, hh;
 pfont =  &ubitmap[4];				// the bitfield data begin at position 4
 xx = icon_xx + pgm_read_byte(&ubitmap[0]);	// first byte = offset x to left (upper) corner of the Icon
    1c02:	30 91 05 01 	lds	r19, 0x0105
    1c06:	63 0f       	add	r22, r19
 yy = icon_yy + pgm_read_byte(&ubitmap[1]);	// second byte = offset y to (left) upper corner of the Icon
 ww =  pgm_read_byte(&ubitmap[2]);		// the width of the bitfield
 hh =  pgm_read_byte(&ubitmap[3]);		// the height of the bitfield (must be multiple of 8 for ST7565)
 lcd_set_pixels( pfont, xx, yy, options, ww, hh);	// update the icon at the specified position with specified size
    1c08:	04 96       	adiw	r24, 0x04	; 4
    1c0a:	45 df       	rcall	.-374    	; 0x1a96 <lcd_set_pixels>
    1c0c:	0f 91       	pop	r16
} /* end lcd_update_icon_opt() */
    1c0e:	ef 90       	pop	r14
    1c10:	08 95       	ret

00001c12 <lcd_update_icon>:
    1c12:	60 e0       	ldi	r22, 0x00	; 0
// The first two bytes specify the location of the change bitmap relative to the upper left corner
// (the start position) of the last loaded Icon ( call of lcd_big_icon(ICON_NUMBER);).
// the next two bytes specify the width and height of the correction bitfield,
// followed by the bitfield data.
void lcd_update_icon(const unsigned char *ubitmap) {
 lcd_update_icon_opt(ubitmap, 0);	// call with no special option
    1c14:	e8 cf       	rjmp	.-48     	; 0x1be6 <lcd_update_icon_opt>
    1c16:	08 95       	ret

00001c18 <lcd_data>:
    1c18:	ef 92       	push	r14
#endif

/* ******************************************************************************* */
/* ******************************************************************************* */
// sends a character to the LCD 
void lcd_data(unsigned char temp1) {
    1c1a:	0f 93       	push	r16
    1c1c:	cf 93       	push	r28
    1c1e:	c8 2f       	mov	r28, r24
 lcd_fg_color.w = lcd_fg2_color.w;
 #else
 lcd_fg_color.w = LCD_FG_COLOR;
 #endif
#endif
_lcd_column++;
    1c20:	80 91 35 01 	lds	r24, 0x0135
    1c24:	8f 5f       	subi	r24, 0xFF	; 255
    1c26:	80 93 35 01 	sts	0x0135, r24
#if (LCD_GRAPHIC_TYPE != 0)
 uint8_t *pfont;
 pfont = (uint8_t *)font + (FONT_WIDTH * PAGES_PER_LINE * temp1);	// first byte of character data
 // for other controllers like ST7565 the _page specifies the page of the controller (8 lines)
 lcd_set_pixels( pfont, _xpos, _page*8, 0, (unsigned char)FONT_WIDTH, (unsigned char)(PAGES_PER_LINE*8));
    1c2a:	40 91 03 01 	lds	r20, 0x0103
    1c2e:	44 0f       	add	r20, r20
    1c30:	44 0f       	add	r20, r20
    1c32:	44 0f       	add	r20, r20
 #endif
#endif
_lcd_column++;
#if (LCD_GRAPHIC_TYPE != 0)
 uint8_t *pfont;
 pfont = (uint8_t *)font + (FONT_WIDTH * PAGES_PER_LINE * temp1);	// first byte of character data
    1c34:	2e e0       	ldi	r18, 0x0E	; 14
    1c36:	c2 9f       	mul	r28, r18
    1c38:	c0 01       	movw	r24, r0
    1c3a:	11 24       	eor	r1, r1
 // for other controllers like ST7565 the _page specifies the page of the controller (8 lines)
 lcd_set_pixels( pfont, _xpos, _page*8, 0, (unsigned char)FONT_WIDTH, (unsigned char)(PAGES_PER_LINE*8));
    1c3c:	20 e1       	ldi	r18, 0x10	; 16
    1c3e:	e2 2e       	mov	r14, r18
    1c40:	07 e0       	ldi	r16, 0x07	; 7
    1c42:	20 e0       	ldi	r18, 0x00	; 0
    1c44:	60 91 04 01 	lds	r22, 0x0104
    1c48:	89 5f       	subi	r24, 0xF9	; 249
    1c4a:	98 4f       	sbci	r25, 0xF8	; 248
    1c4c:	24 df       	rcall	.-440    	; 0x1a96 <lcd_set_pixels>
    1c4e:	80 91 04 01 	lds	r24, 0x0104
_xpos += FONT_WIDTH;		// move pointer to the next character position
    1c52:	89 5f       	subi	r24, 0xF9	; 249
    1c54:	80 93 04 01 	sts	0x0104, r24
    1c58:	4c 2f       	mov	r20, r28
#else
 lcd_write_data(temp1);		// set RS to 1
#endif

#ifdef WITH_UART
 switch(temp1) {
    1c5a:	50 e0       	ldi	r21, 0x00	; 0
    1c5c:	fa 01       	movw	r30, r20
    1c5e:	31 97       	sbiw	r30, 0x01	; 1
    1c60:	ea 30       	cpi	r30, 0x0A	; 10
    1c62:	f1 05       	cpc	r31, r1
    1c64:	e0 f4       	brcc	.+56     	; 0x1c9e <lcd_data+0x86>
    1c66:	ec 5c       	subi	r30, 0xCC	; 204
    1c68:	ff 4f       	sbci	r31, 0xFF	; 255
    1c6a:	0c 94 6d 3d 	jmp	0x7ada	; 0x7ada <__tablejump2__>
    1c6e:	8e e3       	ldi	r24, 0x3E	; 62
    case LCD_CHAR_DIODE1:
    	uart_putc('>');
    1c70:	05 c0       	rjmp	.+10     	; 0x1c7c <lcd_data+0x64>
    1c72:	8c e7       	ldi	r24, 0x7C	; 124
    	uart_putc('|');
    	break;
    case LCD_CHAR_DIODE2:
    	uart_putc('|');
    1c74:	27 db       	rcall	.-2482   	; 0x12c4 <uart_putc>
    1c76:	8c e3       	ldi	r24, 0x3C	; 60
    1c78:	13 c0       	rjmp	.+38     	; 0x1ca0 <lcd_data+0x88>
    	uart_putc('<');
    1c7a:	8c e7       	ldi	r24, 0x7C	; 124
    1c7c:	23 db       	rcall	.-2490   	; 0x12c4 <uart_putc>
    	break;
    case LCD_CHAR_CAP:
    	uart_putc('|');
    1c7e:	8c e7       	ldi	r24, 0x7C	; 124
    1c80:	0f c0       	rjmp	.+30     	; 0x1ca0 <lcd_data+0x88>
    1c82:	82 e5       	ldi	r24, 0x52	; 82
    	uart_putc('|');
    1c84:	0d c0       	rjmp	.+26     	; 0x1ca0 <lcd_data+0x88>
    1c86:	8d e2       	ldi	r24, 0x2D	; 45
    	break;
    case LCD_CHAR_RESIS1:
    case LCD_CHAR_RESIS2:
    	uart_putc('R');
    1c88:	0b c0       	rjmp	.+22     	; 0x1ca0 <lcd_data+0x88>
    1c8a:	85 e7       	ldi	r24, 0x75	; 117
    	break;
    case LCD_CHAR_LINE1:
        uart_putc('-');
    1c8c:	09 c0       	rjmp	.+18     	; 0x1ca0 <lcd_data+0x88>
    1c8e:	8f e4       	ldi	r24, 0x4F	; 79
//    case LCD_CHAR_DEGREE:	// degree sign
//    	uart_putc(0xf8);	// codepage 437 or 850 has degree
//    	break;
    case LCD_CHAR_U:		//
//    	uart_putc(0xe6);	// codepage 437 or 850 has my
    	uart_putc('u');		// better use the ASCII u
    1c90:	19 db       	rcall	.-2510   	; 0x12c4 <uart_putc>
    1c92:	88 e6       	ldi	r24, 0x68	; 104
    	break;
    case LCD_CHAR_OMEGA:	//Omega
        uart_putc('O');
    1c94:	17 db       	rcall	.-2514   	; 0x12c4 <uart_putc>
    1c96:	8d e6       	ldi	r24, 0x6D	; 109
    1c98:	03 c0       	rjmp	.+6      	; 0x1ca0 <lcd_data+0x88>
        uart_putc('h');
    1c9a:	8c e4       	ldi	r24, 0x4C	; 76
    1c9c:	01 c0       	rjmp	.+2      	; 0x1ca0 <lcd_data+0x88>
    1c9e:	8c 2f       	mov	r24, r28
        uart_putc('m');
    1ca0:	11 db       	rcall	.-2526   	; 0x12c4 <uart_putc>
    1ca2:	a8 95       	wdr
    	break;
 #if LCD_CHAR_INDUCTOR1 != 'w'
    case LCD_CHAR_INDUCTOR1:
    case LCD_CHAR_INDUCTOR2:
        uart_putc('L');
    1ca4:	cf 91       	pop	r28
    1ca6:	0f 91       	pop	r16
        break;
 #endif
    default:
    	uart_putc(temp1);
    1ca8:	ef 90       	pop	r14
    1caa:	08 95       	ret

00001cac <lcd_testpin>:
    1cac:	8f 5c       	subi	r24, 0xCF	; 207
 }
#endif
 wdt_reset();
    1cae:	b4 cf       	rjmp	.-152    	; 0x1c18 <lcd_data>
} /* end lcd_data() */
    1cb0:	08 95       	ret

00001cb2 <lcd_space>:
    1cb2:	80 e2       	ldi	r24, 0x20	; 32
    1cb4:	b1 cf       	rjmp	.-158    	; 0x1c18 <lcd_data>
    1cb6:	08 95       	ret

00001cb8 <lcd_spaces>:
}

/* ******************************************************************************* */
// send space character to LCD
void lcd_space(void) {
   lcd_data(' ');	// output one space to LCD and UART
    1cb8:	a1 e0       	ldi	r26, 0x01	; 1
}

void lcd_spaces(int8_t nn) {
    1cba:	b0 e0       	ldi	r27, 0x00	; 0
    1cbc:	e2 e6       	ldi	r30, 0x62	; 98
    1cbe:	fe e0       	ldi	r31, 0x0E	; 14
    1cc0:	0c 94 2d 3e 	jmp	0x7c5a	; 0x7c5a <__prologue_saves__+0x20>
   while (nn > 0) {
    1cc4:	18 16       	cp	r1, r24
    1cc6:	2c f4       	brge	.+10     	; 0x1cd2 <lcd_spaces+0x1a>
     lcd_space();	// output one space to LCD and UART
    1cc8:	89 83       	std	Y+1, r24	; 0x01
    1cca:	f3 df       	rcall	.-26     	; 0x1cb2 <lcd_space>
    1ccc:	89 81       	ldd	r24, Y+1	; 0x01
    1cce:	81 50       	subi	r24, 0x01	; 1
    1cd0:	f9 cf       	rjmp	.-14     	; 0x1cc4 <lcd_spaces+0xc>
    1cd2:	21 96       	adiw	r28, 0x01	; 1
     nn--;
   }
}
    1cd4:	e2 e0       	ldi	r30, 0x02	; 2
    1cd6:	0c 94 49 3e 	jmp	0x7c92	; 0x7c92 <__epilogue_restores__+0x20>

00001cda <lcd_clear_line>:
    1cda:	90 91 35 01 	lds	r25, 0x0135
}

/* ******************************************************************************* */
void lcd_clear_line(void) {
 // writes spaces up to LCD_LINE_LENGTH to LCD-Display, Cursor can be positioned to any column
    lcd_spaces(LCD_LINE_LENGTH - _lcd_column);
    1cde:	82 e1       	ldi	r24, 0x12	; 18
    1ce0:	89 1b       	sub	r24, r25
    1ce2:	ea cf       	rjmp	.-44     	; 0x1cb8 <lcd_spaces>
    1ce4:	08 95       	ret

00001ce6 <lcd_next_line>:
    1ce6:	a1 e0       	ldi	r26, 0x01	; 1

/* ******************************************************************************* */
// position to next line to column xx
// Text_line number is incremented by 1, if possible (not yet at the last line).
// If already at the last line of the display, last_line_used is set to 1 .
void lcd_next_line(uint8_t xx) {
    1ce8:	b0 e0       	ldi	r27, 0x00	; 0
    1cea:	e9 e7       	ldi	r30, 0x79	; 121
    1cec:	fe e0       	ldi	r31, 0x0E	; 14
    1cee:	0c 94 2d 3e 	jmp	0x7c5a	; 0x7c5a <__prologue_saves__+0x20>
   lcd_clear_line();
    1cf2:	89 83       	std	Y+1, r24	; 0x01
    1cf4:	f2 df       	rcall	.-28     	; 0x1cda <lcd_clear_line>
    1cf6:	90 91 a5 01 	lds	r25, 0x01A5
   lcd_text_line ++;
    1cfa:	9f 5f       	subi	r25, 0xFF	; 255
    1cfc:	90 93 a5 01 	sts	0x01A5, r25
    1d00:	89 81       	ldd	r24, Y+1	; 0x01
   if (lcd_text_line > (LCD_LINES - 1))  {
    1d02:	94 30       	cpi	r25, 0x04	; 4
    1d04:	38 f0       	brcs	.+14     	; 0x1d14 <lcd_next_line+0x2e>
    1d06:	93 e0       	ldi	r25, 0x03	; 3
      // Limit is reached
      lcd_text_line = (LCD_LINES - 1);
    1d08:	90 93 a5 01 	sts	0x01A5, r25
    1d0c:	91 e0       	ldi	r25, 0x01	; 1
      last_line_used = 1;
    1d0e:	90 93 38 01 	sts	0x0138, r25
    1d12:	02 c0       	rjmp	.+4      	; 0x1d18 <lcd_next_line+0x32>
    1d14:	10 92 38 01 	sts	0x0138, r1
   } else {
      last_line_used = 0;
    1d18:	90 91 a5 01 	lds	r25, 0x01A5
   }
   lcd_set_cursor((uint8_t)(lcd_text_line * PAGES_PER_LINE), xx);
    1d1c:	68 2f       	mov	r22, r24
    1d1e:	89 2f       	mov	r24, r25
    1d20:	88 0f       	add	r24, r24
    1d22:	12 de       	rcall	.-988    	; 0x1948 <lcd_set_cursor>
    1d24:	38 de       	rcall	.-912    	; 0x1996 <uart_newline>
    1d26:	21 96       	adiw	r28, 0x01	; 1
#ifdef WITH_UART
   uart_newline();		// start of new line
    1d28:	e2 e0       	ldi	r30, 0x02	; 2
    1d2a:	0c 94 49 3e 	jmp	0x7c92	; 0x7c92 <__epilogue_restores__+0x20>

00001d2e <lcd_next_line_wait>:
 #if WITH_UART == 2		// MAURO
   uart_putc('1'+lcd_text_line);	// MAURO
 #endif				// MAURO
#endif
}
    1d2e:	db df       	rcall	.-74     	; 0x1ce6 <lcd_next_line>
    1d30:	f5 d2       	rcall	.+1514   	; 0x231c <wait_for_key_5s_line2>
    1d32:	80 91 a5 01 	lds	r24, 0x01A5
/* ******************************************************************************* */
#ifdef WAIT_LINE2_CLEAR
void lcd_next_line_wait(uint8_t xx) {
   lcd_next_line(xx);
   wait_for_key_5s_line2();		// wait 5s and clear last line
   if (lcd_text_line > 2)
    1d36:	83 30       	cpi	r24, 0x03	; 3
    1d38:	08 f0       	brcs	.+2      	; 0x1d3c <lcd_next_line_wait+0xe>
    1d3a:	2d ce       	rjmp	.-934    	; 0x1996 <uart_newline>
    1d3c:	08 95       	ret

00001d3e <lcd_clear_line1>:
     uart_newline();		// MAURO  ('H')
    1d3e:	30 de       	rcall	.-928    	; 0x19a0 <lcd_line1>
    1d40:	cc df       	rcall	.-104    	; 0x1cda <lcd_clear_line>
    1d42:	2e ce       	rjmp	.-932    	; 0x19a0 <lcd_line1>
}

#ifdef LCD_CLEAR
void lcd_clear_line1(void) {
    lcd_line1();
    lcd_clear_line();
    1d44:	08 95       	ret

00001d46 <lcd_clear_line2>:
    lcd_line1();
    1d46:	7f de       	rcall	.-770    	; 0x1a46 <lcd_line2>
    1d48:	c8 df       	rcall	.-112    	; 0x1cda <lcd_clear_line>
    1d4a:	7d ce       	rjmp	.-774    	; 0x1a46 <lcd_line2>
}
void lcd_clear_line2(void) {
    lcd_line2();
    lcd_clear_line();
    1d4c:	08 95       	ret

00001d4e <lcd_equal>:
    lcd_line2();
    1d4e:	8d e3       	ldi	r24, 0x3D	; 61
    1d50:	63 cf       	rjmp	.-314    	; 0x1c18 <lcd_data>
    1d52:	08 95       	ret

00001d54 <lcd_string>:
     nn--;
   }
}
// send equal character to LCD
void lcd_equal(void) {
   lcd_data('=');
    1d54:	cf 93       	push	r28
 
 
/* ******************************************************************************* */
// writes a string to the LCD 
 
void lcd_string(char *data) {
    1d56:	df 93       	push	r29
    1d58:	ec 01       	movw	r28, r24
    while(*data) {
    1d5a:	89 91       	ld	r24, Y+
    1d5c:	88 23       	and	r24, r24
    1d5e:	11 f0       	breq	.+4      	; 0x1d64 <lcd_string+0x10>
        lcd_data(*data);
    1d60:	5b df       	rcall	.-330    	; 0x1c18 <lcd_data>
    1d62:	fb cf       	rjmp	.-10     	; 0x1d5a <lcd_string+0x6>
    1d64:	df 91       	pop	r29
        data++;
    }
}
    1d66:	cf 91       	pop	r28
    1d68:	08 95       	ret

00001d6a <lcd_fix_string>:
    1d6a:	cf 93       	push	r28
#endif

/* ******************************************************************************* */
#ifdef USE_EEPROM
//Load string from PGM or EEprom and send to LCD 
void lcd_fix_string(const unsigned char *data) {
    1d6c:	df 93       	push	r29
    1d6e:	ec 01       	movw	r28, r24
   unsigned char cc;
   while(1) {
      cc = MEM_read_byte(data);
    1d70:	ce 01       	movw	r24, r28
    1d72:	0e 94 b0 3e 	call	0x7d60	; 0x7d60 <eeprom_read_byte>
      if((cc==0) || (cc==128)) {
    1d76:	98 2f       	mov	r25, r24
    1d78:	9f 77       	andi	r25, 0x7F	; 127
    1d7a:	19 f0       	breq	.+6      	; 0x1d82 <lcd_fix_string+0x18>
         return;
      }
      lcd_data(cc);
    1d7c:	4d df       	rcall	.-358    	; 0x1c18 <lcd_data>
    1d7e:	21 96       	adiw	r28, 0x01	; 1
      data++;
    1d80:	f7 cf       	rjmp	.-18     	; 0x1d70 <lcd_fix_string+0x6>
   }
    1d82:	df 91       	pop	r29
}
    1d84:	cf 91       	pop	r28
    1d86:	08 95       	ret

00001d88 <lcd_pgm_bitmap>:
    1d88:	ef 92       	push	r14
#ifdef WITH_GRAPHICS
void lcd_pgm_bitmap(const unsigned char * pbitmap,
                    unsigned char x,
                    unsigned char y,
                    unsigned char options)
{
    1d8a:	0f 93       	push	r16
 uint8_t dx;	// width
 uint8_t dy;	// height
 dx = (unsigned char)pgm_read_byte(&pbitmap[0]);	// width of the bitmap
    1d8c:	fc 01       	movw	r30, r24
    1d8e:	04 91       	lpm	r16, Z
 dy = (unsigned char)pgm_read_byte(&pbitmap[1]);	// height of the bitmap
    1d90:	31 96       	adiw	r30, 0x01	; 1
    1d92:	e4 90       	lpm	r14, Z
 lcd_set_pixels( (const unsigned char *)(pbitmap+2), x, y, options, dx, dy);
    1d94:	02 96       	adiw	r24, 0x02	; 2
    1d96:	7f de       	rcall	.-770    	; 0x1a96 <lcd_set_pixels>
    1d98:	0f 91       	pop	r16
}
    1d9a:	ef 90       	pop	r14
    1d9c:	08 95       	ret

00001d9e <lcd_show_Cg>:
    1d9e:	0f 93       	push	r16
/* ------------------------------------------------------------------------------- */
#endif /* (LCD_ST_TYPE == 7565 || 1306 || 7108 || 7920 || 8812 || 8814 ... */
}
/* ******************************************************************************* */
void lcd_show_Cg(void) {
       lcd_MEM_string(GateCap_str);             //"Cg="
    1da0:	80 e9       	ldi	r24, 0x90	; 144
    1da2:	91 e0       	ldi	r25, 0x01	; 1
    1da4:	e2 df       	rcall	.-60     	; 0x1d6a <lcd_fix_string>
    1da6:	40 91 85 01 	lds	r20, 0x0185
#if FLASHEND > 0x1fff
       if (cap.cpre < -3) {
    1daa:	4d 3f       	cpi	r20, 0xFD	; 253
    1dac:	64 f4       	brge	.+24     	; 0x1dc6 <lcd_show_Cg+0x28>
    1dae:	60 91 73 01 	lds	r22, 0x0173
          DisplayValue(cap.cval,cap.cpre,'F',3);
    1db2:	70 91 74 01 	lds	r23, 0x0174
    1db6:	80 91 75 01 	lds	r24, 0x0175
    1dba:	90 91 76 01 	lds	r25, 0x0176
    1dbe:	03 e0       	ldi	r16, 0x03	; 3
    1dc0:	26 e4       	ldi	r18, 0x46	; 70
    1dc2:	19 d0       	rcall	.+50     	; 0x1df6 <DisplayValue>
    1dc4:	02 c0       	rjmp	.+4      	; 0x1dca <lcd_show_Cg+0x2c>
    1dc6:	8f e3       	ldi	r24, 0x3F	; 63
    1dc8:	27 df       	rcall	.-434    	; 0x1c18 <lcd_data>
       } else {
          lcd_data('?');
    1dca:	0f 91       	pop	r16
    1dcc:	08 95       	ret

00001dce <lcd_show_rds>:
    1dce:	90 91 12 01 	lds	r25, 0x0112
       }
#else
       DisplayValue(cap.cval,cap.cpre,'F',3);
#endif
}
    1dd2:	9f 70       	andi	r25, 0x0F	; 15
#ifdef SHOW_R_DS
void lcd_show_rds(uint8_t xpos)
{
       if ((PartMode&0x0f) == PART_MODE_MOS) {     /* kein JFET or IGBT */
    1dd4:	92 30       	cpi	r25, 0x02	; 2
    1dd6:	71 f4       	brne	.+28     	; 0x1df4 <lcd_show_rds+0x26>
          lcd_next_line_wait(xpos);
    1dd8:	aa df       	rcall	.-172    	; 0x1d2e <lcd_next_line_wait>
    1dda:	84 e7       	ldi	r24, 0x74	; 116
          lcd_MEM_string(RDS_str);		// "RDS=
    1ddc:	90 e0       	ldi	r25, 0x00	; 0
    1dde:	c5 df       	rcall	.-118    	; 0x1d6a <lcd_fix_string>
    1de0:	e0 91 36 01 	lds	r30, 0x0136
          DisplayValue16(_trans->uBE,-1,LCD_CHAR_OMEGA,2);	// Drain-Source resistance
    1de4:	f0 91 37 01 	lds	r31, 0x0137
    1de8:	22 e0       	ldi	r18, 0x02	; 2
    1dea:	44 e0       	ldi	r20, 0x04	; 4
    1dec:	6f ef       	ldi	r22, 0xFF	; 255
    1dee:	84 81       	ldd	r24, Z+4	; 0x04
    1df0:	95 81       	ldd	r25, Z+5	; 0x05
    1df2:	ea c0       	rjmp	.+468    	; 0x1fc8 <DisplayValue16>
    1df4:	08 95       	ret

00001df6 <DisplayValue>:
    1df6:	ae e0       	ldi	r26, 0x0E	; 14
    1df8:	b0 e0       	ldi	r27, 0x00	; 0
    1dfa:	e1 e0       	ldi	r30, 0x01	; 1
 *  Flag 0x10 for output with leading zeros
 *  Flag 0x20 for '+' Output, if not '-' 
 */

void DisplayValue(signed long signedValue, int8_t Exponent, unsigned char Unit, uint8_t xdigits)
{
    1dfc:	ff e0       	ldi	r31, 0x0F	; 15
    1dfe:	0c 94 1d 3e 	jmp	0x7c3a	; 0x7c3a <__prologue_saves__>
    1e02:	14 2f       	mov	r17, r20
    1e04:	62 2e       	mov	r6, r18
    1e06:	70 2e       	mov	r7, r16
  uint8_t           digits;		/* xdigits without option */
  uint8_t           Length;		/* string length */
  uint8_t	    Rshift;		/* right shift of significant bits with leading '0' */


  unsigned long Value=signedValue;
    1e08:	6b 01       	movw	r12, r22
    1e0a:	7c 01       	movw	r14, r24
  digits = xdigits & 0x0f;
    1e0c:	0f 70       	andi	r16, 0x0F	; 15
  for(Prefix=0;Prefix<6;Prefix++) OutBuffer[Prefix] = '0';
    1e0e:	80 e3       	ldi	r24, 0x30	; 48
    1e10:	89 83       	std	Y+1, r24	; 0x01
    1e12:	8a 83       	std	Y+2, r24	; 0x02
    1e14:	8b 83       	std	Y+3, r24	; 0x03
    1e16:	8c 83       	std	Y+4, r24	; 0x04
    1e18:	8d 83       	std	Y+5, r24	; 0x05
    1e1a:	8e 83       	std	Y+6, r24	; 0x06

#if FLASHEND > 0x1fff
  if (signedValue<0) {
    1e1c:	f7 fe       	sbrs	r15, 7
    1e1e:	0b c0       	rjmp	.+22     	; 0x1e36 <DisplayValue+0x40>
     lcd_data('-');
    1e20:	8d e2       	ldi	r24, 0x2D	; 45
    1e22:	fa de       	rcall	.-524    	; 0x1c18 <lcd_data>
    1e24:	f0 94       	com	r15
     Value=-signedValue;
    1e26:	e0 94       	com	r14
    1e28:	d0 94       	com	r13
    1e2a:	c0 94       	com	r12
    1e2c:	c1 1c       	adc	r12, r1
    1e2e:	d1 1c       	adc	r13, r1
    1e30:	e1 1c       	adc	r14, r1
    1e32:	f1 1c       	adc	r15, r1
    1e34:	04 c0       	rjmp	.+8      	; 0x1e3e <DisplayValue+0x48>
    1e36:	75 fe       	sbrs	r7, 5
  } else {
     if ((xdigits & 0x20) != 0) lcd_data('+');
    1e38:	02 c0       	rjmp	.+4      	; 0x1e3e <DisplayValue+0x48>
    1e3a:	8b e2       	ldi	r24, 0x2B	; 43
    1e3c:	ed de       	rcall	.-550    	; 0x1c18 <lcd_data>
    1e3e:	03 30       	cpi	r16, 0x03	; 3
    1e40:	61 f1       	breq	.+88     	; 0x1e9a <DisplayValue+0xa4>
  }
#endif

  Limit = 100;				/* scale value down to 2 digits */
  if (digits == 3) Limit = 1000;	/* scale value down to 3 digits */
    1e42:	04 30       	cpi	r16, 0x04	; 4
    1e44:	99 f0       	breq	.+38     	; 0x1e6c <DisplayValue+0x76>
  if (digits == 4) Limit = 10000;	/* scale value down to 4 digits */
    1e46:	05 30       	cpi	r16, 0x05	; 5
    1e48:	c1 f0       	breq	.+48     	; 0x1e7a <DisplayValue+0x84>
#ifdef LONG_OUTPUT
  if (digits == 5) Limit = 100000;	/* scale value down to 5 digits */
    1e4a:	06 30       	cpi	r16, 0x06	; 6
    1e4c:	f1 f0       	breq	.+60     	; 0x1e8a <DisplayValue+0x94>
  if (digits == 6) Limit = 1000000;	/* scale value down to 6 digits */
    1e4e:	74 e6       	ldi	r23, 0x64	; 100
    1e50:	87 2e       	mov	r8, r23
  } else {
     if ((xdigits & 0x20) != 0) lcd_data('+');
  }
#endif

  Limit = 100;				/* scale value down to 2 digits */
    1e52:	91 2c       	mov	r9, r1
    1e54:	a1 2c       	mov	r10, r1
    1e56:	b1 2c       	mov	r11, r1
    1e58:	07 30       	cpi	r16, 0x07	; 7
    1e5a:	29 f5       	brne	.+74     	; 0x1ea6 <DisplayValue+0xb0>
  if (digits == 3) Limit = 1000;	/* scale value down to 3 digits */
  if (digits == 4) Limit = 10000;	/* scale value down to 4 digits */
#ifdef LONG_OUTPUT
  if (digits == 5) Limit = 100000;	/* scale value down to 5 digits */
  if (digits == 6) Limit = 1000000;	/* scale value down to 6 digits */
  if (digits == 7) Limit = 10000000;	/* scale value down to 7 digits */
    1e5c:	30 e8       	ldi	r19, 0x80	; 128
    1e5e:	83 2e       	mov	r8, r19
    1e60:	36 e9       	ldi	r19, 0x96	; 150
    1e62:	93 2e       	mov	r9, r19
    1e64:	38 e9       	ldi	r19, 0x98	; 152
    1e66:	a3 2e       	mov	r10, r19
    1e68:	b1 2c       	mov	r11, r1
    1e6a:	1d c0       	rjmp	.+58     	; 0x1ea6 <DisplayValue+0xb0>
    1e6c:	60 e1       	ldi	r22, 0x10	; 16
    1e6e:	86 2e       	mov	r8, r22
  }
#endif

  Limit = 100;				/* scale value down to 2 digits */
  if (digits == 3) Limit = 1000;	/* scale value down to 3 digits */
  if (digits == 4) Limit = 10000;	/* scale value down to 4 digits */
    1e70:	67 e2       	ldi	r22, 0x27	; 39
    1e72:	96 2e       	mov	r9, r22
    1e74:	a1 2c       	mov	r10, r1
    1e76:	b1 2c       	mov	r11, r1
    1e78:	16 c0       	rjmp	.+44     	; 0x1ea6 <DisplayValue+0xb0>
    1e7a:	50 ea       	ldi	r21, 0xA0	; 160
    1e7c:	85 2e       	mov	r8, r21
#ifdef LONG_OUTPUT
  if (digits == 5) Limit = 100000;	/* scale value down to 5 digits */
    1e7e:	56 e8       	ldi	r21, 0x86	; 134
    1e80:	95 2e       	mov	r9, r21
    1e82:	aa 24       	eor	r10, r10
    1e84:	a3 94       	inc	r10
    1e86:	b1 2c       	mov	r11, r1
    1e88:	0e c0       	rjmp	.+28     	; 0x1ea6 <DisplayValue+0xb0>
    1e8a:	40 e4       	ldi	r20, 0x40	; 64
    1e8c:	84 2e       	mov	r8, r20
  if (digits == 6) Limit = 1000000;	/* scale value down to 6 digits */
    1e8e:	42 e4       	ldi	r20, 0x42	; 66
    1e90:	94 2e       	mov	r9, r20
    1e92:	4f e0       	ldi	r20, 0x0F	; 15
    1e94:	a4 2e       	mov	r10, r20
    1e96:	b1 2c       	mov	r11, r1
    1e98:	06 c0       	rjmp	.+12     	; 0x1ea6 <DisplayValue+0xb0>
    1e9a:	88 ee       	ldi	r24, 0xE8	; 232
    1e9c:	88 2e       	mov	r8, r24
     if ((xdigits & 0x20) != 0) lcd_data('+');
  }
#endif

  Limit = 100;				/* scale value down to 2 digits */
  if (digits == 3) Limit = 1000;	/* scale value down to 3 digits */
    1e9e:	83 e0       	ldi	r24, 0x03	; 3
    1ea0:	98 2e       	mov	r9, r24
    1ea2:	a1 2c       	mov	r10, r1
    1ea4:	b1 2c       	mov	r11, r1
    1ea6:	2a e0       	ldi	r18, 0x0A	; 10
    1ea8:	22 2e       	mov	r2, r18

  while (Value >= Limit)
  {
    Value += 5;				/* for automatic rounding */
    // perhaps TODO: the above is not really correct, can do double rounding (2000.45 -> 2000.5 -> 2001)
    Value = Value / 10;			/* scale down by 10^1 */
    1eaa:	31 2c       	mov	r3, r1
    1eac:	41 2c       	mov	r4, r1
    1eae:	51 2c       	mov	r5, r1
    1eb0:	c8 14       	cp	r12, r8
    1eb2:	d9 04       	cpc	r13, r9
  if (digits == 5) Limit = 100000;	/* scale value down to 5 digits */
  if (digits == 6) Limit = 1000000;	/* scale value down to 6 digits */
  if (digits == 7) Limit = 10000000;	/* scale value down to 7 digits */
#endif

  while (Value >= Limit)
    1eb4:	ea 04       	cpc	r14, r10
    1eb6:	fb 04       	cpc	r15, r11
    1eb8:	70 f0       	brcs	.+28     	; 0x1ed6 <DisplayValue+0xe0>
    1eba:	c7 01       	movw	r24, r14
    1ebc:	b6 01       	movw	r22, r12
  {
    Value += 5;				/* for automatic rounding */
    1ebe:	6b 5f       	subi	r22, 0xFB	; 251
    1ec0:	7f 4f       	sbci	r23, 0xFF	; 255
    1ec2:	8f 4f       	sbci	r24, 0xFF	; 255
    1ec4:	9f 4f       	sbci	r25, 0xFF	; 255
    1ec6:	a2 01       	movw	r20, r4
    1ec8:	91 01       	movw	r18, r2
    // perhaps TODO: the above is not really correct, can do double rounding (2000.45 -> 2000.5 -> 2001)
    Value = Value / 10;			/* scale down by 10^1 */
    1eca:	0e 94 2f 3d 	call	0x7a5e	; 0x7a5e <__udivmodsi4>
    1ece:	69 01       	movw	r12, r18
    1ed0:	7a 01       	movw	r14, r20
    1ed2:	1f 5f       	subi	r17, 0xFF	; 255
    1ed4:	ed cf       	rjmp	.-38     	; 0x1eb0 <DisplayValue+0xba>
    1ed6:	81 e1       	ldi	r24, 0x11	; 17
    1ed8:	81 0f       	add	r24, r17
    }
#endif
  // the following is much more concise
  // also removes the limits checking, since limit errors should never happen, and if they do, they'd show _incorrect_ results;
  // showing a garbage prefix character seems preferable to something correct-looking but off by some power of 10
  Index = ((unsigned char)(Exponent+17))/3;
    1eda:	9b ea       	ldi	r25, 0xAB	; 171
    1edc:	89 9f       	mul	r24, r25
    1ede:	81 2d       	mov	r24, r1
    1ee0:	11 24       	eor	r1, r1
    1ee2:	a8 2e       	mov	r10, r24
    1ee4:	a6 94       	lsr	r10
    1ee6:	86 e0       	ldi	r24, 0x06	; 6
    1ee8:	81 1b       	sub	r24, r17
  Offset = ((unsigned char)(6-Exponent))%3;
    1eea:	89 9f       	mul	r24, r25
    1eec:	11 2d       	mov	r17, r1
    1eee:	11 24       	eor	r1, r1
    1ef0:	16 95       	lsr	r17
    1ef2:	91 2f       	mov	r25, r17
    1ef4:	99 0f       	add	r25, r25
    1ef6:	19 0f       	add	r17, r25
    1ef8:	81 1b       	sub	r24, r17
    1efa:	18 2f       	mov	r17, r24
    1efc:	4e 01       	movw	r8, r28
    1efe:	87 e0       	ldi	r24, 0x07	; 7
    } else if (__radix < 2 || __radix > 36) {
	*__s = 0;
	return __s;
    } else {
	extern char *__ultoa_ncheck (unsigned long, char *, unsigned char);
	return __ultoa_ncheck (__val, __s, __radix);
    1f00:	88 0e       	add	r8, r24
    1f02:	91 1c       	adc	r9, r1
    1f04:	2a e0       	ldi	r18, 0x0A	; 10
    1f06:	a4 01       	movw	r20, r8
    1f08:	c7 01       	movw	r24, r14
    1f0a:	b6 01       	movw	r22, r12
    1f0c:	0e 94 5c 3e 	call	0x7cb8	; 0x7cb8 <__ultoa_ncheck>
    1f10:	f4 01       	movw	r30, r8
    1f12:	01 90       	ld	r0, Z+
  ultoa(Value, &OutBuffer[6], 10);	// sprintf(&OutBuffer[6],"%ld%c",Value,(char)0);
#else
  utoa((uint16_t)Value, &OutBuffer[6], 10);	// sprintf(&OutBuffer[6],"%d%c",Value,(char)0);
#endif

  Length = strlen(&OutBuffer[6]);
    1f14:	00 20       	and	r0, r0
    1f16:	e9 f7       	brne	.-6      	; 0x1f12 <DisplayValue+0x11c>
    1f18:	31 97       	sbiw	r30, 0x01	; 1
    1f1a:	7f 01       	movw	r14, r30
    1f1c:	e8 18       	sub	r14, r8
    1f1e:	f9 08       	sbc	r15, r9
    1f20:	9e 2c       	mov	r9, r14
    1f22:	67 01       	movw	r12, r14
    1f24:	dd 24       	eor	r13, r13
    1f26:	81 2f       	mov	r24, r17
    1f28:	90 e0       	ldi	r25, 0x00	; 0

#ifdef LONG_OUTPUT
 #ifdef NO_NANO
  if ((Length > (4+Offset))  && (Index != 0))
 #else
  if (Length > (4+Offset)) 
    1f2a:	04 96       	adiw	r24, 0x04	; 4
    1f2c:	8c 15       	cp	r24, r12
    1f2e:	9d 05       	cpc	r25, r13
    1f30:	14 f4       	brge	.+4      	; 0x1f36 <DisplayValue+0x140>
    1f32:	a3 94       	inc	r10
    1f34:	1d 5f       	subi	r17, 0xFD	; 253
 #endif
    {
      Index++;			/* take next prefix for better readable string */
    1f36:	8a 2d       	mov	r24, r10
      Offset += 3;		/* decimal point 3 to the left */
    1f38:	90 e0       	ldi	r25, 0x00	; 0
      Index++;				/* use mikro instead of nano */
      Offset += 3;			/* can be 3,4 or 5 */
    }
#endif

  Prefix = MEM_read_byte((unsigned char *)(&PrefixTab[Index]));   /* look up prefix in table */
    1f3a:	84 5d       	subi	r24, 0xD4	; 212
    1f3c:	9f 4f       	sbci	r25, 0xFF	; 255
    1f3e:	0e 94 b0 3e 	call	0x7d60	; 0x7d60 <eeprom_read_byte>
    1f42:	a8 2e       	mov	r10, r24
    1f44:	74 fe       	sbrs	r7, 4
    1f46:	04 c0       	rjmp	.+8      	; 0x1f50 <DisplayValue+0x15a>

   */


  /* position of dot */
  if (((xdigits & 0x10) != 0) && (digits > Length)) {
    1f48:	90 16       	cp	r9, r16
    1f4a:	10 f4       	brcc	.+4      	; 0x1f50 <DisplayValue+0x15a>
    1f4c:	0e 19       	sub	r16, r14
    1f4e:	01 c0       	rjmp	.+2      	; 0x1f52 <DisplayValue+0x15c>
     Rshift = (digits - Length);	// use previous filled '0' characters
    1f50:	00 e0       	ldi	r16, 0x00	; 0
    1f52:	9e 2c       	mov	r9, r14
  } else {
     Rshift = 0;
    1f54:	91 1a       	sub	r9, r17
    1f56:	90 0e       	add	r9, r16
    1f58:	19 14       	cp	r1, r9
  }

  Exponent = (Length + Rshift) - Offset;		/* calculate position */
    1f5a:	24 f0       	brlt	.+8      	; 0x1f64 <DisplayValue+0x16e>

  if (Exponent <= 0)			/* we have to prepend "0." */
    1f5c:	8e e2       	ldi	r24, 0x2E	; 46
    1f5e:	5c de       	rcall	.-840    	; 0x1c18 <lcd_data>
  {
    /* 0: factor 10 / -1: factor 100 */
//    lcd_data('0');
    lcd_data('.');
    1f60:	01 2f       	mov	r16, r17
    1f62:	0e 19       	sub	r16, r14
    1f64:	11 11       	cpse	r17, r1
      }
#else
    if (Exponent < 0) lcd_data('0');	/* extra 0 for factor 100 */
#endif
#else
    Rshift = Offset - Length;
    1f66:	02 c0       	rjmp	.+4      	; 0x1f6c <DisplayValue+0x176>
    1f68:	98 ef       	ldi	r25, 0xF8	; 248
#endif
  }



  if (Offset == 0) Exponent = -8;	/* disable dot if not needed */
    1f6a:	99 2e       	mov	r9, r25
    1f6c:	81 2c       	mov	r8, r1
    1f6e:	10 e0       	ldi	r17, 0x00	; 0
    1f70:	c0 0e       	add	r12, r16

//  Exponent--;


  /* display value and add dot if requested */
  Index = 0;
    1f72:	d1 1e       	adc	r13, r17
  while (Index < (Length+Rshift))		/* loop through string */
    1f74:	e9 2c       	mov	r14, r9
    1f76:	09 2c       	mov	r0, r9
    1f78:	00 0c       	add	r0, r0
  {
    lcd_data(OutBuffer[Index+6-Rshift]);		/* display char */
    Index++;				/* next one */
    if (Index == Exponent) {
    1f7a:	ff 08       	sbc	r15, r15
    1f7c:	48 2d       	mov	r20, r8
    1f7e:	50 e0       	ldi	r21, 0x00	; 0
    1f80:	4c 15       	cp	r20, r12
//  Exponent--;


  /* display value and add dot if requested */
  Index = 0;
  while (Index < (Length+Rshift))		/* loop through string */
    1f82:	5d 05       	cpc	r21, r13
    1f84:	ac f4       	brge	.+42     	; 0x1fb0 <DisplayValue+0x1ba>
    1f86:	fa 01       	movw	r30, r20
    1f88:	36 96       	adiw	r30, 0x06	; 6
    1f8a:	e0 1b       	sub	r30, r16
  {
    lcd_data(OutBuffer[Index+6-Rshift]);		/* display char */
    1f8c:	f1 0b       	sbc	r31, r17
    1f8e:	81 e0       	ldi	r24, 0x01	; 1
    1f90:	90 e0       	ldi	r25, 0x00	; 0
    1f92:	8c 0f       	add	r24, r28
    1f94:	9d 1f       	adc	r25, r29
    1f96:	e8 0f       	add	r30, r24
    1f98:	f9 1f       	adc	r31, r25
    1f9a:	80 81       	ld	r24, Z
    1f9c:	3d de       	rcall	.-902    	; 0x1c18 <lcd_data>
    1f9e:	83 94       	inc	r8
    1fa0:	88 2d       	mov	r24, r8
    1fa2:	90 e0       	ldi	r25, 0x00	; 0
    1fa4:	8e 15       	cp	r24, r14
    Index++;				/* next one */
    1fa6:	9f 05       	cpc	r25, r15
    if (Index == Exponent) {
    1fa8:	49 f7       	brne	.-46     	; 0x1f7c <DisplayValue+0x186>
    1faa:	8e e2       	ldi	r24, 0x2E	; 46
    1fac:	35 de       	rcall	.-918    	; 0x1c18 <lcd_data>
    1fae:	e6 cf       	rjmp	.-52     	; 0x1f7c <DisplayValue+0x186>
    1fb0:	aa 20       	and	r10, r10
      lcd_data('.');			/* display dot */
    1fb2:	11 f0       	breq	.+4      	; 0x1fb8 <DisplayValue+0x1c2>
    1fb4:	8a 2d       	mov	r24, r10
    1fb6:	30 de       	rcall	.-928    	; 0x1c18 <lcd_data>
    1fb8:	66 20       	and	r6, r6



  /* display prefix and unit */

  if (Prefix != 0) {
    1fba:	11 f0       	breq	.+4      	; 0x1fc0 <DisplayValue+0x1ca>
    1fbc:	86 2d       	mov	r24, r6
     lcd_data(Prefix);
    1fbe:	2c de       	rcall	.-936    	; 0x1c18 <lcd_data>
    1fc0:	2e 96       	adiw	r28, 0x0e	; 14
    1fc2:	e2 e1       	ldi	r30, 0x12	; 18
  }

  if (Unit != 0) {
    1fc4:	0c 94 39 3e 	jmp	0x7c72	; 0x7c72 <__epilogue_restores__>

00001fc8 <DisplayValue16>:
      lcd_data(Unit);
    1fc8:	0f 93       	push	r16
    1fca:	36 2f       	mov	r19, r22
    1fcc:	bc 01       	movw	r22, r24
  }
  return;
}
    1fce:	80 e0       	ldi	r24, 0x00	; 0
    1fd0:	90 e0       	ldi	r25, 0x00	; 0
    1fd2:	02 2f       	mov	r16, r18
    1fd4:	24 2f       	mov	r18, r20

void DisplayValue16(uint16_t Value, int8_t Exponent, unsigned char Unit, uint8_t digits)
{
 DisplayValue((signed long)Value, Exponent, Unit, digits);
    1fd6:	43 2f       	mov	r20, r19
    1fd8:	0e df       	rcall	.-484    	; 0x1df6 <DisplayValue>
    1fda:	0f 91       	pop	r16
}
    1fdc:	08 95       	ret

00001fde <Display_mV>:
    1fde:	0f 93       	push	r16

void Display_mV(uint16_t xx, uint8_t ll) {
    1fe0:	06 2f       	mov	r16, r22
 DisplayValue((long)xx,-3,'V',ll);
    1fe2:	bc 01       	movw	r22, r24
    1fe4:	80 e0       	ldi	r24, 0x00	; 0
    1fe6:	90 e0       	ldi	r25, 0x00	; 0
    1fe8:	26 e5       	ldi	r18, 0x56	; 86
    1fea:	4d ef       	ldi	r20, 0xFD	; 253
    1fec:	04 df       	rcall	.-504    	; 0x1df6 <DisplayValue>
    1fee:	0f 91       	pop	r16
}
    1ff0:	08 95       	ret

00001ff2 <Display_Hz>:
    1ff2:	0f 93       	push	r16
#if defined(WITH_MENU) || defined(WITH_XTAL)
void Display_Hz(unsigned long xx, uint8_t dd) {
 DisplayValue(xx,0,'H',dd);
    1ff4:	04 2f       	mov	r16, r20
    1ff6:	28 e4       	ldi	r18, 0x48	; 72
    1ff8:	40 e0       	ldi	r20, 0x00	; 0
    1ffa:	fd de       	rcall	.-518    	; 0x1df6 <DisplayValue>
    1ffc:	8a e7       	ldi	r24, 0x7A	; 122
 lcd_data('z');
    1ffe:	0c de       	rcall	.-1000   	; 0x1c18 <lcd_data>
    2000:	58 de       	rcall	.-848    	; 0x1cb2 <lcd_space>
    2002:	0f 91       	pop	r16
 lcd_space();
    2004:	08 95       	ret

00002006 <lcd_draw_pin>:
    2006:	e8 2f       	mov	r30, r24
}
    2008:	f0 e0       	ldi	r31, 0x00	; 0
    200a:	ee 0f       	add	r30, r30

void lcd_draw_pin(unsigned char index, char dx, char dy)
{
   const unsigned char *pbmp;

   pbmp = (const unsigned char *)pgm_read_word(&bmp_number[index]);
    200c:	ff 1f       	adc	r31, r31
    200e:	e0 56       	subi	r30, 0x60	; 96
    2010:	fe 4f       	sbci	r31, 0xFE	; 254
    2012:	a5 91       	lpm	r26, Z+
    2014:	b4 91       	lpm	r27, Z
   lcd_pgm_bitmap(pbmp, icon_xx + dx, icon_yy + dy, 0);
    2016:	90 91 00 01 	lds	r25, 0x0100
    201a:	49 0f       	add	r20, r25
    201c:	90 91 05 01 	lds	r25, 0x0105
    2020:	69 0f       	add	r22, r25
    2022:	20 e0       	ldi	r18, 0x00	; 0
    2024:	cd 01       	movw	r24, r26
    2026:	b0 ce       	rjmp	.-672    	; 0x1d88 <lcd_pgm_bitmap>
    2028:	08 95       	ret

0000202a <lcd_draw_trans_pins>:
    202a:	cf 93       	push	r28

//*****************************************************************************
// Draw the transistor pin numbers of transistor _trans to the last icon location
// only the position of the base pin is selectable
void lcd_draw_trans_pins( char dxb, char dyb)
{
    202c:	df 93       	push	r29
    202e:	c8 2f       	mov	r28, r24
    2030:	d6 2f       	mov	r29, r22
//   const unsigned char *pbmp;

   lcd_draw_pin(_trans->e, 30, 24);	// relative to icon position
    2032:	e0 91 36 01 	lds	r30, 0x0136
    2036:	f0 91 37 01 	lds	r31, 0x0137
    203a:	48 e1       	ldi	r20, 0x18	; 24
    203c:	6e e1       	ldi	r22, 0x1E	; 30
    203e:	86 85       	ldd	r24, Z+14	; 0x0e
    2040:	e2 df       	rcall	.-60     	; 0x2006 <lcd_draw_pin>
    2042:	e0 91 36 01 	lds	r30, 0x0136
   lcd_draw_pin(_trans->b, dxb, dyb);	// relative to icon position
    2046:	f0 91 37 01 	lds	r31, 0x0137
    204a:	4d 2f       	mov	r20, r29
    204c:	6c 2f       	mov	r22, r28
    204e:	84 85       	ldd	r24, Z+12	; 0x0c
    2050:	da df       	rcall	.-76     	; 0x2006 <lcd_draw_pin>
    2052:	e0 91 36 01 	lds	r30, 0x0136
   lcd_draw_pin(_trans->c, 30, 0);	// relative to icon position
    2056:	f0 91 37 01 	lds	r31, 0x0137
    205a:	40 e0       	ldi	r20, 0x00	; 0
    205c:	6e e1       	ldi	r22, 0x1E	; 30
    205e:	85 85       	ldd	r24, Z+13	; 0x0d
    2060:	d2 df       	rcall	.-92     	; 0x2006 <lcd_draw_pin>
    2062:	df 91       	pop	r29
    2064:	cf 91       	pop	r28
    2066:	08 95       	ret

00002068 <ShowIcons>:
}
    2068:	1f 93       	push	r17
    206a:	cf 93       	push	r28
    206c:	df 93       	push	r29
 // not enough Flash space for ShowIcons at ATmega328
// Show all Icons on the screen, up to four at one screen
void ShowIcons(void) {
#define ShowTime 15000  /* 15 seconds wait time, or key press, or rotary encoder movement */
 uint8_t cc;
 lcd_clear();
    206e:	9f dc       	rcall	.-1730   	; 0x19ae <lcd_clear>
    2070:	80 ec       	ldi	r24, 0xC0	; 192
 lcd_big_icon(BJT_NPN|LCD_UPPER_LEFT);
    2072:	8d dd       	rcall	.-1254   	; 0x1b8e <lcd_big_icon>
    2074:	62 e0       	ldi	r22, 0x02	; 2
    2076:	86 ea       	ldi	r24, 0xA6	; 166
 lcd_update_icon_opt(bmp_vakdiode, OPT_VREVERSE);
    2078:	91 e0       	ldi	r25, 0x01	; 1
    207a:	b5 dd       	rcall	.-1174   	; 0x1be6 <lcd_update_icon_opt>
    207c:	80 e8       	ldi	r24, 0x80	; 128
    207e:	87 dd       	rcall	.-1266   	; 0x1b8e <lcd_big_icon>
    2080:	8b ed       	ldi	r24, 0xDB	; 219
 lcd_big_icon(BJT_NPN|LCD_UPPER_RIGHT);
    2082:	91 e0       	ldi	r25, 0x01	; 1
    2084:	c6 dd       	rcall	.-1140   	; 0x1c12 <lcd_update_icon>
    2086:	60 e0       	ldi	r22, 0x00	; 0
 lcd_update_icon(bmp_pnp);	// update for PNP
    2088:	85 e0       	ldi	r24, 0x05	; 5
    208a:	5e dc       	rcall	.-1860   	; 0x1948 <lcd_set_cursor>
    208c:	85 e8       	ldi	r24, 0x85	; 133
    208e:	91 e0       	ldi	r25, 0x01	; 1
 lcd_set_cursor(5,0);
    2090:	6c de       	rcall	.-808    	; 0x1d6a <lcd_fix_string>
    2092:	69 e0       	ldi	r22, 0x09	; 9
    2094:	85 e0       	ldi	r24, 0x05	; 5
    2096:	58 dc       	rcall	.-1872   	; 0x1948 <lcd_set_cursor>
 lcd_MEM_string(NPN_str);
    2098:	8d e7       	ldi	r24, 0x7D	; 125
    209a:	91 e0       	ldi	r25, 0x01	; 1
    209c:	66 de       	rcall	.-820    	; 0x1d6a <lcd_fix_string>
    209e:	88 e9       	ldi	r24, 0x98	; 152
 lcd_set_cursor(5,(LCD_LINE_LENGTH / 2));
    20a0:	9a e3       	ldi	r25, 0x3A	; 58
    20a2:	00 d1       	rcall	.+512    	; 0x22a4 <wait_for_key_ms>
    20a4:	84 dc       	rcall	.-1784   	; 0x19ae <lcd_clear>
    20a6:	83 e4       	ldi	r24, 0x43	; 67
 lcd_MEM_string(PNP_str);
    20a8:	72 dd       	rcall	.-1308   	; 0x1b8e <lcd_big_icon>
    20aa:	83 e0       	ldi	r24, 0x03	; 3
    20ac:	70 dd       	rcall	.-1312   	; 0x1b8e <lcd_big_icon>
    20ae:	84 ee       	ldi	r24, 0xE4	; 228
 wait_for_key_ms(ShowTime);
    20b0:	91 e0       	ldi	r25, 0x01	; 1
    20b2:	af dd       	rcall	.-1186   	; 0x1c12 <lcd_update_icon>
    20b4:	61 e0       	ldi	r22, 0x01	; 1
    20b6:	82 e0       	ldi	r24, 0x02	; 2

 lcd_clear();
    20b8:	47 dc       	rcall	.-1906   	; 0x1948 <lcd_set_cursor>
    20ba:	8e e4       	ldi	r24, 0x4E	; 78
 lcd_big_icon(N_JFET|LCD_LOWER_LEFT);
    20bc:	ad dd       	rcall	.-1190   	; 0x1c18 <lcd_data>
    20be:	8d e2       	ldi	r24, 0x2D	; 45
    20c0:	ab dd       	rcall	.-1194   	; 0x1c18 <lcd_data>
 lcd_big_icon(N_JFET|LCD_LOWER_RIGHT);
    20c2:	8f e9       	ldi	r24, 0x9F	; 159
    20c4:	91 e0       	ldi	r25, 0x01	; 1
    20c6:	51 de       	rcall	.-862    	; 0x1d6a <lcd_fix_string>
 lcd_update_icon(bmp_p_jfet);	// update to P_JFET
    20c8:	6a e0       	ldi	r22, 0x0A	; 10
    20ca:	82 e0       	ldi	r24, 0x02	; 2
    20cc:	3d dc       	rcall	.-1926   	; 0x1948 <lcd_set_cursor>
    20ce:	80 e5       	ldi	r24, 0x50	; 80
 lcd_set_cursor(2,1);
    20d0:	a3 dd       	rcall	.-1210   	; 0x1c18 <lcd_data>
    20d2:	8d e2       	ldi	r24, 0x2D	; 45
    20d4:	a1 dd       	rcall	.-1214   	; 0x1c18 <lcd_data>
    20d6:	8f e9       	ldi	r24, 0x9F	; 159
 lcd_data('N');		// N-Type
    20d8:	91 e0       	ldi	r25, 0x01	; 1
    20da:	47 de       	rcall	.-882    	; 0x1d6a <lcd_fix_string>
    20dc:	88 e9       	ldi	r24, 0x98	; 152
 lcd_data('-');
    20de:	9a e3       	ldi	r25, 0x3A	; 58
    20e0:	e1 d0       	rcall	.+450    	; 0x22a4 <wait_for_key_ms>
    20e2:	65 dc       	rcall	.-1846   	; 0x19ae <lcd_clear>
 lcd_MEM_string(jfet_str);
    20e4:	81 ec       	ldi	r24, 0xC1	; 193
    20e6:	53 dd       	rcall	.-1370   	; 0x1b8e <lcd_big_icon>
    20e8:	81 e8       	ldi	r24, 0x81	; 129
    20ea:	51 dd       	rcall	.-1374   	; 0x1b8e <lcd_big_icon>
 lcd_set_cursor(2,1+(LCD_LINE_LENGTH / 2));
    20ec:	8d e3       	ldi	r24, 0x3D	; 61
    20ee:	92 e0       	ldi	r25, 0x02	; 2
    20f0:	90 dd       	rcall	.-1248   	; 0x1c12 <lcd_update_icon>
    20f2:	60 e0       	ldi	r22, 0x00	; 0
 lcd_data('P');		// P-Type
    20f4:	85 e0       	ldi	r24, 0x05	; 5
    20f6:	28 dc       	rcall	.-1968   	; 0x1948 <lcd_set_cursor>
    20f8:	8e e4       	ldi	r24, 0x4E	; 78
 lcd_data('-');
    20fa:	8e dd       	rcall	.-1252   	; 0x1c18 <lcd_data>
    20fc:	8d e2       	ldi	r24, 0x2D	; 45
    20fe:	8c dd       	rcall	.-1256   	; 0x1c18 <lcd_data>
 lcd_MEM_string(jfet_str);
    2100:	85 e4       	ldi	r24, 0x45	; 69
    2102:	8a dd       	rcall	.-1260   	; 0x1c18 <lcd_data>
    2104:	89 e9       	ldi	r24, 0x99	; 153
    2106:	91 e0       	ldi	r25, 0x01	; 1
 wait_for_key_ms(ShowTime);
    2108:	30 de       	rcall	.-928    	; 0x1d6a <lcd_fix_string>
    210a:	69 e0       	ldi	r22, 0x09	; 9
    210c:	86 e0       	ldi	r24, 0x06	; 6
    210e:	1c dc       	rcall	.-1992   	; 0x1948 <lcd_set_cursor>

 lcd_clear();
    2110:	80 e5       	ldi	r24, 0x50	; 80
    2112:	82 dd       	rcall	.-1276   	; 0x1c18 <lcd_data>
 lcd_big_icon(N_E_IGBT|LCD_UPPER_LEFT);
    2114:	8d e2       	ldi	r24, 0x2D	; 45
    2116:	80 dd       	rcall	.-1280   	; 0x1c18 <lcd_data>
    2118:	85 e4       	ldi	r24, 0x45	; 69
 lcd_big_icon(N_E_IGBT|LCD_UPPER_RIGHT);
    211a:	7e dd       	rcall	.-1284   	; 0x1c18 <lcd_data>
    211c:	89 e9       	ldi	r24, 0x99	; 153
    211e:	91 e0       	ldi	r25, 0x01	; 1
 lcd_update_icon(bmp_p_e_igbt);	// update to P-E-IGBT
    2120:	24 de       	rcall	.-952    	; 0x1d6a <lcd_fix_string>
    2122:	88 e9       	ldi	r24, 0x98	; 152
    2124:	9a e3       	ldi	r25, 0x3A	; 58
    2126:	be d0       	rcall	.+380    	; 0x22a4 <wait_for_key_ms>
 lcd_set_cursor(5,0);
    2128:	42 dc       	rcall	.-1916   	; 0x19ae <lcd_clear>
    212a:	81 e4       	ldi	r24, 0x41	; 65
    212c:	30 dd       	rcall	.-1440   	; 0x1b8e <lcd_big_icon>
    212e:	81 e3       	ldi	r24, 0x31	; 49
 lcd_data('N');		// N-Type
    2130:	92 e0       	ldi	r25, 0x02	; 2
    2132:	6f dd       	rcall	.-1314   	; 0x1c12 <lcd_update_icon>
    2134:	81 e0       	ldi	r24, 0x01	; 1
 lcd_data('-');
    2136:	2b dd       	rcall	.-1450   	; 0x1b8e <lcd_big_icon>
    2138:	8d e0       	ldi	r24, 0x0D	; 13
    213a:	92 e0       	ldi	r25, 0x02	; 2
 lcd_data('E');		// Enhancement Type
    213c:	6a dd       	rcall	.-1324   	; 0x1c12 <lcd_update_icon>
    213e:	60 e0       	ldi	r22, 0x00	; 0
    2140:	81 e0       	ldi	r24, 0x01	; 1
 lcd_MEM_string(igbt_str);
    2142:	02 dc       	rcall	.-2044   	; 0x1948 <lcd_set_cursor>
    2144:	8e e4       	ldi	r24, 0x4E	; 78
    2146:	68 dd       	rcall	.-1328   	; 0x1c18 <lcd_data>
    2148:	8d e2       	ldi	r24, 0x2D	; 45
 lcd_set_cursor(6,(LCD_LINE_LENGTH / 2));
    214a:	66 dd       	rcall	.-1332   	; 0x1c18 <lcd_data>
    214c:	84 e4       	ldi	r24, 0x44	; 68
    214e:	64 dd       	rcall	.-1336   	; 0x1c18 <lcd_data>
    2150:	89 e9       	ldi	r24, 0x99	; 153
 lcd_data('P');		// P-Type
    2152:	91 e0       	ldi	r25, 0x01	; 1
    2154:	0a de       	rcall	.-1004   	; 0x1d6a <lcd_fix_string>
    2156:	69 e0       	ldi	r22, 0x09	; 9
 lcd_data('-');
    2158:	82 e0       	ldi	r24, 0x02	; 2
    215a:	f6 db       	rcall	.-2068   	; 0x1948 <lcd_set_cursor>
    215c:	80 e5       	ldi	r24, 0x50	; 80
 lcd_data('E');		// Enhancement Type
    215e:	5c dd       	rcall	.-1352   	; 0x1c18 <lcd_data>
    2160:	8d e2       	ldi	r24, 0x2D	; 45
    2162:	5a dd       	rcall	.-1356   	; 0x1c18 <lcd_data>
 lcd_MEM_string(igbt_str);
    2164:	84 e4       	ldi	r24, 0x44	; 68
    2166:	58 dd       	rcall	.-1360   	; 0x1c18 <lcd_data>
    2168:	89 e9       	ldi	r24, 0x99	; 153
    216a:	91 e0       	ldi	r25, 0x01	; 1
 wait_for_key_ms(ShowTime);
    216c:	fe dd       	rcall	.-1028   	; 0x1d6a <lcd_fix_string>
    216e:	88 e9       	ldi	r24, 0x98	; 152
    2170:	9a e3       	ldi	r25, 0x3A	; 58
    2172:	98 d0       	rcall	.+304    	; 0x22a4 <wait_for_key_ms>

 lcd_clear();
    2174:	1c dc       	rcall	.-1992   	; 0x19ae <lcd_clear>
    2176:	82 ec       	ldi	r24, 0xC2	; 194
 lcd_big_icon(N_E_IGBT|LCD_LOWER_LEFT);
    2178:	0a dd       	rcall	.-1516   	; 0x1b8e <lcd_big_icon>
    217a:	82 e8       	ldi	r24, 0x82	; 130
    217c:	08 dd       	rcall	.-1520   	; 0x1b8e <lcd_big_icon>
 lcd_update_icon(bmp_n_d_igbt);	// update to N-D-IGBT
    217e:	83 e0       	ldi	r24, 0x03	; 3
    2180:	92 e0       	ldi	r25, 0x02	; 2
    2182:	47 dd       	rcall	.-1394   	; 0x1c12 <lcd_update_icon>
    2184:	60 e0       	ldi	r22, 0x00	; 0
 lcd_big_icon(N_E_IGBT|LCD_LOWER_RIGHT);
    2186:	85 e0       	ldi	r24, 0x05	; 5
    2188:	df db       	rcall	.-2114   	; 0x1948 <lcd_set_cursor>
    218a:	8e e4       	ldi	r24, 0x4E	; 78
 lcd_update_icon(bmp_p_d_igbt);	// update to P-D-IGBT
    218c:	45 dd       	rcall	.-1398   	; 0x1c18 <lcd_data>
    218e:	8d e2       	ldi	r24, 0x2D	; 45
    2190:	43 dd       	rcall	.-1402   	; 0x1c18 <lcd_data>
    2192:	85 e4       	ldi	r24, 0x45	; 69
 lcd_set_cursor(1,0);
    2194:	41 dd       	rcall	.-1406   	; 0x1c18 <lcd_data>
    2196:	84 ea       	ldi	r24, 0xA4	; 164
    2198:	91 e0       	ldi	r25, 0x01	; 1
    219a:	e7 dd       	rcall	.-1074   	; 0x1d6a <lcd_fix_string>
 lcd_data('N');		// N-Type
    219c:	69 e0       	ldi	r22, 0x09	; 9
    219e:	86 e0       	ldi	r24, 0x06	; 6
    21a0:	d3 db       	rcall	.-2138   	; 0x1948 <lcd_set_cursor>
 lcd_data('-');
    21a2:	80 e5       	ldi	r24, 0x50	; 80
    21a4:	39 dd       	rcall	.-1422   	; 0x1c18 <lcd_data>
    21a6:	8d e2       	ldi	r24, 0x2D	; 45
 lcd_data('D');		// Depletion Type
    21a8:	37 dd       	rcall	.-1426   	; 0x1c18 <lcd_data>
    21aa:	85 e4       	ldi	r24, 0x45	; 69
    21ac:	35 dd       	rcall	.-1430   	; 0x1c18 <lcd_data>
 lcd_MEM_string(igbt_str);
    21ae:	84 ea       	ldi	r24, 0xA4	; 164
    21b0:	91 e0       	ldi	r25, 0x01	; 1
    21b2:	db dd       	rcall	.-1098   	; 0x1d6a <lcd_fix_string>
    21b4:	88 e9       	ldi	r24, 0x98	; 152
 lcd_set_cursor(2,(LCD_LINE_LENGTH / 2));
    21b6:	9a e3       	ldi	r25, 0x3A	; 58
    21b8:	75 d0       	rcall	.+234    	; 0x22a4 <wait_for_key_ms>
    21ba:	f9 db       	rcall	.-2062   	; 0x19ae <lcd_clear>
    21bc:	82 e4       	ldi	r24, 0x42	; 66
 lcd_data('P');		// P-Type
    21be:	e7 dc       	rcall	.-1586   	; 0x1b8e <lcd_big_icon>
    21c0:	8d ef       	ldi	r24, 0xFD	; 253
    21c2:	91 e0       	ldi	r25, 0x01	; 1
 lcd_data('-');
    21c4:	26 dd       	rcall	.-1460   	; 0x1c12 <lcd_update_icon>
    21c6:	82 e0       	ldi	r24, 0x02	; 2
    21c8:	e2 dc       	rcall	.-1596   	; 0x1b8e <lcd_big_icon>
 lcd_data('D');		// Depletion Type
    21ca:	8b ee       	ldi	r24, 0xEB	; 235
    21cc:	91 e0       	ldi	r25, 0x01	; 1
    21ce:	21 dd       	rcall	.-1470   	; 0x1c12 <lcd_update_icon>
 lcd_MEM_string(igbt_str);
    21d0:	61 e0       	ldi	r22, 0x01	; 1
    21d2:	81 e0       	ldi	r24, 0x01	; 1
    21d4:	b9 db       	rcall	.-2190   	; 0x1948 <lcd_set_cursor>
    21d6:	8e e4       	ldi	r24, 0x4E	; 78
 wait_for_key_ms(ShowTime);
    21d8:	1f dd       	rcall	.-1474   	; 0x1c18 <lcd_data>
    21da:	8d e2       	ldi	r24, 0x2D	; 45
    21dc:	1d dd       	rcall	.-1478   	; 0x1c18 <lcd_data>
    21de:	84 e4       	ldi	r24, 0x44	; 68

 lcd_clear();
    21e0:	1b dd       	rcall	.-1482   	; 0x1c18 <lcd_data>
    21e2:	84 ea       	ldi	r24, 0xA4	; 164
 lcd_big_icon(N_E_MOS|LCD_UPPER_LEFT);
    21e4:	91 e0       	ldi	r25, 0x01	; 1
    21e6:	c1 dd       	rcall	.-1150   	; 0x1d6a <lcd_fix_string>
    21e8:	6a e0       	ldi	r22, 0x0A	; 10
 lcd_big_icon(N_E_MOS|LCD_UPPER_RIGHT);
    21ea:	82 e0       	ldi	r24, 0x02	; 2
    21ec:	ad db       	rcall	.-2214   	; 0x1948 <lcd_set_cursor>
    21ee:	80 e5       	ldi	r24, 0x50	; 80
 lcd_update_icon(bmp_p_e_mos);  // update to P-E-MOS
    21f0:	13 dd       	rcall	.-1498   	; 0x1c18 <lcd_data>
    21f2:	8d e2       	ldi	r24, 0x2D	; 45
    21f4:	11 dd       	rcall	.-1502   	; 0x1c18 <lcd_data>
    21f6:	84 e4       	ldi	r24, 0x44	; 68
 lcd_set_cursor(5,0);
    21f8:	0f dd       	rcall	.-1506   	; 0x1c18 <lcd_data>
    21fa:	84 ea       	ldi	r24, 0xA4	; 164
    21fc:	91 e0       	ldi	r25, 0x01	; 1
    21fe:	b5 dd       	rcall	.-1174   	; 0x1d6a <lcd_fix_string>
 lcd_data('N');		// N-Type
    2200:	88 e9       	ldi	r24, 0x98	; 152
    2202:	9a e3       	ldi	r25, 0x3A	; 58
    2204:	4f d0       	rcall	.+158    	; 0x22a4 <wait_for_key_ms>
 lcd_data('-');
    2206:	d3 db       	rcall	.-2138   	; 0x19ae <lcd_clear>
    2208:	cb db       	rcall	.-2154   	; 0x19a0 <lcd_line1>
    220a:	88 e1       	ldi	r24, 0x18	; 24
 lcd_data('E');		// Enhancement Type
    220c:	91 e0       	ldi	r25, 0x01	; 1
    220e:	ad dd       	rcall	.-1190   	; 0x1d6a <lcd_fix_string>
    2210:	1a dc       	rcall	.-1996   	; 0x1a46 <lcd_line2>
 lcd_MEM_string(mosfet_str);
    2212:	83 e1       	ldi	r24, 0x13	; 19
    2214:	91 e0       	ldi	r25, 0x01	; 1
    2216:	a9 dd       	rcall	.-1198   	; 0x1d6a <lcd_fix_string>
    2218:	1e dc       	rcall	.-1988   	; 0x1a56 <lcd_line3>
 lcd_set_cursor(6,(LCD_LINE_LENGTH / 2));
    221a:	8b e5       	ldi	r24, 0x5B	; 91
    221c:	91 e0       	ldi	r25, 0x01	; 1
    221e:	a5 dd       	rcall	.-1206   	; 0x1d6a <lcd_fix_string>
    2220:	22 dc       	rcall	.-1980   	; 0x1a66 <lcd_line4>
 lcd_data('P');		// P-Type
    2222:	87 e3       	ldi	r24, 0x37	; 55
    2224:	91 e0       	ldi	r25, 0x01	; 1
    2226:	a1 dd       	rcall	.-1214   	; 0x1d6a <lcd_fix_string>
 lcd_data('-');
    2228:	44 dd       	rcall	.-1400   	; 0x1cb2 <lcd_space>
    222a:	83 e3       	ldi	r24, 0x33	; 51
    222c:	91 e0       	ldi	r25, 0x01	; 1
 lcd_data('E');		// Enhancement Type
    222e:	9d dd       	rcall	.-1222   	; 0x1d6a <lcd_fix_string>
    2230:	c0 e0       	ldi	r28, 0x00	; 0
    2232:	12 e1       	ldi	r17, 0x12	; 18
 lcd_MEM_string(mosfet_str);
    2234:	8c 2f       	mov	r24, r28
    2236:	61 2f       	mov	r22, r17
    2238:	0e 94 fc 3c 	call	0x79f8	; 0x79f8 <__udivmodqi4>
 wait_for_key_ms(ShowTime);
    223c:	91 11       	cpse	r25, r1
    223e:	0b c0       	rjmp	.+22     	; 0x2256 <ShowIcons+0x1ee>
    2240:	d8 2f       	mov	r29, r24
    2242:	d3 70       	andi	r29, 0x03	; 3

 lcd_clear();
    2244:	21 f4       	brne	.+8      	; 0x224e <ShowIcons+0x1e6>
    2246:	88 e9       	ldi	r24, 0x98	; 152
 lcd_big_icon(N_E_MOS|LCD_LOWER_LEFT);
    2248:	9a e3       	ldi	r25, 0x3A	; 58
    224a:	2c d0       	rcall	.+88     	; 0x22a4 <wait_for_key_ms>
    224c:	b0 db       	rcall	.-2208   	; 0x19ae <lcd_clear>
 lcd_update_icon(bmp_n_d_mos);  // update to N-D-MOS
    224e:	60 e0       	ldi	r22, 0x00	; 0
    2250:	8d 2f       	mov	r24, r29
    2252:	88 0f       	add	r24, r24
    2254:	79 db       	rcall	.-2318   	; 0x1948 <lcd_set_cursor>
 lcd_big_icon(N_E_MOS|LCD_LOWER_RIGHT);
    2256:	80 e2       	ldi	r24, 0x20	; 32
    2258:	8c 0f       	add	r24, r28
    225a:	de dc       	rcall	.-1604   	; 0x1c18 <lcd_data>
 lcd_update_icon(bmp_p_d_mos);  // update to P-D-MOS
    225c:	cf 5f       	subi	r28, 0xFF	; 255
    225e:	cf 35       	cpi	r28, 0x5F	; 95
    2260:	49 f7       	brne	.-46     	; 0x2234 <ShowIcons+0x1cc>
    2262:	88 e9       	ldi	r24, 0x98	; 152
 lcd_set_cursor(1,1);
    2264:	9a e3       	ldi	r25, 0x3A	; 58
    2266:	1e d0       	rcall	.+60     	; 0x22a4 <wait_for_key_ms>
    2268:	a2 db       	rcall	.-2236   	; 0x19ae <lcd_clear>
    226a:	c0 e0       	ldi	r28, 0x00	; 0
 lcd_data('N');		// N-Type
    226c:	d2 e1       	ldi	r29, 0x12	; 18
    226e:	8c 2f       	mov	r24, r28
    2270:	6d 2f       	mov	r22, r29
 lcd_data('-');
    2272:	0e 94 fc 3c 	call	0x79f8	; 0x79f8 <__udivmodqi4>
    2276:	91 11       	cpse	r25, r1
 lcd_data('D');		// Depletion Type
    2278:	03 c0       	rjmp	.+6      	; 0x2280 <ShowIcons+0x218>
    227a:	60 e0       	ldi	r22, 0x00	; 0
    227c:	88 0f       	add	r24, r24
 lcd_MEM_string(mosfet_str);
    227e:	64 db       	rcall	.-2360   	; 0x1948 <lcd_set_cursor>
    2280:	c8 32       	cpi	r28, 0x28	; 40
    2282:	10 f4       	brcc	.+4      	; 0x2288 <ShowIcons+0x220>
    2284:	80 e8       	ldi	r24, 0x80	; 128
 lcd_set_cursor(2,1+(LCD_LINE_LENGTH / 2));
    2286:	01 c0       	rjmp	.+2      	; 0x228a <ShowIcons+0x222>
    2288:	88 ee       	ldi	r24, 0xE8	; 232
    228a:	8c 0f       	add	r24, r28
    228c:	c5 dc       	rcall	.-1654   	; 0x1c18 <lcd_data>
 lcd_data('P');		// P-Type
    228e:	cf 5f       	subi	r28, 0xFF	; 255
    2290:	cf 32       	cpi	r28, 0x2F	; 47
    2292:	69 f7       	brne	.-38     	; 0x226e <ShowIcons+0x206>
 lcd_data('-');
    2294:	88 e9       	ldi	r24, 0x98	; 152
    2296:	9a e3       	ldi	r25, 0x3A	; 58
    2298:	05 d0       	rcall	.+10     	; 0x22a4 <wait_for_key_ms>
 lcd_data('D');		// Depletion Type
    229a:	89 db       	rcall	.-2286   	; 0x19ae <lcd_clear>
    229c:	df 91       	pop	r29
    229e:	cf 91       	pop	r28
 lcd_MEM_string(mosfet_str);
    22a0:	1f 91       	pop	r17
    22a2:	08 95       	ret

000022a4 <wait_for_key_ms>:
/* wait max_time or previous key press */
/* return value: !=0 == key is pressed for x*10ms, 0 == no key pressed, time has expired */
/* Additionally the movement of rotary encoder is monitored, if */
/* the constant WITH_ROTARY_SWITCH is defined.                  */
/* *********************************************************** */
uint8_t wait_for_key_ms(int max_time) {
    22a4:	ef 92       	push	r14
    22a6:	ff 92       	push	r15
    22a8:	0f 93       	push	r16
    22aa:	1f 93       	push	r17
    22ac:	cf 93       	push	r28
    22ae:	df 93       	push	r29
    22b0:	f8 2e       	mov	r15, r24
    22b2:	e9 2e       	mov	r14, r25
    22b4:	c5 e6       	ldi	r28, 0x65	; 101
        if ((RST_PIN_REG & (1<<RST_PIN)) != 0)  break; // key is released
        WaitRotary();		// wait the predefined time
     }
     if (ww < WWend) break;
#else
     if ((RST_PIN_REG & (1<<RST_PIN)) != 0)  break; // key is released
    22b6:	4f 9b       	sbis	0x09, 7	; 9
    22b8:	05 c0       	rjmp	.+10     	; 0x22c4 <wait_for_key_ms+0x20>
     }
     wdt_reset();
//     wait_time++;
     if (count_time > 0) {		// count only, if counter > 0
        count_time -= 10;		// 10 ms are done, count down
        if (count_time == 0) count_time = -1;	// never count to zero, zero is endless!
    22ba:	cf 2d       	mov	r28, r15
    22bc:	de 2d       	mov	r29, r14
    22be:	15 e5       	ldi	r17, 0x55	; 85
    22c0:	00 e0       	ldi	r16, 0x00	; 0
    22c2:	19 c0       	rjmp	.+50     	; 0x22f6 <wait_for_key_ms+0x52>
        WaitRotary();		// wait the predefined time
     }
     if (ww < WWend) break;
#else
     if ((RST_PIN_REG & (1<<RST_PIN)) != 0)  break; // key is released
     wait_about5ms();		// wait 5 ms (sleep)
    22c4:	81 e0       	ldi	r24, 0x01	; 1
    22c6:	37 d8       	rcall	.-3986   	; 0x1336 <sleep_5ms>
    22c8:	c1 50       	subi	r28, 0x01	; 1
    22ca:	a9 f7       	brne	.-22     	; 0x22b6 <wait_for_key_ms+0x12>
  rotary.state[(rotary.ind+ROT_MSK-2)&ROT_MSK] = ' ' - '0';  // for debugging
 #endif
#endif

  kk = 100;
  while (kk >= 0)  { /* wait up to 500ms until key is released */
    22cc:	f6 cf       	rjmp	.-20     	; 0x22ba <wait_for_key_ms+0x16>
    22ce:	82 e0       	ldi	r24, 0x02	; 2
     for (ww=0; ww < (WWend*2) ;ww++) {
        check_rotary();		// check for change of switch state of the rotary encoder
        WaitRotary();		// wait the predefined time, total 10ms
     }
#else
     wait_about10ms();
    22d0:	32 d8       	rcall	.-3996   	; 0x1336 <sleep_5ms>
    22d2:	11 0f       	add	r17, r17
    22d4:	4f 9b       	sbis	0x09, 7	; 9
#endif
     key_pressed += key_pressed;	// multiply with 2 is shift to left
    22d6:	1f 5f       	subi	r17, 0xFF	; 255
     if ((RST_PIN_REG & (1<<RST_PIN)) == 0) key_pressed++; // append a 1
    22d8:	1f 73       	andi	r17, 0x3F	; 63
    22da:	1f 33       	cpi	r17, 0x3F	; 63
     key_pressed &= 0x3f;
    22dc:	79 f4       	brne	.+30     	; 0x22fc <wait_for_key_ms+0x58>
     if(key_pressed == 0x3f) {
    22de:	01 11       	cpse	r16, r1
    22e0:	03 c0       	rjmp	.+6      	; 0x22e8 <wait_for_key_ms+0x44>
        // If the key is pressed again... 
        if (key_cs == 0) {
    22e2:	cf 2d       	mov	r28, r15
    22e4:	de 2d       	mov	r29, r14
           // first time, when key down is detected
           key_cs = 4;	// must be 7 times for 10ms hold down
           count_time = max_time;	// begin new time period
    22e6:	04 e0       	ldi	r16, 0x04	; 4
    22e8:	0f 5f       	subi	r16, 0xFF	; 255
     key_pressed &= 0x3f;
     if(key_pressed == 0x3f) {
        // If the key is pressed again... 
        if (key_cs == 0) {
           // first time, when key down is detected
           key_cs = 4;	// must be 7 times for 10ms hold down
    22ea:	08 3c       	cpi	r16, 0xC8	; 200
           count_time = max_time;	// begin new time period
        }
        key_cs++;			// count the time, the key is hold down
    22ec:	88 f4       	brcc	.+34     	; 0x2310 <wait_for_key_ms+0x6c>
        if (key_cs >= MAX_CS) break;
    22ee:	a8 95       	wdr
    22f0:	1c 16       	cp	r1, r28
     } else {
        // key_pressed is zero, if the key is not pressed for 80 ms
        if ((key_pressed == 0) && (key_cs != 0)) break;	// return, if key is released again
     }
     wdt_reset();
    22f2:	1d 06       	cpc	r1, r29
//     wait_time++;
     if (count_time > 0) {		// count only, if counter > 0
    22f4:	44 f0       	brlt	.+16     	; 0x2306 <wait_for_key_ms+0x62>
    22f6:	d7 ff       	sbrs	r29, 7
    22f8:	ea cf       	rjmp	.-44     	; 0x22ce <wait_for_key_ms+0x2a>
  key_pressed = 0x55;
  count_time = max_time;
#ifdef WITH_ROTARY_SWITCH
  wait_time = 0;
#endif
  while (count_time >= 0) {
    22fa:	0a c0       	rjmp	.+20     	; 0x2310 <wait_for_key_ms+0x6c>
    22fc:	11 11       	cpse	r17, r1
    22fe:	f7 cf       	rjmp	.-18     	; 0x22ee <wait_for_key_ms+0x4a>
        }
        key_cs++;			// count the time, the key is hold down
        if (key_cs >= MAX_CS) break;
     } else {
        // key_pressed is zero, if the key is not pressed for 80 ms
        if ((key_pressed == 0) && (key_cs != 0)) break;	// return, if key is released again
    2300:	00 23       	and	r16, r16
    2302:	a9 f3       	breq	.-22     	; 0x22ee <wait_for_key_ms+0x4a>
    2304:	05 c0       	rjmp	.+10     	; 0x2310 <wait_for_key_ms+0x6c>
    2306:	2a 97       	sbiw	r28, 0x0a	; 10
    2308:	b1 f7       	brne	.-20     	; 0x22f6 <wait_for_key_ms+0x52>
     }
     wdt_reset();
//     wait_time++;
     if (count_time > 0) {		// count only, if counter > 0
        count_time -= 10;		// 10 ms are done, count down
    230a:	cf ef       	ldi	r28, 0xFF	; 255
        if (count_time == 0) count_time = -1;	// never count to zero, zero is endless!
    230c:	df ef       	ldi	r29, 0xFF	; 255
    230e:	f3 cf       	rjmp	.-26     	; 0x22f6 <wait_for_key_ms+0x52>
    2310:	80 2f       	mov	r24, r16
    2312:	cd b7       	in	r28, 0x3d	; 61
     if ((wait_time > 20) && (rotary.count != 0)) break;
     if (wait_time > 20) wait_time = 0;		// reset time window
#endif
  } /* end while (count_time >= 0) */
 return(key_cs);		// return period key is pressed within the specified time
}  /* end wait_for_key_5ms(  ) */
    2314:	de b7       	in	r29, 0x3e	; 62
    2316:	e6 e0       	ldi	r30, 0x06	; 6
    2318:	0c 94 45 3e 	jmp	0x7c8a	; 0x7c8a <__epilogue_restores__+0x18>

0000231c <wait_for_key_5s_line2>:
    231c:	cf 93       	push	r28
    231e:	22 db       	rcall	.-2492   	; 0x1964 <lcd_save_position>
/* wait 5 seconds or previous key press, then clear last line  of LCD and */
/* set the cursor to the beginning of last line */
/* *********************************************************** */
void wait_for_key_5s_line2(void) {
  uint8_t current_line;
  current_line = lcd_save_position();
    2320:	c8 2f       	mov	r28, r24
    2322:	80 91 38 01 	lds	r24, 0x0138
  if (last_line_used != 0) {
    2326:	88 23       	and	r24, r24
    2328:	d1 f0       	breq	.+52     	; 0x235e <wait_for_key_5s_line2+0x42>
    232a:	81 30       	cpi	r24, 0x01	; 1
  if ((last_line_used == 1) && (current_line == (LCD_LINES-1))) {
    232c:	51 f4       	brne	.+20     	; 0x2342 <wait_for_key_5s_line2+0x26>
    232e:	c3 30       	cpi	r28, 0x03	; 3
    2330:	41 f4       	brne	.+16     	; 0x2342 <wait_for_key_5s_line2+0x26>
    2332:	61 e1       	ldi	r22, 0x11	; 17
     // add a + sign at the last location of screen
     lcd_set_cursor(((LCD_LINES - 1) * PAGES_PER_LINE), (LCD_LINE_LENGTH - 1));
    2334:	86 e0       	ldi	r24, 0x06	; 6
    2336:	08 db       	rcall	.-2544   	; 0x1948 <lcd_set_cursor>
    2338:	8b e2       	ldi	r24, 0x2B	; 43
    233a:	6e dc       	rcall	.-1828   	; 0x1c18 <lcd_data>
     lcd_data('+');
    233c:	61 e1       	ldi	r22, 0x11	; 17
    233e:	86 e0       	ldi	r24, 0x06	; 6
    2340:	03 db       	rcall	.-2554   	; 0x1948 <lcd_set_cursor>
     lcd_set_cursor(((LCD_LINES - 1) * PAGES_PER_LINE), (LCD_LINE_LENGTH - 1));
    2342:	80 e4       	ldi	r24, 0x40	; 64
    2344:	9f e1       	ldi	r25, 0x1F	; 31
    2346:	ae df       	rcall	.-164    	; 0x22a4 <wait_for_key_ms>
    2348:	c3 30       	cpi	r28, 0x03	; 3
  do {
     if (wait_for_key_ms(SHORT_WAIT_TIME) > 0) break;
     // continue waiting, if the key is not pressed, but rotary switch is rotated
  } while (rotary.incre > 0);
 #else
  wait_for_key_ms(SHORT_WAIT_TIME);	// wait until time is elapsed or key is pressed
    234a:	41 f4       	brne	.+16     	; 0x235c <wait_for_key_5s_line2+0x40>
    234c:	80 91 38 01 	lds	r24, 0x0138
    2350:	81 30       	cpi	r24, 0x01	; 1
 #endif
  if ((current_line == (LCD_LINES - 1)) && (last_line_used == 1)) {
    2352:	21 f4       	brne	.+8      	; 0x235c <wait_for_key_5s_line2+0x40>
    2354:	60 e0       	ldi	r22, 0x00	; 0
    2356:	86 e0       	ldi	r24, 0x06	; 6
    2358:	f7 da       	rcall	.-2578   	; 0x1948 <lcd_set_cursor>
    235a:	bf dc       	rcall	.-1666   	; 0x1cda <lcd_clear_line>
    235c:	0c db       	rcall	.-2536   	; 0x1976 <lcd_restore_position>
     lcd_set_cursor((LCD_LINES-1) * PAGES_PER_LINE,0);
    235e:	cf 91       	pop	r28
    2360:	08 95       	ret

00002362 <__vector_7>:
	#define MAIN_C
	#include "Transistortester.h"

	#ifndef INHIBIT_SLEEP_MODE
	  // prepare sleep mode
	  EMPTY_INTERRUPT(TIMER2_COMPA_vect);
    2362:	18 95       	reti

00002364 <__vector_21>:
	#endif
        #if !defined(INHIBIT_SLEEP_MODE) || defined(SamplingADC)
	  // ADC_vect is always required by samplingADC()
	  EMPTY_INTERRUPT(ADC_vect);
    2364:	18 95       	reti

00002366 <search_vak_diode>:
     lcd_clear_line();		// clear the whole line
    2366:	0f 93       	push	r16
    2368:	1f 93       	push	r17
  }
  lcd_restore_position();
    236a:	cf 93       	push	r28
    236c:	df 93       	push	r29
  }  /* end if last_line_used */
}  /* end wait_for_key_5s_line2() */
    236e:	40 91 11 01 	lds	r20, 0x0111
// function search_vak_diode try to find a diode, which has no side connected to the transistor base
// returns 20, if no diode found
uint8_t search_vak_diode() {
    uint8_t ii;
    for (ii=0; ii<NumOfDiodes; ii++) {
			if ((diodes.Anode[ii] == _trans->b)
    2372:	c0 91 36 01 	lds	r28, 0x0136
    2376:	d0 91 37 01 	lds	r29, 0x0137
    237a:	a9 e8       	ldi	r26, 0x89	; 137
    237c:	b1 e0       	ldi	r27, 0x01	; 1

// function search_vak_diode try to find a diode, which has no side connected to the transistor base
// returns 20, if no diode found
uint8_t search_vak_diode() {
    uint8_t ii;
    for (ii=0; ii<NumOfDiodes; ii++) {
    237e:	20 e0       	ldi	r18, 0x00	; 0
    2380:	30 e0       	ldi	r19, 0x00	; 0
    2382:	82 2f       	mov	r24, r18
    2384:	24 17       	cp	r18, r20
    2386:	c0 f4       	brcc	.+48     	; 0x23b8 <search_vak_diode+0x52>
			if ((diodes.Anode[ii] == _trans->b)
    2388:	89 01       	movw	r16, r18
    238a:	5d 91       	ld	r21, X+
    238c:	2f 5f       	subi	r18, 0xFF	; 255
    238e:	3f 4f       	sbci	r19, 0xFF	; 255
    2390:	9c 85       	ldd	r25, Y+12	; 0x0c
    2392:	59 17       	cp	r21, r25
    2394:	b1 f3       	breq	.-20     	; 0x2382 <search_vak_diode+0x1c>
    2396:	b9 01       	movw	r22, r18
    2398:	67 57       	subi	r22, 0x77	; 119
    239a:	7e 4f       	sbci	r23, 0xFE	; 254
					|| (diodes.Cathode[ii] == _trans->b))
    239c:	fb 01       	movw	r30, r22
    239e:	55 81       	ldd	r21, Z+5	; 0x05
    23a0:	59 17       	cp	r21, r25
    23a2:	79 f3       	breq	.-34     	; 0x2382 <search_vak_diode+0x1c>
				continue;
       // no side of the diode is connected to the base, this must be the protection diode   
       if (diodes.Voltage[ii] > 1000) break; // Voltage is too high for protection diode
    23a4:	f8 01       	movw	r30, r16
    23a6:	ee 0f       	add	r30, r30
    23a8:	ff 1f       	adc	r31, r31
    23aa:	eb 56       	subi	r30, 0x6B	; 107
    23ac:	fe 4f       	sbci	r31, 0xFE	; 254
    23ae:	20 81       	ld	r18, Z
    23b0:	31 81       	ldd	r19, Z+1	; 0x01
    23b2:	29 3e       	cpi	r18, 0xE9	; 233
    23b4:	33 40       	sbci	r19, 0x03	; 3
    23b6:	08 f0       	brcs	.+2      	; 0x23ba <search_vak_diode+0x54>
       return ii;
    }
    return 20;
    23b8:	84 e1       	ldi	r24, 0x14	; 20
}
    23ba:	df 91       	pop	r29
    23bc:	cf 91       	pop	r28
    23be:	1f 91       	pop	r17
    23c0:	0f 91       	pop	r16
    23c2:	08 95       	ret

000023c4 <init_parts>:

/* init_parts initialize all parts to nothing found */
void init_parts(void) {
  PartFound = PART_NONE;	// no part found
    23c4:	10 92 13 01 	sts	0x0113, r1
  NumOfDiodes = 0;		// Number of diodes = 0
    23c8:	10 92 11 01 	sts	0x0111, r1
  ptrans.count = 0;		// Number of found P type transistors
    23cc:	10 92 68 01 	sts	0x0168, r1
  ntrans.count = 0;		// Number of found N type transistors
    23d0:	10 92 48 01 	sts	0x0148, r1
  PartMode = PART_MODE_NONE;
    23d4:	10 92 12 01 	sts	0x0112, r1
  WithReference = 0;		// no precision reference voltage
    23d8:	10 92 34 01 	sts	0x0134, r1
  ResistorsFound = 0;		// no resistors found
    23dc:	10 92 6f 01 	sts	0x016F, r1
  ResistorChecked[0] = 0;
    23e0:	e3 e5       	ldi	r30, 0x53	; 83
    23e2:	f1 e0       	ldi	r31, 0x01	; 1
    23e4:	10 82       	st	Z, r1
  ResistorChecked[1] = 0;
    23e6:	11 82       	std	Z+1, r1	; 0x01
  ResistorChecked[2] = 0;
    23e8:	12 82       	std	Z+2, r1	; 0x02
  cap.ca = TP1;
    23ea:	e3 e7       	ldi	r30, 0x73	; 115
    23ec:	f1 e0       	ldi	r31, 0x01	; 1
    23ee:	10 8a       	std	Z+16, r1	; 0x10
  cap.cb = TP3;
    23f0:	82 e0       	ldi	r24, 0x02	; 2
    23f2:	81 8b       	std	Z+17, r24	; 0x11
#if FLASHEND > 0x1fff
  inductor_lpre = 0;		// mark as zero
    23f4:	10 92 19 01 	sts	0x0119, r1
  cap.v_loss = 0;		// set Vloss to zero
    23f8:	17 86       	std	Z+15, r1	; 0x0f
    23fa:	16 86       	std	Z+14, r1	; 0x0e
#endif
  cap.cval_max = 0;		// set max to zero
    23fc:	14 82       	std	Z+4, r1	; 0x04
    23fe:	15 82       	std	Z+5, r1	; 0x05
    2400:	16 82       	std	Z+6, r1	; 0x06
    2402:	17 82       	std	Z+7, r1	; 0x07
  cap.cpre_max = -15;	// set max to fF unit
    2404:	81 ef       	ldi	r24, 0xF1	; 241
    2406:	83 8b       	std	Z+19, r24	; 0x13
    2408:	08 95       	ret

0000240a <switch_tester_off>:
}

void switch_tester_off(void)
{
 #ifdef WITH_UART
  uart_putc('O');	// MAURO
    240a:	8f e4       	ldi	r24, 0x4F	; 79
    240c:	0e 94 62 09 	call	0x12c4	; 0x12c4 <uart_putc>
  uart_putc('F');	// MAURO
    2410:	86 e4       	ldi	r24, 0x46	; 70
    2412:	0e 94 62 09 	call	0x12c4	; 0x12c4 <uart_putc>
  uart_putc('F');	// MAURO
    2416:	86 e4       	ldi	r24, 0x46	; 70
    2418:	0e 94 62 09 	call	0x12c4	; 0x12c4 <uart_putc>
  uart_newline();	// MAURO
    241c:	bc da       	rcall	.-2696   	; 0x1996 <uart_newline>
    241e:	b6 da       	rcall	.-2708   	; 0x198c <lcd_powersave>
 #endif
 #if ((LCD_ST_TYPE == 7565) || (LCD_ST_TYPE == 1306))
  lcd_powersave();			// set graphical display to power save mode
    2420:	5e 98       	cbi	0x0b, 6	; 11
    2422:	0e 94 78 09 	call	0x12f0	; 0x12f0 <wait2s>
 #endif
  ON_PORT &= ~(1<<ON_PIN);		//switch off power
  wait2s();
    2426:	80 e0       	ldi	r24, 0x00	; 0
    2428:	90 e0       	ldi	r25, 0x00	; 0
  wait_for_key_ms(0); //never ending loop 
    242a:	3c cf       	rjmp	.-392    	; 0x22a4 <wait_for_key_ms>
    242c:	08 95       	ret

0000242e <ShortedProbes>:
    242e:	a1 e0       	ldi	r26, 0x01	; 1
    2430:	b0 e0       	ldi	r27, 0x00	; 0
    2432:	ed e1       	ldi	r30, 0x1D	; 29
 *  - 0 if not shorted
 *  - 1 if shorted
 */

uint8_t ShortedProbes(uint8_t Probe1, uint8_t Probe2)
{
    2434:	f2 e1       	ldi	r31, 0x12	; 18
    2436:	0c 94 2b 3e 	jmp	0x7c56	; 0x7c56 <__prologue_saves__+0x1c>
   *  Set up a voltage divider between the two probes:
   *  - Probe1: Rl pull-up
   *  - Probe2: Rl pull-down
   */

  ADC_DDR =  TXD_MSK;		// all-Pins to Input
    243a:	98 e0       	ldi	r25, 0x08	; 8
    243c:	97 b9       	out	0x07, r25	; 7
  ADC_PORT = TXD_VAL;		// all ADC-Ports to GND
    243e:	98 b9       	out	0x08, r25	; 8
  addr = &PinRLRHADCtab[Probe1];
    2440:	e8 2f       	mov	r30, r24
    2442:	f0 e0       	ldi	r31, 0x00	; 0
    2444:	eb 5a       	subi	r30, 0xAB	; 171
    2446:	fd 4f       	sbci	r31, 0xFD	; 253
  pp = pgm_read_byte(addr);
    2448:	94 91       	lpm	r25, Z
  R_PORT = pp;
    244a:	95 b9       	out	0x05, r25	; 5
  addr += (int8_t)(Probe2-Probe1);
    244c:	26 2f       	mov	r18, r22
    244e:	28 1b       	sub	r18, r24
    2450:	e2 0f       	add	r30, r18
    2452:	f1 1d       	adc	r31, r1
    2454:	27 fd       	sbrc	r18, 7
    2456:	fa 95       	dec	r31
  R_DDR =  pp | pgm_read_byte(addr);	// pgm_read_byte(PinRHtab[Probe1]) | pgm_read_byte(PinRLtab[Probe2]);
    2458:	e4 91       	lpm	r30, Z
    245a:	e9 2b       	or	r30, r25
    245c:	e4 b9       	out	0x04, r30	; 4

  /* read voltages */
  U1 = ReadADC(Probe1);
    245e:	69 83       	std	Y+1, r22	; 0x01
    2460:	0e 94 d3 09 	call	0x13a6	; 0x13a6 <ReadADC>
    2464:	8c 01       	movw	r16, r24
  U2 = ReadADC(Probe2);
    2466:	69 81       	ldd	r22, Y+1	; 0x01
    2468:	86 2f       	mov	r24, r22
    246a:	0e 94 d3 09 	call	0x13a6	; 0x13a6 <ReadADC>
    246e:	ac 01       	movw	r20, r24
   */
 #ifndef MAX_UH_DIFF
  #define MAX_UH_DIFF 30
 #endif

  URH = ADCconfig.U_AVCC / 2;
    2470:	20 91 29 01 	lds	r18, 0x0129
    2474:	30 91 2a 01 	lds	r19, 0x012A
    2478:	36 95       	lsr	r19
    247a:	27 95       	ror	r18
  URH -= ((long)U_VCC * (long)(PIN_RP-PIN_RM)) / (4*(unsigned long)(R_L_VAL+PIN_RM));			// differenz of Pin resistance high (22) and low (20)
    247c:	b9 01       	movw	r22, r18
    247e:	63 50       	subi	r22, 0x03	; 3
    2480:	71 09       	sbc	r23, r1
  if (((U1 + MAX_UH_DIFF) > URH ) && (U1 < (URH + MAX_UH_DIFF)))
    2482:	c8 01       	movw	r24, r16
    2484:	4e 96       	adiw	r24, 0x1e	; 30
    2486:	68 17       	cp	r22, r24
    2488:	79 07       	cpc	r23, r25
    248a:	70 f4       	brcc	.+28     	; 0x24a8 <ShortedProbes+0x7a>
    248c:	25 5e       	subi	r18, 0xE5	; 229
    248e:	3f 4f       	sbci	r19, 0xFF	; 255
    2490:	02 17       	cp	r16, r18
    2492:	13 07       	cpc	r17, r19
    2494:	48 f4       	brcc	.+18     	; 0x24a8 <ShortedProbes+0x7a>
  {
    if (((U2 + MAX_UH_DIFF) > URH) && (U2 < (URH + MAX_UH_DIFF)))
    2496:	ca 01       	movw	r24, r20
    2498:	4e 96       	adiw	r24, 0x1e	; 30
    249a:	68 17       	cp	r22, r24
    249c:	79 07       	cpc	r23, r25
    249e:	20 f4       	brcc	.+8      	; 0x24a8 <ShortedProbes+0x7a>
    24a0:	81 e0       	ldi	r24, 0x01	; 1
    24a2:	42 17       	cp	r20, r18
    24a4:	53 07       	cpc	r21, r19
    24a6:	08 f0       	brcs	.+2      	; 0x24aa <ShortedProbes+0x7c>
 *  - 1 if shorted
 */

uint8_t ShortedProbes(uint8_t Probe1, uint8_t Probe2)
{
  uint8_t           Flag1 = 0;      /* return value */
    24a8:	80 e0       	ldi	r24, 0x00	; 0
      Flag1 = 1;
    }
  }

  /* reset port */
  R_DDR = 0;
    24aa:	14 b8       	out	0x04, r1	; 4

  return Flag1;
}
    24ac:	21 96       	adiw	r28, 0x01	; 1
    24ae:	e4 e0       	ldi	r30, 0x04	; 4
    24b0:	0c 94 47 3e 	jmp	0x7c8e	; 0x7c8e <__epilogue_restores__+0x1c>

000024b4 <AllProbesShorted>:
 *  - 0 if no probes are short-circuited
 *  - number of probe pairs short-circuited (3 = all)
 */

uint8_t AllProbesShorted(void)
{
    24b4:	cf 93       	push	r28
  uint8_t           Flag2;      /* return value */

  /* check all possible combinations */
  Flag2 = ShortedProbes(TP1, TP2);
    24b6:	61 e0       	ldi	r22, 0x01	; 1
    24b8:	80 e0       	ldi	r24, 0x00	; 0
    24ba:	b9 df       	rcall	.-142    	; 0x242e <ShortedProbes>
    24bc:	c8 2f       	mov	r28, r24
    24be:	62 e0       	ldi	r22, 0x02	; 2
  Flag2 += ShortedProbes(TP1, TP3);
    24c0:	80 e0       	ldi	r24, 0x00	; 0
    24c2:	b5 df       	rcall	.-150    	; 0x242e <ShortedProbes>
    24c4:	c8 0f       	add	r28, r24
    24c6:	62 e0       	ldi	r22, 0x02	; 2
    24c8:	81 e0       	ldi	r24, 0x01	; 1
  Flag2 += ShortedProbes(TP2, TP3);
    24ca:	b1 df       	rcall	.-158    	; 0x242e <ShortedProbes>
    24cc:	8c 0f       	add	r24, r28
    24ce:	cf 91       	pop	r28
    24d0:	08 95       	ret

000024d2 <AutoCheck>:

  return Flag2;
}
    24d2:	a3 e1       	ldi	r26, 0x13	; 19
    24d4:	b0 e0       	ldi	r27, 0x00	; 0
    24d6:	ef e6       	ldi	r30, 0x6F	; 111
// Selftest of the device and calibration 
#ifdef WITH_SELFTEST
void AutoCheck(uint8_t test_mode) {
    24d8:	f2 e1       	ldi	r31, 0x12	; 18
    24da:	0c 94 1d 3e 	jmp	0x7c3a	; 0x7c3a <__prologue_saves__>
    24de:	b8 2e       	mov	r11, r24
  #ifdef AUTOSCALE_ADC
int8_t udiff;		// difference between ADC Voltage with VCC or Bandgap reference
int8_t udiff2;
  #endif
 #endif
PartFound = PART_NONE;		// no part found before
    24e0:	10 92 13 01 	sts	0x0113, r1
if ((test_mode & 0xf0) == 0) {
    24e4:	80 7f       	andi	r24, 0xF0	; 240
    24e6:	a9 f4       	brne	.+42     	; 0x2512 <AutoCheck+0x40>
  // probed should be shorted already to begin selftest
  if (AllProbesShorted() != 3) return;
    24e8:	e5 df       	rcall	.-54     	; 0x24b4 <AllProbesShorted>
    24ea:	83 30       	cpi	r24, 0x03	; 3
    24ec:	09 f0       	breq	.+2      	; 0x24f0 <AutoCheck+0x1e>
    24ee:	cf c3       	rjmp	.+1950   	; 0x2c8e <AutoCheck+0x7bc>
    24f0:	5e da       	rcall	.-2884   	; 0x19ae <lcd_clear>
  lcd_clear();
    24f2:	86 e7       	ldi	r24, 0x76	; 118
    24f4:	92 e0       	ldi	r25, 0x02	; 2
  lcd_MEM_string(SELFTEST);		// "Selftest mode.."
    24f6:	39 dc       	rcall	.-1934   	; 0x1d6a <lcd_fix_string>
    24f8:	a6 da       	rcall	.-2740   	; 0x1a46 <lcd_line2>
    24fa:	8f e3       	ldi	r24, 0x3F	; 63
    24fc:	8d db       	rcall	.-2278   	; 0x1c18 <lcd_data>
  lcd_line2();
    24fe:	80 ed       	ldi	r24, 0xD0	; 208
    2500:	97 e0       	ldi	r25, 0x07	; 7
  lcd_data('?');			// wait for key pressed for confirmation
    2502:	d0 de       	rcall	.-608    	; 0x22a4 <wait_for_key_ms>
    2504:	8b 30       	cpi	r24, 0x0B	; 11
    2506:	c8 f4       	brcc	.+50     	; 0x253a <AutoCheck+0x68>
  if (wait_for_key_ms(2000) > 10) goto begin_selftest;	// key is pressed again
    2508:	52 da       	rcall	.-2908   	; 0x19ae <lcd_clear>
    250a:	85 e0       	ldi	r24, 0x05	; 5
    250c:	91 e0       	ldi	r25, 0x01	; 1
    250e:	2d dc       	rcall	.-1958   	; 0x1d6a <lcd_fix_string>
    2510:	be c3       	rjmp	.+1916   	; 0x2c8e <AutoCheck+0x7bc>
    2512:	06 e9       	ldi	r16, 0x96	; 150
  if (tt < 150) goto begin_selftest;		// is shorted before time limit
  goto no_zero_resistance;			// skip measuring of the zero resistance
 #endif
}
// no key pressed for 2s
lcd_clear();
    2514:	10 e0       	ldi	r17, 0x00	; 0
    2516:	4b da       	rcall	.-2922   	; 0x19ae <lcd_clear>
lcd_MEM_string(VERSION_str);	//"Version ..."
    2518:	8c ec       	ldi	r24, 0xCC	; 204
    251a:	91 e0       	ldi	r25, 0x01	; 1
    251c:	26 dc       	rcall	.-1972   	; 0x1d6a <lcd_fix_string>
    251e:	ca df       	rcall	.-108    	; 0x24b4 <AllProbesShorted>
return;
    2520:	83 30       	cpi	r24, 0x03	; 3
    2522:	21 f4       	brne	.+8      	; 0x252c <AutoCheck+0x5a>
    2524:	1f 5f       	subi	r17, 0xFF	; 255
 #ifdef WITH_MENU
} else {
  // report to user, that probes should be shorted
  ww = 0;
  for (tt=0;tt<150;tt++) {	/* wait about 30 seconds for shorted probes */
    lcd_clear();
    2526:	14 30       	cpi	r17, 0x04	; 4
    2528:	10 f0       	brcs	.+4      	; 0x252e <AutoCheck+0x5c>
    lcd_MEM2_string(SHORT_PROBES_str);	// message "Short probes!" to LCD
    252a:	07 c0       	rjmp	.+14     	; 0x253a <AutoCheck+0x68>
    252c:	10 e0       	ldi	r17, 0x00	; 0
    252e:	88 e2       	ldi	r24, 0x28	; 40
    2530:	0e 94 9b 09 	call	0x1336	; 0x1336 <sleep_5ms>
    if (AllProbesShorted() == 3) {
    2534:	01 50       	subi	r16, 0x01	; 1
    2536:	79 f7       	brne	.-34     	; 0x2516 <AutoCheck+0x44>
    2538:	60 c0       	rjmp	.+192    	; 0x25fa <AutoCheck+0x128>
       ww++;	// all probes now shorted
    253a:	85 da       	rcall	.-2806   	; 0x1a46 <lcd_line2>
    } else {
       ww = 0;	// connection not stable, retry
    }
    if (ww > 3) break;	// connection seems to be stable
    253c:	0e 94 35 2a 	call	0x546a	; 0x546a <Calibrate_UR>
    2540:	81 ec       	ldi	r24, 0xC1	; 193
    lcd_clear();
    lcd_MEM2_string(SHORT_PROBES_str);	// message "Short probes!" to LCD
    if (AllProbesShorted() == 3) {
       ww++;	// all probes now shorted
    } else {
       ww = 0;	// connection not stable, retry
    2542:	90 e0       	ldi	r25, 0x00	; 0
    }
    if (ww > 3) break;	// connection seems to be stable
    lcd_refresh();		// write the pixels to display, ST7920 only
    wait_about200ms();			// wait 200ms and try again
    2544:	12 dc       	rcall	.-2012   	; 0x1d6a <lcd_fix_string>
    2546:	60 e0       	ldi	r22, 0x00	; 0
    2548:	8b e4       	ldi	r24, 0x4B	; 75
    254a:	93 e0       	ldi	r25, 0x03	; 3
  if (wait_for_key_ms(2000) > 10) goto begin_selftest;	// key is pressed again
 #ifdef WITH_MENU
} else {
  // report to user, that probes should be shorted
  ww = 0;
  for (tt=0;tt<150;tt++) {	/* wait about 30 seconds for shorted probes */
    254c:	0e 94 bd 3e 	call	0x7d7a	; 0x7d7a <eeprom_write_byte>
lcd_clear();
lcd_MEM_string(VERSION_str);	//"Version ..."
return;

begin_selftest:
lcd_line2();
    2550:	60 e0       	ldi	r22, 0x00	; 0
    2552:	8c e4       	ldi	r24, 0x4C	; 76
Calibrate_UR();		// get Reference voltage, Pin resistance
    2554:	93 e0       	ldi	r25, 0x03	; 3
    2556:	0e 94 bd 3e 	call	0x7d7a	; 0x7d7a <eeprom_write_byte>
lcd_MEM2_string(R0_str);		// "R0="
    255a:	60 e0       	ldi	r22, 0x00	; 0
    255c:	8a e4       	ldi	r24, 0x4A	; 74
    255e:	93 e0       	ldi	r25, 0x03	; 3
eeprom_write_byte((uint8_t *)(&EE_ESR_ZEROtab[2]), (uint8_t)0);	// clear zero offset
    2560:	0e 94 bd 3e 	call	0x7d7a	; 0x7d7a <eeprom_write_byte>
    2564:	60 e0       	ldi	r22, 0x00	; 0
    2566:	82 e0       	ldi	r24, 0x02	; 2
    2568:	4b d8       	rcall	.-3946   	; 0x1600 <GetESR>
eeprom_write_byte((uint8_t *)(&EE_ESR_ZEROtab[3]), (uint8_t)0);	// clear zero offset
    256a:	6c 01       	movw	r12, r24
    256c:	9a 83       	std	Y+2, r25	; 0x02
    256e:	89 83       	std	Y+1, r24	; 0x01
    2570:	61 e0       	ldi	r22, 0x01	; 1
    2572:	82 e0       	ldi	r24, 0x02	; 2
eeprom_write_byte((uint8_t *)(&EE_ESR_ZEROtab[1]), (uint8_t)0);	// clear zero offset
    2574:	45 d8       	rcall	.-3958   	; 0x1600 <GetESR>
    2576:	7c 01       	movw	r14, r24
    2578:	9c 83       	std	Y+4, r25	; 0x04
    257a:	8b 83       	std	Y+3, r24	; 0x03
    257c:	60 e0       	ldi	r22, 0x00	; 0

adcmv[0] = GetESR(TP3, TP1);
    257e:	81 e0       	ldi	r24, 0x01	; 1
    2580:	3f d8       	rcall	.-3970   	; 0x1600 <GetESR>
    2582:	8c 01       	movw	r16, r24
    2584:	9e 83       	std	Y+6, r25	; 0x06
    2586:	8d 83       	std	Y+5, r24	; 0x05
    2588:	23 e0       	ldi	r18, 0x03	; 3
    258a:	40 e2       	ldi	r20, 0x20	; 32
adcmv[1] = GetESR(TP3, TP2);
    258c:	6e ef       	ldi	r22, 0xFE	; 254
    258e:	c6 01       	movw	r24, r12
    2590:	1b dd       	rcall	.-1482   	; 0x1fc8 <DisplayValue16>
    2592:	23 e0       	ldi	r18, 0x03	; 3
    2594:	40 e2       	ldi	r20, 0x20	; 32
    2596:	6e ef       	ldi	r22, 0xFE	; 254
    2598:	c7 01       	movw	r24, r14
adcmv[2] = GetESR(TP2, TP1);
    259a:	16 dd       	rcall	.-1492   	; 0x1fc8 <DisplayValue16>
    259c:	23 e0       	ldi	r18, 0x03	; 3
    259e:	44 e0       	ldi	r20, 0x04	; 4
    25a0:	6e ef       	ldi	r22, 0xFE	; 254
    25a2:	c8 01       	movw	r24, r16
    25a4:	11 dd       	rcall	.-1502   	; 0x1fc8 <DisplayValue16>
    25a6:	2a e5       	ldi	r18, 0x5A	; 90
DisplayValue16(adcmv[0],-2,' ',3);
    25a8:	c2 16       	cp	r12, r18
    25aa:	d1 04       	cpc	r13, r1
    25ac:	24 f0       	brlt	.+8      	; 0x25b6 <AutoCheck+0xe4>
    25ae:	84 e1       	ldi	r24, 0x14	; 20
    25b0:	90 e0       	ldi	r25, 0x00	; 0
    25b2:	9a 83       	std	Y+2, r25	; 0x02
DisplayValue16(adcmv[1],-2,' ',3);
    25b4:	89 83       	std	Y+1, r24	; 0x01
    25b6:	69 81       	ldd	r22, Y+1	; 0x01
    25b8:	8b e4       	ldi	r24, 0x4B	; 75
    25ba:	93 e0       	ldi	r25, 0x03	; 3
    25bc:	0e 94 bd 3e 	call	0x7d7a	; 0x7d7a <eeprom_write_byte>
DisplayValue16(adcmv[2],-2,LCD_CHAR_OMEGA,3);
    25c0:	8a e5       	ldi	r24, 0x5A	; 90
    25c2:	e8 16       	cp	r14, r24
    25c4:	f1 04       	cpc	r15, r1
    25c6:	24 f0       	brlt	.+8      	; 0x25d0 <AutoCheck+0xfe>
    25c8:	84 e1       	ldi	r24, 0x14	; 20
    25ca:	90 e0       	ldi	r25, 0x00	; 0
if (adcmv[0] >= 90) {
    25cc:	9c 83       	std	Y+4, r25	; 0x04
    25ce:	8b 83       	std	Y+3, r24	; 0x03
    25d0:	6b 81       	ldd	r22, Y+3	; 0x03
    25d2:	8c e4       	ldi	r24, 0x4C	; 76
  adcmv[0] = ESR_ZERO;	// set back to default value
    25d4:	93 e0       	ldi	r25, 0x03	; 3
    25d6:	0e 94 bd 3e 	call	0x7d7a	; 0x7d7a <eeprom_write_byte>
    25da:	0a 35       	cpi	r16, 0x5A	; 90
}
eeprom_write_byte((uint8_t *)(&EE_ESR_ZEROtab[2]), (uint8_t)adcmv[0]);	// fix zero offset
    25dc:	11 05       	cpc	r17, r1
    25de:	24 f0       	brlt	.+8      	; 0x25e8 <AutoCheck+0x116>
    25e0:	84 e1       	ldi	r24, 0x14	; 20
    25e2:	90 e0       	ldi	r25, 0x00	; 0
    25e4:	9e 83       	std	Y+6, r25	; 0x06
if (adcmv[1] >= 90) {
    25e6:	8d 83       	std	Y+5, r24	; 0x05
    25e8:	6d 81       	ldd	r22, Y+5	; 0x05
    25ea:	8a e4       	ldi	r24, 0x4A	; 74
    25ec:	93 e0       	ldi	r25, 0x03	; 3
  adcmv[1] = ESR_ZERO;	// set back to default value
    25ee:	0e 94 bd 3e 	call	0x7d7a	; 0x7d7a <eeprom_write_byte>
    25f2:	82 e0       	ldi	r24, 0x02	; 2
    25f4:	80 93 38 01 	sts	0x0138, r24
}
eeprom_write_byte((uint8_t *)(&EE_ESR_ZEROtab[3]), (uint8_t)adcmv[1]);	// fix zero offset
    25f8:	91 de       	rcall	.-734    	; 0x231c <wait_for_key_5s_line2>
    25fa:	eb 2d       	mov	r30, r11
    25fc:	ef 70       	andi	r30, 0x0F	; 15
    25fe:	ef 87       	std	Y+15, r30	; 0x0f
if (adcmv[2] >= 90) {
    2600:	e1 30       	cpi	r30, 0x01	; 1
    2602:	11 f0       	breq	.+4      	; 0x2608 <AutoCheck+0x136>
    2604:	18 e7       	ldi	r17, 0x78	; 120
  adcmv[2] = ESR_ZERO;	// set back to default value
    2606:	84 c1       	rjmp	.+776    	; 0x2910 <AutoCheck+0x43e>
    2608:	01 e0       	ldi	r16, 0x01	; 1
    260a:	10 e0       	ldi	r17, 0x00	; 0
    260c:	68 eb       	ldi	r22, 0xB8	; 184
}
eeprom_write_byte((uint8_t *)(&EE_ESR_ZEROtab[1]), (uint8_t)adcmv[2]);	// fix zero offset
    260e:	86 2e       	mov	r8, r22
    2610:	62 ed       	ldi	r22, 0xD2	; 210
    2612:	96 2e       	mov	r9, r22
    2614:	67 e4       	ldi	r22, 0x47	; 71
    2616:	a6 2e       	mov	r10, r22
last_line_used = 2;
    2618:	b1 2c       	mov	r11, r1
    261a:	72 e0       	ldi	r23, 0x02	; 2
    261c:	e7 2e       	mov	r14, r23
wait_for_key_5s_line2();		// wait up to 5 seconds and clear line 2
    261e:	e8 e0       	ldi	r30, 0x08	; 8
    2620:	fe 2e       	mov	r15, r30
 #ifdef WITH_MENU
no_zero_resistance:
 #endif
 #ifdef EXTENDED_TESTS
#define TEST_COUNT 8
if((test_mode & 0x0f) == 1) {  /* full test requested */
    2622:	fc e0       	ldi	r31, 0x0C	; 12
    2624:	2f 2e       	mov	r2, r31
    2626:	a4 ec       	ldi	r26, 0xC4	; 196
    2628:	4a 2e       	mov	r4, r26
    262a:	a6 e3       	ldi	r26, 0x36	; 54
    262c:	5a 2e       	mov	r5, r26
    262e:	61 2c       	mov	r6, r1
    2630:	71 2c       	mov	r7, r1
    2632:	c1 2c       	mov	r12, r1
      R_PORT = 1<<PIN_RH3;
      adcmv[2] = W20msReadADC(TP3) - ADCconfig.U_AVCC;
      lcd_MEM_string(RH1H_str);	// "RH_Hi="
   }
   if (tt == 7) { // is the voltage of all R_H / R_L dividers correct?
      u680 = ((long)ADCconfig.U_AVCC * (PIN_RM + R_L_VAL) / (PIN_RM + R_L_VAL + (unsigned long)R_H_VAL*100));
    2634:	30 2e       	mov	r3, r16
    2636:	50 e2       	ldi	r21, 0x20	; 32
    2638:	d5 2e       	mov	r13, r21
    263a:	85 db       	rcall	.-2294   	; 0x1d46 <lcd_clear_line2>
    263c:	80 db       	rcall	.-2304   	; 0x1d3e <lcd_clear_line1>
    263e:	84 e5       	ldi	r24, 0x54	; 84
    2640:	eb da       	rcall	.-2602   	; 0x1c18 <lcd_data>
      R_PORT = 1<<PIN_RH1;		//RH1 to VCC
    2642:	c8 01       	movw	r24, r16
    2644:	0e 94 77 08 	call	0x10ee	; 0x10ee <u2lcd>
      R_DDR = (1<<PIN_RH1) | (1<<PIN_RL1);	//RH1 to +, RL1 to -
      adcmv[0] = W20msReadADC(TP1);
      adcmv[0] -= u680;
      R_PORT = 1<<PIN_RH2;		//RH2 to VCC
    2648:	34 db       	rcall	.-2456   	; 0x1cb2 <lcd_space>
      R_DDR = (1<<PIN_RH2) | (1<<PIN_RL2);	//RH2 to +, RL2 to -
    264a:	01 30       	cpi	r16, 0x01	; 1
    264c:	11 05       	cpc	r17, r1
      u2lcd(RHmultip);	//lcd_string(utoa(RHmultip, outval, 10));
      ADCconfig.Samples = R_ANZ_MESS;	// set number of ADC reads near to maximum
   }
				//############################################
   if (tt == 2) { // how equal are the RL resistors? 
      u680 = ((long)ADCconfig.U_AVCC * (PIN_RM + R_L_VAL) / (PIN_RM + R_L_VAL + R_L_VAL + PIN_RP));
    264e:	b9 f4       	brne	.+46     	; 0x267e <AutoCheck+0x1ac>
    2650:	84 ef       	ldi	r24, 0xF4	; 244
    2652:	90 e0       	ldi	r25, 0x00	; 0
    2654:	8a db       	rcall	.-2284   	; 0x1d6a <lcd_fix_string>
    2656:	64 e0       	ldi	r22, 0x04	; 4
    2658:	80 91 2d 01 	lds	r24, 0x012D
    lcd_clear();
    lcd_MEM2_string(SHORT_PROBES_str);	// message "Short probes!" to LCD
    if (AllProbesShorted() == 3) {
       ww++;	// all probes now shorted
    } else {
       ww = 0;	// connection not stable, retry
    265c:	90 91 2e 01 	lds	r25, 0x012E
      adcmv[0] -= u680;
      R_PORT = 1<<PIN_RH2;		//RH2 to VCC
      R_DDR = (1<<PIN_RH2) | (1<<PIN_RL2);	//RH2 to +, RL2 to -
      adcmv[1] = W20msReadADC(TP2);
      adcmv[1] -= u680;
      R_PORT = 1<<PIN_RH3;		//RH3 to VCC
    2660:	be dc       	rcall	.-1668   	; 0x1fde <Display_mV>
#define TEST_COUNT 8
if((test_mode & 0x0f) == 1) {  /* full test requested */

for(tt=1;tt<TEST_COUNT;tt++) {		// loop for all Tests
for(ww=0;ww<MAX_REP;ww++) {	// repeat the test MAX_REP times
   lcd_clear_line2();		// clear total line 2
    2662:	f1 d9       	rcall	.-3102   	; 0x1a46 <lcd_line2>
    2664:	8f ee       	ldi	r24, 0xEF	; 239
   lcd_clear_line1();		// clear total line 1
    2666:	90 e0       	ldi	r25, 0x00	; 0
    2668:	80 db       	rcall	.-2304   	; 0x1d6a <lcd_fix_string>
   lcd_data('T');			//output the Testmode "T"
    266a:	80 91 71 01 	lds	r24, 0x0171
    266e:	90 91 72 01 	lds	r25, 0x0172
   u2lcd(tt);		//lcd_string(utoa(tt, outval, 10));	//output Test number
    2672:	0e 94 77 08 	call	0x10ee	; 0x10ee <u2lcd>
   lcd_space();
    2676:	8e eb       	ldi	r24, 0xBE	; 190
    2678:	80 93 25 01 	sts	0x0125, r24
				//############################################
   if (tt == 1) {   // output of reference voltage and factors for capacity measurement
    267c:	78 c0       	rjmp	.+240    	; 0x276e <AutoCheck+0x29c>
    267e:	f2 e0       	ldi	r31, 0x02	; 2
      lcd_MEM2_string(URef_str);	//"URef="
    2680:	3f 12       	cpse	r3, r31
    2682:	45 c0       	rjmp	.+138    	; 0x270e <AutoCheck+0x23c>
    2684:	20 91 29 01 	lds	r18, 0x0129
      Display_mV(ref_mv,4);
    2688:	30 91 2a 01 	lds	r19, 0x012A
    268c:	a8 e5       	ldi	r26, 0x58	; 88
    268e:	bb e1       	ldi	r27, 0x1B	; 27
    2690:	0e 94 73 3d 	call	0x7ae6	; 0x7ae6 <__umulhisi3>
    2694:	a3 01       	movw	r20, r6
      lcd_line2();			//Cursor to column 1, row 2
    2696:	92 01       	movw	r18, r4
    2698:	0e 94 51 3d 	call	0x7aa2	; 0x7aa2 <__divmodsi4>
      lcd_MEM2_string(RHfakt_str);	//"RHf="
    269c:	81 e0       	ldi	r24, 0x01	; 1
    269e:	85 b9       	out	0x05, r24	; 5
    26a0:	85 e0       	ldi	r24, 0x05	; 5
      u2lcd(RHmultip);	//lcd_string(utoa(RHmultip, outval, 10));
    26a2:	84 b9       	out	0x04, r24	; 4
    26a4:	80 e0       	ldi	r24, 0x00	; 0
    26a6:	28 8b       	std	Y+16, r18	; 0x10
    26a8:	39 8b       	std	Y+17, r19	; 0x11
    26aa:	4a 8b       	std	Y+18, r20	; 0x12
    26ac:	5b 8b       	std	Y+19, r21	; 0x13
      ADCconfig.Samples = R_ANZ_MESS;	// set number of ADC reads near to maximum
    26ae:	0e 94 c7 09 	call	0x138e	; 0x138e <W20msReadADC>
    26b2:	28 89       	ldd	r18, Y+16	; 0x10
    26b4:	39 89       	ldd	r19, Y+17	; 0x11
   }
				//############################################
   if (tt == 2) { // how equal are the RL resistors? 
    26b6:	4a 89       	ldd	r20, Y+18	; 0x12
    26b8:	5b 89       	ldd	r21, Y+19	; 0x13
    26ba:	82 1b       	sub	r24, r18
      u680 = ((long)ADCconfig.U_AVCC * (PIN_RM + R_L_VAL) / (PIN_RM + R_L_VAL + R_L_VAL + PIN_RP));
    26bc:	93 0b       	sbc	r25, r19
    26be:	9a 83       	std	Y+2, r25	; 0x02
    26c0:	89 83       	std	Y+1, r24	; 0x01
    26c2:	81 e1       	ldi	r24, 0x11	; 17
    26c4:	84 b9       	out	0x04, r24	; 4
    26c6:	80 e0       	ldi	r24, 0x00	; 0
    26c8:	28 8b       	std	Y+16, r18	; 0x10
    26ca:	39 8b       	std	Y+17, r19	; 0x11
    26cc:	4a 8b       	std	Y+18, r20	; 0x12
    26ce:	5b 8b       	std	Y+19, r21	; 0x13
    26d0:	0e 94 c7 09 	call	0x138e	; 0x138e <W20msReadADC>
      R_PORT = 1<<PIN_RL1;		//RL1 to VCC
    26d4:	28 89       	ldd	r18, Y+16	; 0x10
    26d6:	39 89       	ldd	r19, Y+17	; 0x11
      R_DDR = (1<<PIN_RL1) | (1<<PIN_RL2);	//RL2 to -
    26d8:	4a 89       	ldd	r20, Y+18	; 0x12
    26da:	5b 89       	ldd	r21, Y+19	; 0x13
      adcmv[0] = W20msReadADC(TP1);
    26dc:	82 1b       	sub	r24, r18
    26de:	93 0b       	sbc	r25, r19
    26e0:	9c 83       	std	Y+4, r25	; 0x04
    26e2:	8b 83       	std	Y+3, r24	; 0x03
    26e4:	84 e0       	ldi	r24, 0x04	; 4
    26e6:	85 b9       	out	0x05, r24	; 5
    26e8:	84 e1       	ldi	r24, 0x14	; 20
      adcmv[0] -= u680;
    26ea:	84 b9       	out	0x04, r24	; 4
    26ec:	81 e0       	ldi	r24, 0x01	; 1
    26ee:	28 8b       	std	Y+16, r18	; 0x10
    26f0:	39 8b       	std	Y+17, r19	; 0x11
    26f2:	4a 8b       	std	Y+18, r20	; 0x12
    26f4:	5b 8b       	std	Y+19, r21	; 0x13
    26f6:	0e 94 c7 09 	call	0x138e	; 0x138e <W20msReadADC>
      R_DDR = (1<<PIN_RL1) | (1<<PIN_RL3);	//RL3 to -
    26fa:	28 89       	ldd	r18, Y+16	; 0x10
    26fc:	39 89       	ldd	r19, Y+17	; 0x11
      adcmv[1] = W20msReadADC(TP1);
    26fe:	82 1b       	sub	r24, r18
    2700:	93 0b       	sbc	r25, r19
    2702:	9e 83       	std	Y+6, r25	; 0x06
    2704:	8d 83       	std	Y+5, r24	; 0x05
    2706:	89 ed       	ldi	r24, 0xD9	; 217
    2708:	90 e0       	ldi	r25, 0x00	; 0
    270a:	2f db       	rcall	.-2466   	; 0x1d6a <lcd_fix_string>
      adcmv[1] -= u680;
    270c:	3d c0       	rjmp	.+122    	; 0x2788 <AutoCheck+0x2b6>
    270e:	e3 e0       	ldi	r30, 0x03	; 3
    2710:	3e 12       	cpse	r3, r30
    2712:	2d c0       	rjmp	.+90     	; 0x276e <AutoCheck+0x29c>
    2714:	e5 b8       	out	0x05, r14	; 5
    2716:	fa e0       	ldi	r31, 0x0A	; 10
    2718:	f4 b9       	out	0x04, r31	; 4
    271a:	80 e0       	ldi	r24, 0x00	; 0
      R_PORT = 1<<PIN_RL2;		//RL2 to VCC
    271c:	0e 94 c7 09 	call	0x138e	; 0x138e <W20msReadADC>
      R_DDR = (1<<PIN_RL2) | (1<<PIN_RL3);	//RL3 to -
    2720:	20 91 29 01 	lds	r18, 0x0129
      adcmv[2] = W20msReadADC(TP2);
    2724:	30 91 2a 01 	lds	r19, 0x012A
    2728:	36 95       	lsr	r19
    272a:	27 95       	ror	r18
    272c:	38 87       	std	Y+8, r19	; 0x08
    272e:	2f 83       	std	Y+7, r18	; 0x07
    2730:	82 1b       	sub	r24, r18
      adcmv[2] -= u680;
    2732:	93 0b       	sbc	r25, r19
    2734:	9a 83       	std	Y+2, r25	; 0x02
    2736:	89 83       	std	Y+1, r24	; 0x01
    2738:	22 e2       	ldi	r18, 0x22	; 34
    273a:	24 b9       	out	0x04, r18	; 4
    273c:	80 e0       	ldi	r24, 0x00	; 0
      lcd_MEM_string(RLRL_str);	// "RLRL"
    273e:	0e 94 c7 09 	call	0x138e	; 0x138e <W20msReadADC>
    2742:	2f 81       	ldd	r18, Y+7	; 0x07
    2744:	38 85       	ldd	r19, Y+8	; 0x08
    2746:	82 1b       	sub	r24, r18
   }
				//############################################
   if (tt == 3) { // how equal are the RH resistors
    2748:	93 0b       	sbc	r25, r19
    274a:	9c 83       	std	Y+4, r25	; 0x04
    274c:	8b 83       	std	Y+3, r24	; 0x03
      R_PORT = 1<<PIN_RH1;		//RH1 to VCC
    274e:	f5 b8       	out	0x05, r15	; 5
      R_DDR = (1<<PIN_RH1) | (1<<PIN_RH2);	//RH2 to -
    2750:	88 e2       	ldi	r24, 0x28	; 40
    2752:	84 b9       	out	0x04, r24	; 4
      adcmv[0] = W20msReadADC(TP1);
    2754:	81 e0       	ldi	r24, 0x01	; 1
    2756:	0e 94 c7 09 	call	0x138e	; 0x138e <W20msReadADC>
      adcmv[3] = ADCconfig.U_AVCC / 2;
    275a:	2f 81       	ldd	r18, Y+7	; 0x07
    275c:	38 85       	ldd	r19, Y+8	; 0x08
    275e:	82 1b       	sub	r24, r18
    2760:	93 0b       	sbc	r25, r19
    2762:	9e 83       	std	Y+6, r25	; 0x06
    2764:	8d 83       	std	Y+5, r24	; 0x05
    2766:	8b ec       	ldi	r24, 0xCB	; 203
    2768:	90 e0       	ldi	r25, 0x00	; 0
      adcmv[0] -= adcmv[3];
    276a:	ff da       	rcall	.-2562   	; 0x1d6a <lcd_fix_string>
    276c:	27 c0       	rjmp	.+78     	; 0x27bc <AutoCheck+0x2ea>
    276e:	04 30       	cpi	r16, 0x04	; 4
    2770:	11 05       	cpc	r17, r1
      R_DDR = (1<<PIN_RH1) | (1<<PIN_RH3);	//RH3 to -
    2772:	51 f4       	brne	.+20     	; 0x2788 <AutoCheck+0x2b6>
    2774:	8c e6       	ldi	r24, 0x6C	; 108
      adcmv[1] = W20msReadADC(TP1);
    2776:	92 e0       	ldi	r25, 0x02	; 2
    2778:	f8 da       	rcall	.-2576   	; 0x1d6a <lcd_fix_string>
    277a:	9c de       	rcall	.-712    	; 0x24b4 <AllProbesShorted>
      adcmv[1] -= adcmv[3];
    277c:	88 23       	and	r24, r24
    277e:	09 f4       	brne	.+2      	; 0x2782 <AutoCheck+0x2b0>
    2780:	4a c0       	rjmp	.+148    	; 0x2816 <AutoCheck+0x344>
    2782:	b2 e0       	ldi	r27, 0x02	; 2
    2784:	cb 2e       	mov	r12, r27
    2786:	47 c0       	rjmp	.+142    	; 0x2816 <AutoCheck+0x344>
      R_PORT = 1<<PIN_RH2;		//RH2 to VCC
    2788:	05 30       	cpi	r16, 0x05	; 5
      R_DDR = (1<<PIN_RH2) | (1<<PIN_RH3);	//RH3 to -
    278a:	11 05       	cpc	r17, r1
    278c:	b9 f4       	brne	.+46     	; 0x27bc <AutoCheck+0x2ea>
      adcmv[2] = W20msReadADC(TP2);
    278e:	15 b8       	out	0x05, r1	; 5
    2790:	e4 b8       	out	0x04, r14	; 4
    2792:	80 e0       	ldi	r24, 0x00	; 0
      adcmv[2] -= adcmv[3];
    2794:	0e 94 c7 09 	call	0x138e	; 0x138e <W20msReadADC>
    2798:	9a 83       	std	Y+2, r25	; 0x02
    279a:	89 83       	std	Y+1, r24	; 0x01
    279c:	f4 b8       	out	0x04, r15	; 4
    279e:	81 e0       	ldi	r24, 0x01	; 1
      lcd_MEM_string(RHRH_str);	// "RHRH"
    27a0:	0e 94 c7 09 	call	0x138e	; 0x138e <W20msReadADC>
    27a4:	9c 83       	std	Y+4, r25	; 0x04
    27a6:	8b 83       	std	Y+3, r24	; 0x03
    27a8:	d4 b8       	out	0x04, r13	; 4
   }
				//############################################
   if (tt == 4) { // Text release probes
    27aa:	82 e0       	ldi	r24, 0x02	; 2
    27ac:	0e 94 c7 09 	call	0x138e	; 0x138e <W20msReadADC>
      lcd_MEM_string(RELPROBE);	// "Release Probes"
    27b0:	9e 83       	std	Y+6, r25	; 0x06
    27b2:	8d 83       	std	Y+5, r24	; 0x05
    27b4:	8b ee       	ldi	r24, 0xEB	; 235
    27b6:	90 e0       	ldi	r25, 0x00	; 0
      if (AllProbesShorted() != 0) ww = MAX_REP-2;
    27b8:	d8 da       	rcall	.-2640   	; 0x1d6a <lcd_fix_string>
    27ba:	74 c0       	rjmp	.+232    	; 0x28a4 <AutoCheck+0x3d2>
    27bc:	06 30       	cpi	r16, 0x06	; 6
    27be:	11 05       	cpc	r17, r1
    27c0:	51 f5       	brne	.+84     	; 0x2816 <AutoCheck+0x344>
    27c2:	e4 b8       	out	0x04, r14	; 4
    27c4:	e5 b8       	out	0x05, r14	; 5
    27c6:	80 e0       	ldi	r24, 0x00	; 0
   }
				//############################################
   if (tt == 5) { // can we switch the ADC pins to GND across R_H resistor?
    27c8:	0e 94 c7 09 	call	0x138e	; 0x138e <W20msReadADC>
    27cc:	20 91 29 01 	lds	r18, 0x0129
      R_PORT = 0;
      R_DDR = 1<<PIN_RH1;		//Pin 1 over R_H to GND
    27d0:	30 91 2a 01 	lds	r19, 0x012A
      adcmv[0] = W20msReadADC(TP1);
    27d4:	82 1b       	sub	r24, r18
    27d6:	93 0b       	sbc	r25, r19
    27d8:	9a 83       	std	Y+2, r25	; 0x02
    27da:	89 83       	std	Y+1, r24	; 0x01

      R_DDR = 1<<PIN_RH2;		//Pin 2 over R_H to GND
    27dc:	f4 b8       	out	0x04, r15	; 4
      adcmv[1] = W20msReadADC(TP2);
    27de:	f5 b8       	out	0x05, r15	; 5
    27e0:	81 e0       	ldi	r24, 0x01	; 1
    27e2:	0e 94 c7 09 	call	0x138e	; 0x138e <W20msReadADC>
    27e6:	20 91 29 01 	lds	r18, 0x0129

      R_DDR = 1<<PIN_RH3;		//Pin 3 over R_H to GND
      adcmv[2] = W20msReadADC(TP3);
    27ea:	30 91 2a 01 	lds	r19, 0x012A
    27ee:	82 1b       	sub	r24, r18
    27f0:	93 0b       	sbc	r25, r19
    27f2:	9c 83       	std	Y+4, r25	; 0x04
      lcd_MEM_string(RH1L_str);	// "RH_Lo="
    27f4:	8b 83       	std	Y+3, r24	; 0x03
    27f6:	d4 b8       	out	0x04, r13	; 4
    27f8:	d5 b8       	out	0x05, r13	; 5
    27fa:	82 e0       	ldi	r24, 0x02	; 2
    27fc:	0e 94 c7 09 	call	0x138e	; 0x138e <W20msReadADC>
   }
				//############################################
   if (tt == 6) { // can we switch the ADC pins to VCC across the R_H resistor?
    2800:	20 91 29 01 	lds	r18, 0x0129
      R_DDR = 1<<PIN_RH1;		//Pin 1 over R_H to VCC
    2804:	30 91 2a 01 	lds	r19, 0x012A
      R_PORT = 1<<PIN_RH1;
      adcmv[0] = W20msReadADC(TP1) - ADCconfig.U_AVCC;
    2808:	82 1b       	sub	r24, r18
    280a:	93 0b       	sbc	r25, r19
    280c:	9e 83       	std	Y+6, r25	; 0x06
    280e:	8d 83       	std	Y+5, r24	; 0x05
    2810:	87 ee       	ldi	r24, 0xE7	; 231
    2812:	90 e0       	ldi	r25, 0x00	; 0
    2814:	45 c0       	rjmp	.+138    	; 0x28a0 <AutoCheck+0x3ce>
    2816:	07 30       	cpi	r16, 0x07	; 7
    2818:	11 05       	cpc	r17, r1
    281a:	09 f0       	breq	.+2      	; 0x281e <AutoCheck+0x34c>
    281c:	43 c0       	rjmp	.+134    	; 0x28a4 <AutoCheck+0x3d2>
      R_DDR = 1<<PIN_RH2;		//Pin 2 over R_H to VCC
    281e:	20 91 29 01 	lds	r18, 0x0129
      R_PORT = 1<<PIN_RH2;
      adcmv[1] = W20msReadADC(TP2) - ADCconfig.U_AVCC;
    2822:	30 91 2a 01 	lds	r19, 0x012A
    2826:	a8 e5       	ldi	r26, 0x58	; 88
    2828:	bb e1       	ldi	r27, 0x1B	; 27
    282a:	0e 94 73 3d 	call	0x7ae6	; 0x7ae6 <__umulhisi3>
    282e:	a5 01       	movw	r20, r10
    2830:	94 01       	movw	r18, r8
    2832:	0e 94 2f 3d 	call	0x7a5e	; 0x7a5e <__udivmodsi4>
    2836:	e5 b8       	out	0x05, r14	; 5
      R_DDR = 1<<PIN_RH3;		//Pin 3 over R_H to VCC
    2838:	e3 e0       	ldi	r30, 0x03	; 3
      R_PORT = 1<<PIN_RH3;
    283a:	e4 b9       	out	0x04, r30	; 4
      adcmv[2] = W20msReadADC(TP3) - ADCconfig.U_AVCC;
    283c:	80 e0       	ldi	r24, 0x00	; 0
    283e:	28 8b       	std	Y+16, r18	; 0x10
    2840:	39 8b       	std	Y+17, r19	; 0x11
    2842:	4a 8b       	std	Y+18, r20	; 0x12
    2844:	5b 8b       	std	Y+19, r21	; 0x13
    2846:	0e 94 c7 09 	call	0x138e	; 0x138e <W20msReadADC>
    284a:	28 89       	ldd	r18, Y+16	; 0x10
    284c:	39 89       	ldd	r19, Y+17	; 0x11
    284e:	4a 89       	ldd	r20, Y+18	; 0x12
    2850:	5b 89       	ldd	r21, Y+19	; 0x13
      lcd_MEM_string(RH1H_str);	// "RH_Hi="
    2852:	82 1b       	sub	r24, r18
    2854:	93 0b       	sbc	r25, r19
    2856:	9a 83       	std	Y+2, r25	; 0x02
   }
   if (tt == 7) { // is the voltage of all R_H / R_L dividers correct?
    2858:	89 83       	std	Y+1, r24	; 0x01
    285a:	f5 b8       	out	0x05, r15	; 5
    285c:	24 b8       	out	0x04, r2	; 4
    285e:	81 e0       	ldi	r24, 0x01	; 1
      u680 = ((long)ADCconfig.U_AVCC * (PIN_RM + R_L_VAL) / (PIN_RM + R_L_VAL + (unsigned long)R_H_VAL*100));
    2860:	28 8b       	std	Y+16, r18	; 0x10
    2862:	39 8b       	std	Y+17, r19	; 0x11
    2864:	4a 8b       	std	Y+18, r20	; 0x12
    2866:	5b 8b       	std	Y+19, r21	; 0x13
    2868:	0e 94 c7 09 	call	0x138e	; 0x138e <W20msReadADC>
    286c:	28 89       	ldd	r18, Y+16	; 0x10
    286e:	39 89       	ldd	r19, Y+17	; 0x11
    2870:	4a 89       	ldd	r20, Y+18	; 0x12
    2872:	5b 89       	ldd	r21, Y+19	; 0x13
    2874:	82 1b       	sub	r24, r18
    2876:	93 0b       	sbc	r25, r19
      R_PORT = 1<<PIN_RH1;		//RH1 to VCC
    2878:	9c 83       	std	Y+4, r25	; 0x04
      R_DDR = (1<<PIN_RH1) | (1<<PIN_RL1);	//RH1 to +, RL1 to -
    287a:	8b 83       	std	Y+3, r24	; 0x03
    287c:	d5 b8       	out	0x05, r13	; 5
      adcmv[0] = W20msReadADC(TP1);
    287e:	f0 e3       	ldi	r31, 0x30	; 48
    2880:	f4 b9       	out	0x04, r31	; 4
    2882:	82 e0       	ldi	r24, 0x02	; 2
    2884:	28 8b       	std	Y+16, r18	; 0x10
    2886:	39 8b       	std	Y+17, r19	; 0x11
    2888:	4a 8b       	std	Y+18, r20	; 0x12
    288a:	5b 8b       	std	Y+19, r21	; 0x13
      adcmv[0] -= u680;
    288c:	0e 94 c7 09 	call	0x138e	; 0x138e <W20msReadADC>
    2890:	28 89       	ldd	r18, Y+16	; 0x10
    2892:	39 89       	ldd	r19, Y+17	; 0x11
    2894:	82 1b       	sub	r24, r18
    2896:	93 0b       	sbc	r25, r19
    2898:	9e 83       	std	Y+6, r25	; 0x06
    289a:	8d 83       	std	Y+5, r24	; 0x05
      R_PORT = 1<<PIN_RH2;		//RH2 to VCC
    289c:	85 ec       	ldi	r24, 0xC5	; 197
      R_DDR = (1<<PIN_RH2) | (1<<PIN_RL2);	//RH2 to +, RL2 to -
    289e:	90 e0       	ldi	r25, 0x00	; 0
      adcmv[1] = W20msReadADC(TP2);
    28a0:	64 da       	rcall	.-2872   	; 0x1d6a <lcd_fix_string>
    28a2:	03 c0       	rjmp	.+6      	; 0x28aa <AutoCheck+0x3d8>
    28a4:	01 30       	cpi	r16, 0x01	; 1
    28a6:	11 05       	cpc	r17, r1
    28a8:	79 f0       	breq	.+30     	; 0x28c8 <AutoCheck+0x3f6>
    28aa:	cd d8       	rcall	.-3686   	; 0x1a46 <lcd_line2>
    28ac:	89 81       	ldd	r24, Y+1	; 0x01
      adcmv[1] -= u680;
    28ae:	9a 81       	ldd	r25, Y+2	; 0x02
    28b0:	0e 94 6c 08 	call	0x10d8	; 0x10d8 <i2lcd>
    28b4:	fe d9       	rcall	.-3076   	; 0x1cb2 <lcd_space>
    28b6:	8b 81       	ldd	r24, Y+3	; 0x03
    28b8:	9c 81       	ldd	r25, Y+4	; 0x04
    28ba:	0e 94 6c 08 	call	0x10d8	; 0x10d8 <i2lcd>
      R_PORT = 1<<PIN_RH3;		//RH3 to VCC
    28be:	f9 d9       	rcall	.-3086   	; 0x1cb2 <lcd_space>
      R_DDR = (1<<PIN_RH3) | (1<<PIN_RL3);	//RH3 to +, RL3 to -
    28c0:	8d 81       	ldd	r24, Y+5	; 0x05
    28c2:	9e 81       	ldd	r25, Y+6	; 0x06
      adcmv[2] = W20msReadADC(TP3);
    28c4:	0e 94 6c 08 	call	0x10d8	; 0x10d8 <i2lcd>
    28c8:	f7 b8       	out	0x07, r15	; 7
    28ca:	f8 b8       	out	0x08, r15	; 8
    28cc:	14 b8       	out	0x04, r1	; 4
    28ce:	15 b8       	out	0x05, r1	; 5
    28d0:	88 ee       	ldi	r24, 0xE8	; 232
      adcmv[2] -= u680;
    28d2:	93 e0       	ldi	r25, 0x03	; 3
    28d4:	e7 dc       	rcall	.-1586   	; 0x22a4 <wait_for_key_ms>
    28d6:	04 30       	cpi	r16, 0x04	; 4
    28d8:	11 05       	cpc	r17, r1
    28da:	11 f0       	breq	.+4      	; 0x28e0 <AutoCheck+0x40e>
    28dc:	8b 30       	cpi	r24, 0x0B	; 11
      lcd_MEM_string(RHRL_str);	// "RH/RL"
    28de:	28 f4       	brcc	.+10     	; 0x28ea <AutoCheck+0x418>
    28e0:	c3 94       	inc	r12
    28e2:	23 e0       	ldi	r18, 0x03	; 3
    28e4:	2c 15       	cp	r18, r12
    28e6:	08 f0       	brcs	.+2      	; 0x28ea <AutoCheck+0x418>
   }
				//############################################
   if (tt > 1) {	// output 3 voltages 
    28e8:	a8 ce       	rjmp	.-688    	; 0x263a <AutoCheck+0x168>
    28ea:	88 ee       	ldi	r24, 0xE8	; 232
    28ec:	93 e0       	ldi	r25, 0x03	; 3
      lcd_line2();			//Cursor to column 1, row 2
    28ee:	da dc       	rcall	.-1612   	; 0x22a4 <wait_for_key_ms>
    28f0:	0f 5f       	subi	r16, 0xFF	; 255
      i2lcd(adcmv[0]);		// lcd_string(itoa(adcmv[0], outval, 10));	//output voltage 1
    28f2:	1f 4f       	sbci	r17, 0xFF	; 255
    28f4:	08 30       	cpi	r16, 0x08	; 8
    28f6:	11 05       	cpc	r17, r1
    28f8:	09 f0       	breq	.+2      	; 0x28fc <AutoCheck+0x42a>
      lcd_space();
    28fa:	9b ce       	rjmp	.-714    	; 0x2632 <AutoCheck+0x160>
    28fc:	83 ce       	rjmp	.-762    	; 0x2604 <AutoCheck+0x132>
      i2lcd(adcmv[1]);		// lcd_string(itoa(adcmv[1], outval, 10));	//output voltage 2
    28fe:	23 da       	rcall	.-3002   	; 0x1d46 <lcd_clear_line2>
    2900:	8c e6       	ldi	r24, 0x6C	; 108
    2902:	92 e0       	ldi	r25, 0x02	; 2
    2904:	32 da       	rcall	.-2972   	; 0x1d6a <lcd_fix_string>
      lcd_space();
    2906:	84 e6       	ldi	r24, 0x64	; 100
    2908:	0e 94 9b 09 	call	0x1336	; 0x1336 <sleep_5ms>
      i2lcd(adcmv[2]);		// lcd_string(itoa(adcmv[2], outval, 10));	//output voltage 3
    290c:	11 50       	subi	r17, 0x01	; 1
    290e:	19 f0       	breq	.+6      	; 0x2916 <AutoCheck+0x444>
    2910:	d1 dd       	rcall	.-1118   	; 0x24b4 <AllProbesShorted>
   }
   ADC_DDR =  TXD_MSK;		// all-Pins to Input
    2912:	81 11       	cpse	r24, r1
   ADC_PORT = TXD_VAL;		// all ADC-Ports to GND
    2914:	f4 cf       	rjmp	.-24     	; 0x28fe <AutoCheck+0x42c>
   R_DDR = 0;			// all R-Ports to Input
    2916:	4b d8       	rcall	.-3946   	; 0x19ae <lcd_clear>
   R_PORT = 0;
    2918:	8a eb       	ldi	r24, 0xBA	; 186
   taste = wait_for_key_ms(1000);	// wait up to 1 second or key is pressed
    291a:	90 e0       	ldi	r25, 0x00	; 0
    291c:	26 da       	rcall	.-2996   	; 0x1d6a <lcd_fix_string>
    291e:	23 e0       	ldi	r18, 0x03	; 3
    2920:	44 e0       	ldi	r20, 0x04	; 4
   if ((tt != 4) && (taste > 10)) {
    2922:	6f ef       	ldi	r22, 0xFF	; 255
    2924:	80 91 2b 01 	lds	r24, 0x012B
    2928:	90 91 2c 01 	lds	r25, 0x012C
 #ifdef EXTENDED_TESTS
#define TEST_COUNT 8
if((test_mode & 0x0f) == 1) {  /* full test requested */

for(tt=1;tt<TEST_COUNT;tt++) {		// loop for all Tests
for(ww=0;ww<MAX_REP;ww++) {	// repeat the test MAX_REP times
    292c:	4d db       	rcall	.-2406   	; 0x1fc8 <DisplayValue16>
    292e:	8b d8       	rcall	.-3818   	; 0x1a46 <lcd_line2>
    2930:	83 eb       	ldi	r24, 0xB3	; 179
    2932:	90 e0       	ldi	r25, 0x00	; 0
    2934:	1a da       	rcall	.-3020   	; 0x1d6a <lcd_fix_string>
   if ((tt != 4) && (taste > 10)) {
      // don't finish repetition  for T4 with pressed key
      break; // if key is pressed, don't repeat
   }
} //end for ww
wait_for_key_ms(1000);	// wait up to 1 second or key is pressed
    2936:	23 e0       	ldi	r18, 0x03	; 3
    2938:	44 e0       	ldi	r20, 0x04	; 4
    293a:	6f ef       	ldi	r22, 0xFF	; 255
    293c:	80 91 32 01 	lds	r24, 0x0132
    2940:	90 91 33 01 	lds	r25, 0x0133
 #endif
 #ifdef EXTENDED_TESTS
#define TEST_COUNT 8
if((test_mode & 0x0f) == 1) {  /* full test requested */

for(tt=1;tt<TEST_COUNT;tt++) {		// loop for all Tests
    2944:	41 db       	rcall	.-2430   	; 0x1fc8 <DisplayValue16>
    2946:	82 e0       	ldi	r24, 0x02	; 2
    2948:	80 93 38 01 	sts	0x0138, r24
 #endif		/* end EXTENDED_TESTS */

for (ww=0;ww<120;ww++) {
  // wait up to 1 minute for releasing the probes
  if (AllProbesShorted() == 0) break;
  lcd_clear_line2();		// clear total line2
    294c:	e7 dc       	rcall	.-1586   	; 0x231c <wait_for_key_5s_line2>
    294e:	10 92 13 01 	sts	0x0113, r1
  lcd_MEM_string(RELPROBE);	// "Release Probes"
    2952:	2d d8       	rcall	.-4006   	; 0x19ae <lcd_clear>
    2954:	8f ea       	ldi	r24, 0xAF	; 175
    2956:	90 e0       	ldi	r25, 0x00	; 0
  lcd_refresh();		// write the pixels to display, ST7920 only
  wait_about500ms();
    2958:	08 da       	rcall	.-3056   	; 0x1d6a <lcd_fix_string>
    295a:	60 e0       	ldi	r22, 0x00	; 0
    295c:	82 e0       	ldi	r24, 0x02	; 2
    295e:	0e 94 12 27 	call	0x4e24	; 0x4e24 <ReadCapacity>
}	/* end if((test_mode & 0x0f) == 1) */
 #endif		/* end EXTENDED_TESTS */

for (ww=0;ww<120;ww++) {
  // wait up to 1 minute for releasing the probes
  if (AllProbesShorted() == 0) break;
    2962:	80 90 7b 01 	lds	r8, 0x017B
    2966:	90 90 7c 01 	lds	r9, 0x017C
  wait_about500ms();
}



lcd_clear();
    296a:	a0 90 7d 01 	lds	r10, 0x017D
lcd_MEM_string(RIHI_str);	// "RiHi="
    296e:	b0 90 7e 01 	lds	r11, 0x017E
    2972:	9c 86       	std	Y+12, r9	; 0x0c
    2974:	8b 86       	std	Y+11, r8	; 0x0b
DisplayValue16(RRpinPL,-1,LCD_CHAR_OMEGA,3);
    2976:	61 e0       	ldi	r22, 0x01	; 1
    2978:	82 e0       	ldi	r24, 0x02	; 2
    297a:	0e 94 12 27 	call	0x4e24	; 0x4e24 <ReadCapacity>
    297e:	c0 90 7b 01 	lds	r12, 0x017B
    2982:	d0 90 7c 01 	lds	r13, 0x017C
    2986:	e0 90 7d 01 	lds	r14, 0x017D
lcd_line2();
    298a:	f0 90 7e 01 	lds	r15, 0x017E
lcd_MEM_string(RILO_str);	// "RiLo="
    298e:	de 86       	std	Y+14, r13	; 0x0e
    2990:	cd 86       	std	Y+13, r12	; 0x0d
    2992:	60 e0       	ldi	r22, 0x00	; 0
DisplayValue16(RRpinMI,-1,LCD_CHAR_OMEGA,3);
    2994:	81 e0       	ldi	r24, 0x01	; 1
    2996:	0e 94 12 27 	call	0x4e24	; 0x4e24 <ReadCapacity>
    299a:	00 91 7b 01 	lds	r16, 0x017B
    299e:	10 91 7c 01 	lds	r17, 0x017C
    29a2:	1e 83       	std	Y+6, r17	; 0x06
    29a4:	0d 83       	std	Y+5, r16	; 0x05
last_line_used = 2;
    29a6:	62 e0       	ldi	r22, 0x02	; 2
    29a8:	80 e0       	ldi	r24, 0x00	; 0
    29aa:	0e 94 12 27 	call	0x4e24	; 0x4e24 <ReadCapacity>
wait_for_key_5s_line2();		// wait up to 5 seconds and clear line 2
    29ae:	80 91 7b 01 	lds	r24, 0x017B

//measure Zero offset for Capacity measurement
PartFound = PART_NONE;
    29b2:	90 91 7c 01 	lds	r25, 0x017C
lcd_clear();
    29b6:	9c 83       	std	Y+4, r25	; 0x04
lcd_MEM_string(C0_str);			//output "C0 "
    29b8:	8b 83       	std	Y+3, r24	; 0x03
    29ba:	62 e0       	ldi	r22, 0x02	; 2
    29bc:	81 e0       	ldi	r24, 0x01	; 1
    29be:	0e 94 12 27 	call	0x4e24	; 0x4e24 <ReadCapacity>
ReadCapacity(TP3, TP1);
    29c2:	80 91 7b 01 	lds	r24, 0x017B
    29c6:	90 91 7c 01 	lds	r25, 0x017C
adcmv[5] = (unsigned int) cap.cval_uncorrected.dw;	//save capacity value of empty Pin 1:3
    29ca:	9a 87       	std	Y+10, r25	; 0x0a
    29cc:	89 87       	std	Y+9, r24	; 0x09
    29ce:	61 e0       	ldi	r22, 0x01	; 1
    29d0:	80 e0       	ldi	r24, 0x00	; 0
    29d2:	0e 94 12 27 	call	0x4e24	; 0x4e24 <ReadCapacity>
    29d6:	20 91 7b 01 	lds	r18, 0x017B
    29da:	30 91 7c 01 	lds	r19, 0x017C
ReadCapacity(TP3, TP2);
    29de:	3a 83       	std	Y+2, r19	; 0x02
    29e0:	29 83       	std	Y+1, r18	; 0x01
    29e2:	8f 85       	ldd	r24, Y+15	; 0x0f
adcmv[6] = (unsigned int) cap.cval_uncorrected.dw;	//save capacity value of empty Pin 2:3
    29e4:	81 30       	cpi	r24, 0x01	; 1
    29e6:	21 f0       	breq	.+8      	; 0x29f0 <AutoCheck+0x51e>
    29e8:	80 91 31 01 	lds	r24, 0x0131
    29ec:	82 30       	cpi	r24, 0x02	; 2
    29ee:	29 f4       	brne	.+10     	; 0x29fa <AutoCheck+0x528>
    29f0:	2e 5f       	subi	r18, 0xFE	; 254
    29f2:	3f 4f       	sbci	r19, 0xFF	; 255
    29f4:	38 87       	std	Y+8, r19	; 0x08
    29f6:	2f 83       	std	Y+7, r18	; 0x07
ReadCapacity(TP2, TP1);
    29f8:	04 c0       	rjmp	.+8      	; 0x2a02 <AutoCheck+0x530>
    29fa:	38 87       	std	Y+8, r19	; 0x08
    29fc:	2f 83       	std	Y+7, r18	; 0x07
    29fe:	10 92 31 01 	sts	0x0131, r1
adcmv[2] = (unsigned int) cap.cval_uncorrected.dw;	//save capacity value of empty Pin 1:2
    2a02:	c4 01       	movw	r24, r8
    2a04:	0e 94 80 08 	call	0x1100	; 0x1100 <u2lcd_space>
    2a08:	c6 01       	movw	r24, r12
    2a0a:	0e 94 80 08 	call	0x1100	; 0x1100 <u2lcd_space>
ReadCapacity(TP1, TP3);
    2a0e:	b8 01       	movw	r22, r16
    2a10:	11 0f       	add	r17, r17
    2a12:	88 0b       	sbc	r24, r24
adcmv[1] = (unsigned int) cap.cval_uncorrected.dw;	//save capacity value of empty Pin 3:1
    2a14:	99 0b       	sbc	r25, r25
    2a16:	03 e0       	ldi	r16, 0x03	; 3
    2a18:	26 e4       	ldi	r18, 0x46	; 70
    2a1a:	44 ef       	ldi	r20, 0xF4	; 244
    2a1c:	ec d9       	rcall	.-3112   	; 0x1df6 <DisplayValue>
    2a1e:	8e 01       	movw	r16, r28
ReadCapacity(TP2, TP3);
    2a20:	0f 5f       	subi	r16, 0xFF	; 255
    2a22:	1f 4f       	sbci	r17, 0xFF	; 255
    2a24:	6e 01       	movw	r12, r28
    2a26:	ef e0       	ldi	r30, 0x0F	; 15
adcmv[4] = (unsigned int) cap.cval_uncorrected.dw;	//save capacity value of empty Pin 3:2
    2a28:	ce 0e       	add	r12, r30
    2a2a:	d1 1c       	adc	r13, r1
    2a2c:	f8 01       	movw	r30, r16
    2a2e:	81 91       	ld	r24, Z+
    2a30:	91 91       	ld	r25, Z+
    2a32:	0a 97       	sbiw	r24, 0x0a	; 10
ReadCapacity(TP1, TP2);
    2a34:	85 3b       	cpi	r24, 0xB5	; 181
    2a36:	91 05       	cpc	r25, r1
    2a38:	d0 f4       	brcc	.+52     	; 0x2a6e <AutoCheck+0x59c>
    2a3a:	ec 15       	cp	r30, r12
adcmv[0] = (unsigned int) cap.cval_uncorrected.dw;	//save capacity value of empty Pin 2:1
    2a3c:	fd 05       	cpc	r31, r13
    2a3e:	b9 f7       	brne	.-18     	; 0x2a2e <AutoCheck+0x55c>
    2a40:	4a e6       	ldi	r20, 0x6A	; 106
    2a42:	e4 2e       	mov	r14, r20
    2a44:	43 e0       	ldi	r20, 0x03	; 3
    2a46:	f4 2e       	mov	r15, r20
 #ifdef WITH_MENU
if (((test_mode & 0x0f) == 1) || (UnCalibrated == 2))
    2a48:	f8 01       	movw	r30, r16
    2a4a:	60 81       	ld	r22, Z
    2a4c:	0e 5f       	subi	r16, 0xFE	; 254
    2a4e:	1f 4f       	sbci	r17, 0xFF	; 255
    2a50:	6e 5e       	subi	r22, 0xEE	; 238
    2a52:	c7 01       	movw	r24, r14
    2a54:	0e 94 bd 3e 	call	0x7d7a	; 0x7d7a <eeprom_write_byte>
 #else
if (UnCalibrated == 2)
 #endif
{
  adcmv[3] = adcmv[0] + 2;		// mark as uncalibrated until Cap > 100nF has success
    2a58:	ff ef       	ldi	r31, 0xFF	; 255
    2a5a:	ef 1a       	sub	r14, r31
    2a5c:	ff 0a       	sbc	r15, r31
    2a5e:	0c 15       	cp	r16, r12
} else {
  adcmv[3] = adcmv[0];			// mark as calibrated, short calibration is finished
    2a60:	1d 05       	cpc	r17, r13
    2a62:	91 f7       	brne	.-28     	; 0x2a48 <AutoCheck+0x576>
  UnCalibrated = 0;			// clear the UnCalibrated Flag
    2a64:	0e 94 23 0d 	call	0x1a46	; 0x1a46 <lcd_line2>
  lcd_cursor_off();			// switch cursor off
}
u2lcd_space(adcmv[5]);	//DisplayValue(adcmv[5],0,' ',3);		//output cap0 1:3
    2a68:	85 eb       	ldi	r24, 0xB5	; 181
    2a6a:	91 e0       	ldi	r25, 0x01	; 1
    2a6c:	7e d9       	rcall	.-3332   	; 0x1d6a <lcd_fix_string>
u2lcd_space(adcmv[6]);	//DisplayValue(adcmv[6],0,' ',3);		//output cap0 2:3
    2a6e:	82 e0       	ldi	r24, 0x02	; 2
    2a70:	80 93 38 01 	sts	0x0138, r24
DisplayValue(adcmv[2],-12,'F',3);		//output cap0 1:2
    2a74:	53 dc       	rcall	.-1882   	; 0x231c <wait_for_key_5s_line2>
    2a76:	0e 94 91 39 	call	0x7322	; 0x7322 <sampling_cap_calibrate>
    2a7a:	2f 85       	ldd	r18, Y+15	; 0x0f
    2a7c:	21 30       	cpi	r18, 0x01	; 1
    2a7e:	29 f0       	breq	.+10     	; 0x2a8a <AutoCheck+0x5b8>
    2a80:	80 91 31 01 	lds	r24, 0x0131
    2a84:	82 30       	cpi	r24, 0x02	; 2
    2a86:	09 f0       	breq	.+2      	; 0x2a8a <AutoCheck+0x5b8>
    2a88:	ec c0       	rjmp	.+472    	; 0x2c62 <AutoCheck+0x790>
    2a8a:	0e 94 d7 0c 	call	0x19ae	; 0x19ae <lcd_clear>
    2a8e:	80 e0       	ldi	r24, 0x00	; 0
    2a90:	0d d9       	rcall	.-3558   	; 0x1cac <lcd_testpin>
    2a92:	8b e5       	ldi	r24, 0x5B	; 91
    2a94:	91 e0       	ldi	r25, 0x01	; 1
 #ifdef AUTO_CAL
for (ww=0;ww<7;ww++) {			//checking loop
if ((adcmv[ww] > 190) || (adcmv[ww] < 10)) goto no_c0save;
    2a96:	69 d9       	rcall	.-3374   	; 0x1d6a <lcd_fix_string>
    2a98:	82 e0       	ldi	r24, 0x02	; 2
    2a9a:	08 d9       	rcall	.-3568   	; 0x1cac <lcd_testpin>
    2a9c:	84 e2       	ldi	r24, 0x24	; 36
    2a9e:	90 e0       	ldi	r25, 0x00	; 0
    2aa0:	64 d9       	rcall	.-3384   	; 0x1d6a <lcd_fix_string>
}
u2lcd_space(adcmv[5]);	//DisplayValue(adcmv[5],0,' ',3);		//output cap0 1:3
u2lcd_space(adcmv[6]);	//DisplayValue(adcmv[6],0,' ',3);		//output cap0 2:3
DisplayValue(adcmv[2],-12,'F',3);		//output cap0 1:2
 #ifdef AUTO_CAL
for (ww=0;ww<7;ww++) {			//checking loop
    2aa2:	20 e4       	ldi	r18, 0x40	; 64
    2aa4:	f2 2e       	mov	r15, r18
    2aa6:	10 e0       	ldi	r17, 0x00	; 0
    2aa8:	3a e0       	ldi	r19, 0x0A	; 10
    2aaa:	83 2e       	mov	r8, r19
    2aac:	91 2c       	mov	r9, r1
    2aae:	a1 2c       	mov	r10, r1
if ((adcmv[ww] > 190) || (adcmv[ww] < 10)) goto no_c0save;
}
for (ww=0;ww<7;ww++) {
  // write all zero offsets to the EEprom 
  (void) eeprom_write_byte((uint8_t *)(&c_zero_tab[ww]),adcmv[ww]+(COMP_SLEW1 / (CC0 + CABLE_CAP + COMP_SLEW2)));
    2ab0:	b1 2c       	mov	r11, r1
    2ab2:	88 dc       	rcall	.-1776   	; 0x23c4 <init_parts>
    2ab4:	10 92 13 01 	sts	0x0113, r1
    2ab8:	60 e0       	ldi	r22, 0x00	; 0
    2aba:	82 e0       	ldi	r24, 0x02	; 2
    2abc:	0e 94 12 27 	call	0x4e24	; 0x4e24 <ReadCapacity>
    2ac0:	00 91 85 01 	lds	r16, 0x0185
    2ac4:	60 91 73 01 	lds	r22, 0x0173
DisplayValue(adcmv[2],-12,'F',3);		//output cap0 1:2
 #ifdef AUTO_CAL
for (ww=0;ww<7;ww++) {			//checking loop
if ((adcmv[ww] > 190) || (adcmv[ww] < 10)) goto no_c0save;
}
for (ww=0;ww<7;ww++) {
    2ac8:	70 91 74 01 	lds	r23, 0x0174
  // write all zero offsets to the EEprom 
  (void) eeprom_write_byte((uint8_t *)(&c_zero_tab[ww]),adcmv[ww]+(COMP_SLEW1 / (CC0 + CABLE_CAP + COMP_SLEW2)));
}
lcd_line2();
    2acc:	80 91 75 01 	lds	r24, 0x0175
lcd_MEM_string(OK_str);		// output "OK"
    2ad0:	90 91 76 01 	lds	r25, 0x0176
    2ad4:	07 3f       	cpi	r16, 0xF7	; 247
    2ad6:	44 f4       	brge	.+16     	; 0x2ae8 <AutoCheck+0x616>
no_c0save:
 #endif
last_line_used = 2;
    2ad8:	0f 5f       	subi	r16, 0xFF	; 255
    2ada:	a5 01       	movw	r20, r10
    2adc:	94 01       	movw	r18, r8
wait_for_key_5s_line2();		// wait up to 5 seconds and clear line 2
    2ade:	0e 94 2f 3d 	call	0x7a5e	; 0x7a5e <__udivmodsi4>

#ifdef SamplingADC
  sampling_cap_calibrate();		// measure zero capacity for samplingADC
    2ae2:	ca 01       	movw	r24, r20
    2ae4:	b9 01       	movw	r22, r18
#endif

 #ifdef AUTO_CAL
  #ifdef WITH_MENU
if (((test_mode & 0x0f) == 1) || (UnCalibrated == 2))
    2ae6:	f6 cf       	rjmp	.-20     	; 0x2ad4 <AutoCheck+0x602>
    2ae8:	00 93 85 01 	sts	0x0185, r16
    2aec:	60 93 73 01 	sts	0x0173, r22
    2af0:	70 93 74 01 	sts	0x0174, r23
    2af4:	80 93 75 01 	sts	0x0175, r24
{
// for full test or first time calibration, use external capacitor
// Message C > 100nF at TP1 and TP3
cap_found = 0;
#if (TPCAP <= 0)
lcd_clear();
    2af8:	90 93 76 01 	sts	0x0176, r25
lcd_testpin(TP1);
    2afc:	07 3f       	cpi	r16, 0xF7	; 247
    2afe:	09 f0       	breq	.+2      	; 0x2b02 <AutoCheck+0x630>
lcd_MEM_string(CapZeich);	// "-||-"
    2b00:	99 c0       	rjmp	.+306    	; 0x2c34 <AutoCheck+0x762>
    2b02:	dc 01       	movw	r26, r24
    2b04:	cb 01       	movw	r24, r22
    2b06:	80 56       	subi	r24, 0x60	; 96
lcd_testpin(TP3);
    2b08:	91 09       	sbc	r25, r1
    2b0a:	a1 09       	sbc	r26, r1
    2b0c:	b1 09       	sbc	r27, r1
lcd_MEM2_string(MinCap_str);	// " >100nF!"
    2b0e:	80 39       	cpi	r24, 0x90	; 144
    2b10:	95 45       	sbci	r25, 0x55	; 85
    2b12:	a1 05       	cpc	r26, r1
    2b14:	b1 05       	cpc	r27, r1
    2b16:	08 f0       	brcs	.+2      	; 0x2b1a <AutoCheck+0x648>
    2b18:	8d c0       	rjmp	.+282    	; 0x2c34 <AutoCheck+0x762>
// calibration (UnCalibrated = 2) or for the full selftest call (test_mode = 1) 
// of the menu function, not with the automatically call (test_mode = 1).
{
// for full test or first time calibration, use external capacitor
// Message C > 100nF at TP1 and TP3
cap_found = 0;
    2b1a:	60 91 87 01 	lds	r22, 0x0187
  PartFound = PART_NONE;
  ReadCapacity(TP3, TP1);	// look for capacitor > 100nF
  #endif
  while (cap.cpre < -9) {
   cap.cpre++;
   cap.cval /= 10;
    2b1e:	70 91 88 01 	lds	r23, 0x0188
    2b22:	cb 01       	movw	r24, r22
    2b24:	8b 56       	subi	r24, 0x6B	; 107
lcd_MEM_string(CapZeich);	// "-||-"
lcd_testpin(TP3);
lcd_MEM2_string(MinCap_str);	// " >100nF!"
#endif
for (ww=0;ww<64;ww++) {
  init_parts();
    2b26:	9f 4f       	sbci	r25, 0xFF	; 255
    2b28:	8b 32       	cpi	r24, 0x2B	; 43
  #if (TPCAP >= 0)
  CalibrationCap();	// measure with internal calibration capacitor
  #else
  PartFound = PART_NONE;
    2b2a:	91 40       	sbci	r25, 0x01	; 1
    2b2c:	08 f0       	brcs	.+2      	; 0x2b30 <AutoCheck+0x65e>
  ReadCapacity(TP3, TP1);	// look for capacitor > 100nF
    2b2e:	82 c0       	rjmp	.+260    	; 0x2c34 <AutoCheck+0x762>
    2b30:	1f 5f       	subi	r17, 0xFF	; 255
    2b32:	15 30       	cpi	r17, 0x05	; 5
    2b34:	08 f4       	brcc	.+2      	; 0x2b38 <AutoCheck+0x666>
    2b36:	7f c0       	rjmp	.+254    	; 0x2c36 <AutoCheck+0x764>
    2b38:	81 e7       	ldi	r24, 0x71	; 113
    2b3a:	93 e0       	ldi	r25, 0x03	; 3
    2b3c:	0e 94 cb 3e 	call	0x7d96	; 0x7d96 <eeprom_write_word>
    2b40:	0e 94 d7 0c 	call	0x19ae	; 0x19ae <lcd_clear>
    2b44:	8d e1       	ldi	r24, 0x1D	; 29
    2b46:	90 e0       	ldi	r25, 0x00	; 0
    2b48:	10 d9       	rcall	.-3552   	; 0x1d6a <lcd_fix_string>
  #endif
  while (cap.cpre < -9) {
    2b4a:	80 91 87 01 	lds	r24, 0x0187
    2b4e:	90 91 88 01 	lds	r25, 0x0188
   cap.cpre++;
   cap.cval /= 10;
    2b52:	0e 94 6c 08 	call	0x10d8	; 0x10d8 <i2lcd>
    2b56:	0e 94 45 0a 	call	0x148a	; 0x148a <RefVoltage>
    2b5a:	88 e0       	ldi	r24, 0x08	; 8
    2b5c:	88 b9       	out	0x08, r24	; 8
    2b5e:	89 e0       	ldi	r24, 0x09	; 9
    2b60:	87 b9       	out	0x07, r24	; 7
    2b62:	80 e2       	ldi	r24, 0x20	; 32
    2b64:	84 b9       	out	0x04, r24	; 4
    2b66:	82 e0       	ldi	r24, 0x02	; 2
    2b68:	0e 94 d3 09 	call	0x13a6	; 0x13a6 <ReadADC>
    2b6c:	85 3d       	cpi	r24, 0xD5	; 213
    2b6e:	93 40       	sbci	r25, 0x03	; 3
    2b70:	d4 f7       	brge	.-12     	; 0x2b66 <AutoCheck+0x694>
  }
  if ((cap.cpre == -9) && (cap.cval > 95) && (cap.cval < 22000) &&
    2b72:	14 b8       	out	0x04, r1	; 4
    2b74:	10 92 28 01 	sts	0x0128, r1
    2b78:	10 92 27 01 	sts	0x0127, r1
    2b7c:	82 e0       	ldi	r24, 0x02	; 2
    2b7e:	0e 94 d3 09 	call	0x13a6	; 0x13a6 <ReadADC>
    2b82:	8c 01       	movw	r16, r24
    2b84:	80 91 6d 01 	lds	r24, 0x016D
    2b88:	90 91 6e 01 	lds	r25, 0x016E
    2b8c:	90 93 28 01 	sts	0x0128, r25
    (load_diff > -150) && (load_diff < 150)) {
    2b90:	80 93 27 01 	sts	0x0127, r24
    2b94:	82 e0       	ldi	r24, 0x02	; 2
    2b96:	0e 94 d3 09 	call	0x13a6	; 0x13a6 <ReadADC>
    2b9a:	7c 01       	movw	r14, r24
    2b9c:	ee 0c       	add	r14, r14
    2b9e:	ff 1c       	adc	r15, r15
    2ba0:	10 92 28 01 	sts	0x0128, r1
    2ba4:	10 92 27 01 	sts	0x0127, r1
   cap_found++;
  } else {
   cap_found = 0;		// wait for stable connection
  }
  if (cap_found > 4) {
    2ba8:	82 e0       	ldi	r24, 0x02	; 2
    2baa:	0e 94 d3 09 	call	0x13a6	; 0x13a6 <ReadADC>
     // value of capacitor is correct
     (void) eeprom_write_word((uint16_t *)(&ref_offset), load_diff);	// hold zero offset + slew rate dependend offset
    2bae:	c0 90 6d 01 	lds	r12, 0x016D
    2bb2:	d0 90 6e 01 	lds	r13, 0x016E
     lcd_clear();
    2bb6:	d0 92 28 01 	sts	0x0128, r13
     lcd_MEM2_string(REF_C_str);	// "REF_C="
    2bba:	c0 92 27 01 	sts	0x0127, r12
    2bbe:	80 0f       	add	r24, r16
    2bc0:	91 1f       	adc	r25, r17
     i2lcd(load_diff);		// lcd_string(itoa(load_diff, outval, 10));	//output REF_C_KORR
    2bc2:	8c 01       	movw	r16, r24
    2bc4:	0e 19       	sub	r16, r14
    2bc6:	1f 09       	sbc	r17, r15
    2bc8:	0e 94 23 0d 	call	0x1a46	; 0x1a46 <lcd_line2>
    2bcc:	86 e1       	ldi	r24, 0x16	; 22
     RefVoltage();			// new ref_mv_offs and RHmultip
    2bce:	90 e0       	ldi	r25, 0x00	; 0
    2bd0:	cc d8       	rcall	.-3688   	; 0x1d6a <lcd_fix_string>
    #define CAP_ADC TPCAP	/* Cap >100nF is integrated at TPCAP */
   TCAP_PORT &= ~(1<<TCAP_RH);	// 470k resistor to GND
   TCAP_DDR |= (1<<TCAP_RH);	// enable output
   #else
    #define CAP_ADC TP3		/* Cap >100nF at TP3 */
   ADC_PORT =  TXD_VAL;	//ADC-Port 1 to GND
    2bd2:	83 e7       	ldi	r24, 0x73	; 115
    2bd4:	93 e0       	ldi	r25, 0x03	; 3
   ADC_DDR = 1<<TP1 | TXD_MSK;	//ADC-Pin  1 to output 0V
    2bd6:	0e 94 b0 3e 	call	0x7d60	; 0x7d60 <eeprom_read_byte>
   R_DDR = 1<<PIN_RH3;		//Pin 3 over R_H to GND
    2bda:	93 e0       	ldi	r25, 0x03	; 3
    2bdc:	b9 2e       	mov	r11, r25
   #endif
   do {
      adcmv[0] = ReadADC(CAP_ADC);
    2bde:	b8 0e       	add	r11, r24
    2be0:	96 01       	movw	r18, r12
    2be2:	d8 01       	movw	r26, r16
   } while (adcmv[0] > 980);
    2be4:	0e 94 82 3d 	call	0x7b04	; 0x7b04 <__usmulhisi3>
    2be8:	97 01       	movw	r18, r14
   #if (TPCAP >= 0)
   TCAP_DDR &= ~(1<<TCAP_RH);	// 470k resistor port to input mode
   #else
   R_DDR = 0;		//all Pins to input 
    2bea:	0f 2c       	mov	r0, r15
   #endif
   ADCconfig.U_Bandgap = 0;	// do not use internal Ref
    2bec:	00 0c       	add	r0, r0
    2bee:	44 0b       	sbc	r20, r20
    2bf0:	55 0b       	sbc	r21, r21
    2bf2:	0e 94 51 3d 	call	0x7aa2	; 0x7aa2 <__divmodsi4>
   adcmv[0] = ReadADC(CAP_ADC);  // get cap voltage with VCC reference
    2bf6:	1b 2d       	mov	r17, r11
    2bf8:	12 0f       	add	r17, r18
    2bfa:	61 2f       	mov	r22, r17
   ADCconfig.U_Bandgap = adc_internal_reference;
    2bfc:	83 e7       	ldi	r24, 0x73	; 115
    2bfe:	93 e0       	ldi	r25, 0x03	; 3
    2c00:	0e 94 bd 3e 	call	0x7d7a	; 0x7d7a <eeprom_write_byte>
    2c04:	81 2f       	mov	r24, r17
    2c06:	01 2e       	mov	r0, r17
    2c08:	00 0c       	add	r0, r0
    2c0a:	99 0b       	sbc	r25, r25
   adcmv[1] = ReadADC(CAP_ADC);	// get cap voltage with internal reference
    2c0c:	0e 94 6c 08 	call	0x10d8	; 0x10d8 <i2lcd>
    2c10:	0e 94 45 0a 	call	0x148a	; 0x148a <RefVoltage>
   adcmv[1] += adcmv[1];		// double the value
    2c14:	82 e0       	ldi	r24, 0x02	; 2
    2c16:	80 93 38 01 	sts	0x0138, r24
   ADCconfig.U_Bandgap = 0;	// do not use internal Ref
    2c1a:	80 db       	rcall	.-2304   	; 0x231c <wait_for_key_5s_line2>
    2c1c:	10 92 31 01 	sts	0x0131, r1
   adcmv[2] = ReadADC(CAP_ADC);  // get cap voltage with VCC reference
    2c20:	8a e6       	ldi	r24, 0x6A	; 106
    2c22:	93 e0       	ldi	r25, 0x03	; 3
    2c24:	0e 94 b0 3e 	call	0x7d60	; 0x7d60 <eeprom_read_byte>
   ADCconfig.U_Bandgap = adc_internal_reference;
    2c28:	68 2f       	mov	r22, r24
    2c2a:	8d e6       	ldi	r24, 0x6D	; 109
    2c2c:	93 e0       	ldi	r25, 0x03	; 3
    2c2e:	0e 94 bd 3e 	call	0x7d7a	; 0x7d7a <eeprom_write_byte>
    2c32:	17 c0       	rjmp	.+46     	; 0x2c62 <AutoCheck+0x790>
    2c34:	10 e0       	ldi	r17, 0x00	; 0
   udiff = (int8_t)(((signed long)(adcmv[0] + adcmv[2] - adcmv[1])) * adc_internal_reference / adcmv[1])+REF_R_KORR;
    2c36:	0e 94 23 0d 	call	0x1a46	; 0x1a46 <lcd_line2>
    2c3a:	60 91 73 01 	lds	r22, 0x0173
    2c3e:	70 91 74 01 	lds	r23, 0x0174
   lcd_line2();
    2c42:	80 91 75 01 	lds	r24, 0x0175
   lcd_MEM2_string(REF_R_str);	// "REF_R="
    2c46:	90 91 76 01 	lds	r25, 0x0176
    2c4a:	04 e0       	ldi	r16, 0x04	; 4
   udiff2 = udiff + (int8_t)eeprom_read_byte((uint8_t *)(&RefDiff));
    2c4c:	26 e4       	ldi	r18, 0x46	; 70
    2c4e:	40 91 85 01 	lds	r20, 0x0185
    2c52:	d1 d8       	rcall	.-3678   	; 0x1df6 <DisplayValue>
    2c54:	42 d8       	rcall	.-3964   	; 0x1cda <lcd_clear_line>
    2c56:	88 e2       	ldi	r24, 0x28	; 40
    2c58:	0e 94 9b 09 	call	0x1336	; 0x1336 <sleep_5ms>
   adcmv[1] = ReadADC(CAP_ADC);	// get cap voltage with internal reference
   adcmv[1] += adcmv[1];		// double the value
   ADCconfig.U_Bandgap = 0;	// do not use internal Ref
   adcmv[2] = ReadADC(CAP_ADC);  // get cap voltage with VCC reference
   ADCconfig.U_Bandgap = adc_internal_reference;
   udiff = (int8_t)(((signed long)(adcmv[0] + adcmv[2] - adcmv[1])) * adc_internal_reference / adcmv[1])+REF_R_KORR;
    2c5c:	fa 94       	dec	r15
    2c5e:	f1 10       	cpse	r15, r1
    2c60:	28 cf       	rjmp	.-432    	; 0x2ab2 <AutoCheck+0x5e0>
    2c62:	89 e1       	ldi	r24, 0x19	; 25
    2c64:	80 93 25 01 	sts	0x0125, r24
    2c68:	80 e0       	ldi	r24, 0x00	; 0
    2c6a:	0e 94 a7 3c 	call	0x794e	; 0x794e <sampling_lc_calibrate>
    2c6e:	0e 94 d7 0c 	call	0x19ae	; 0x19ae <lcd_clear>
   lcd_line2();
   lcd_MEM2_string(REF_R_str);	// "REF_R="
   udiff2 = udiff + (int8_t)eeprom_read_byte((uint8_t *)(&RefDiff));
    2c72:	85 e0       	ldi	r24, 0x05	; 5
   (void) eeprom_write_byte((uint8_t *)(&RefDiff), (uint8_t)udiff2);	// hold offset for true reference Voltage
    2c74:	91 e0       	ldi	r25, 0x01	; 1
    2c76:	79 d8       	rcall	.-3854   	; 0x1d6a <lcd_fix_string>
    2c78:	0e 94 23 0d 	call	0x1a46	; 0x1a46 <lcd_line2>
    2c7c:	8d e5       	ldi	r24, 0x5D	; 93
   i2lcd(udiff2);		// output correction voltage
    2c7e:	92 e0       	ldi	r25, 0x02	; 2
    2c80:	74 d8       	rcall	.-3864   	; 0x1d6a <lcd_fix_string>
    2c82:	10 92 13 01 	sts	0x0113, r1
    2c86:	82 e0       	ldi	r24, 0x02	; 2
    2c88:	80 93 38 01 	sts	0x0138, r24
   RefVoltage();			// set new ADCconfig.U_Bandgap
    2c8c:	47 db       	rcall	.-2418   	; 0x231c <wait_for_key_5s_line2>
  #endif	/* end AUTOSCALE_ADC */
   last_line_used = 2;
    2c8e:	63 96       	adiw	r28, 0x13	; 19
    2c90:	e2 e1       	ldi	r30, 0x12	; 18
    2c92:	0c 94 39 3e 	jmp	0x7c72	; 0x7c72 <__epilogue_restores__>

00002c96 <mark_as_uncalibrated>:
   wait_for_key_5s_line2();		// wait up to 5 seconds and clear line 2
    2c96:	80 91 31 01 	lds	r24, 0x0131
   UnCalibrated = 0;		// clear the UnCalibrated Flag
    2c9a:	81 11       	cpse	r24, r1
   lcd_cursor_off();		// switch cursor off
   cap_found = eeprom_read_byte((uint8_t *)&c_zero_tab[0]);	// read first capacity zero offset
    2c9c:	0d c0       	rjmp	.+26     	; 0x2cb8 <mark_as_uncalibrated+0x22>
    2c9e:	8a e6       	ldi	r24, 0x6A	; 106
    2ca0:	93 e0       	ldi	r25, 0x03	; 3
    2ca2:	0e 94 b0 3e 	call	0x7d60	; 0x7d60 <eeprom_read_byte>
   eeprom_write_byte((uint8_t *)&c_zero_tab[3], cap_found);	// mark as calibrated permanent
    2ca6:	61 e0       	ldi	r22, 0x01	; 1
    2ca8:	68 0f       	add	r22, r24
    2caa:	8d e6       	ldi	r24, 0x6D	; 109
    2cac:	93 e0       	ldi	r25, 0x03	; 3
   break;			// leave the ww for loop
    2cae:	0e 94 bd 3e 	call	0x7d7a	; 0x7d7a <eeprom_write_byte>
  }  /* end if (cap_found > 4) */
  lcd_line2();
    2cb2:	81 e0       	ldi	r24, 0x01	; 1
    2cb4:	80 93 31 01 	sts	0x0131, r24
  DisplayValue(cap.cval,cap.cpre,'F',4);
    2cb8:	08 95       	ret

00002cba <GetIr>:
    2cba:	a1 e0       	ldi	r26, 0x01	; 1
    2cbc:	b0 e0       	ldi	r27, 0x00	; 0
    2cbe:	e3 e6       	ldi	r30, 0x63	; 99
    2cc0:	f6 e1       	ldi	r31, 0x16	; 22
    2cc2:	0c 94 28 3e 	jmp	0x7c50	; 0x7c50 <__prologue_saves__+0x16>
    2cc6:	e8 2f       	mov	r30, r24
    2cc8:	f0 e0       	ldi	r31, 0x00	; 0
    2cca:	e8 5a       	subi	r30, 0xA8	; 168
    2ccc:	fd 4f       	sbci	r31, 0xFD	; 253
    2cce:	e4 91       	lpm	r30, Z
    2cd0:	e8 b9       	out	0x08, r30	; 8
  lcd_clear_line();
    2cd2:	e8 60       	ori	r30, 0x08	; 8
    2cd4:	e7 b9       	out	0x07, r30	; 7
  lcd_refresh();		// write the pixels to display, ST7920 only
  wait_about200ms();			// wait additional time
    2cd6:	15 b8       	out	0x05, r1	; 5
    2cd8:	e6 2f       	mov	r30, r22
    2cda:	f0 e0       	ldi	r31, 0x00	; 0
    2cdc:	eb 5a       	subi	r30, 0xAB	; 171
lcd_testpin(TP1);
lcd_MEM_string(CapZeich);	// "-||-"
lcd_testpin(TP3);
lcd_MEM2_string(MinCap_str);	// " >100nF!"
#endif
for (ww=0;ww<64;ww++) {
    2cde:	fd 4f       	sbci	r31, 0xFD	; 253
    2ce0:	e4 91       	lpm	r30, Z
  wait_about200ms();			// wait additional time
} // end for ww
}	/* end if((test_mode & 0x0f) == 1) */
 #endif  /* end AUTO_CAL */

ADCconfig.Samples = ANZ_MESS;	// set to configured number of ADC samples
    2ce2:	e4 b9       	out	0x04, r30	; 4
    2ce4:	88 e8       	ldi	r24, 0x88	; 136
    2ce6:	e8 2e       	mov	r14, r24

#if defined(SamplingADC) && !defined(AUTO_LC_CAP)
  sampling_lc_calibrate(0);	// Cap for L-meas
    2ce8:	83 e1       	ldi	r24, 0x13	; 19
    2cea:	f8 2e       	mov	r15, r24
    2cec:	de 2e       	mov	r13, r30
      // if key is pressed, don't repeat
      break;
   }
 } /* end for ww */
 #endif		/* end FREQUENCY_50HZ */
lcd_clear();
    2cee:	dd 0c       	add	r13, r13
    2cf0:	86 2f       	mov	r24, r22
lcd_MEM_string(VERSION_str);	//"Version ..."
    2cf2:	69 83       	std	Y+1, r22	; 0x01
    2cf4:	0e 94 c7 09 	call	0x138e	; 0x138e <W20msReadADC>
    2cf8:	8c 01       	movw	r16, r24
lcd_line2();
    2cfa:	d4 b8       	out	0x04, r13	; 4
    2cfc:	69 81       	ldd	r22, Y+1	; 0x01
lcd_MEM_string(ATE);		//"Selftest End"
    2cfe:	8e 15       	cp	r24, r14
    2d00:	9f 05       	cpc	r25, r15
    2d02:	10 f4       	brcc	.+4      	; 0x2d08 <GetIr+0x4e>
    2d04:	78 01       	movw	r14, r16
PartFound = PART_NONE;
    2d06:	f4 cf       	rjmp	.-24     	; 0x2cf0 <GetIr+0x36>
    2d08:	89 2b       	or	r24, r25
     last_line_used = 2;
    2d0a:	e1 f0       	breq	.+56     	; 0x2d44 <GetIr+0x8a>
    2d0c:	0e 94 33 0d 	call	0x1a66	; 0x1a66 <lcd_line4>
wait_for_key_5s_line2();		// wait up to 5 seconds and clear line 2
    2d10:	8b e3       	ldi	r24, 0x3B	; 59
    2d12:	91 e0       	ldi	r25, 0x01	; 1
} /* end AutoCheck */ 
    2d14:	2a d8       	rcall	.-4012   	; 0x1d6a <lcd_fix_string>
    2d16:	d8 01       	movw	r26, r16
    2d18:	20 ea       	ldi	r18, 0xA0	; 160
    2d1a:	36 e8       	ldi	r19, 0x86	; 134
#ifdef WITH_IRMICRO
  unsigned int ir_micro;
  if (u_res < 2500) {
#endif
     /* R_H_VAL has units of 10 Ohm, u_res has units of mV, ir_nano has units of nA */
     ir_nano = (unsigned long)(u_res * 100000UL) / R_H_VAL;
    2d1c:	41 e0       	ldi	r20, 0x01	; 1
    2d1e:	50 e0       	ldi	r21, 0x00	; 0
    2d20:	0e 94 88 3d 	call	0x7b10	; 0x7b10 <__muluhisi3>
    2d24:	28 e9       	ldi	r18, 0x98	; 152
    2d26:	37 eb       	ldi	r19, 0xB7	; 183
    2d28:	40 e0       	ldi	r20, 0x00	; 0
    2d2a:	50 e0       	ldi	r21, 0x00	; 0
    2d2c:	0e 94 2f 3d 	call	0x7a5e	; 0x7a5e <__udivmodsi4>
    2d30:	da 01       	movw	r26, r20
    2d32:	c9 01       	movw	r24, r18
    2d34:	22 e0       	ldi	r18, 0x02	; 2
     DisplayValue16(ir_nano,-9,'A',2);	// output two digits of current with nA units
    2d36:	41 e4       	ldi	r20, 0x41	; 65
    2d38:	67 ef       	ldi	r22, 0xF7	; 247
    2d3a:	46 d9       	rcall	.-3444   	; 0x1fc8 <DisplayValue16>
    2d3c:	88 e0       	ldi	r24, 0x08	; 8
    2d3e:	87 b9       	out	0x07, r24	; 7
     /* RR680MI has units of 0.1 Ohm, u_res has units of mV, ir_micro has units of uA */
     ir_micro = (unsigned long)(u_res * 10000UL) / RR680MI;
     DisplayValue16(ir_micro,-6,'A',IR_DIGITS);	// output 2 or 3 digits of current in uA units
  }
#endif
  ADC_DDR = TXD_MSK;			// switch off
    2d40:	88 b9       	out	0x08, r24	; 8
    2d42:	14 b8       	out	0x04, r1	; 4
  ADC_PORT = TXD_VAL;			// switch off
    2d44:	21 96       	adiw	r28, 0x01	; 1
  R_DDR = 0;				// switch off current
    2d46:	e7 e0       	ldi	r30, 0x07	; 7

  return ;
}
    2d48:	0c 94 44 3e 	jmp	0x7c88	; 0x7c88 <__epilogue_restores__+0x16>

00002d4c <main>:
    2d4c:	a1 e0       	ldi	r26, 0x01	; 1
    2d4e:	b0 e0       	ldi	r27, 0x00	; 0
	  // ADC_vect is always required by samplingADC()
	  EMPTY_INTERRUPT(ADC_vect);
        #endif

	//begin of transistortester program
	int main(void) {
    2d50:	ec ea       	ldi	r30, 0xAC	; 172
    2d52:	f6 e1       	ldi	r31, 0x16	; 22
    2d54:	0c 94 1d 3e 	jmp	0x7c3a	; 0x7c3a <__prologue_saves__>
        uint16_t pw;
        uint8_t pb[2];
        } rpins;
        uint8_t x, y, z;
	  //switch on
	  ON_DDR = (1<<ON_PIN);			// switch to output
    2d58:	80 e4       	ldi	r24, 0x40	; 64
    2d5a:	8a b9       	out	0x0a, r24	; 10
	  ON_PORT = (1<<ON_PIN); 		// switch power on 
    2d5c:	8b b9       	out	0x0b, r24	; 11
	#ifndef PULLUP_DISABLE
	  RST_PORT |= (1<<RST_PIN); 	// enable internal Pullup for Start-Pin
	#endif
	  uint8_t tmp;
	  //ADC-Init
	  ADCSRA = (1<<ADEN) | AUTO_CLOCK_DIV;	//prescaler=8 or 64 (if 8Mhz clock)
    2d5e:	87 e8       	ldi	r24, 0x87	; 135
    2d60:	80 93 7a 00 	sts	0x007A, r24
	 #define WDRF_HOME MCUCSR
	#else
	 #define WDRF_HOME MCUSR
	 #if FLASHEND > 0x3fff
	  // probably was a bootloader active, disable the UART
	  UCSR0B = 0;		// disable UART, if started with bootloader
    2d64:	10 92 c1 00 	sts	0x00C1, r1
	 #endif
	#endif
          wait500ms();
    2d68:	0e 94 7a 09 	call	0x12f4	; 0x12f4 <wait500ms>
	  SERIAL_PORT |= (1<<SERIAL_BIT);
         #endif
          SERIAL_DDR |= (1<<SERIAL_BIT);
	#endif

	  tmp = (WDRF_HOME & ((1<<WDRF)));	// save Watch Dog Flag
    2d6c:	14 b7       	in	r17, 0x34	; 52
	  WDRF_HOME &= ~(1<<WDRF);	 	//reset Watch Dog flag
    2d6e:	84 b7       	in	r24, 0x34	; 52
    2d70:	87 7f       	andi	r24, 0xF7	; 247
    2d72:	84 bf       	out	0x34, r24	; 52
		);
	}
	else
	{
        uint8_t register temp_reg;
		__asm__ __volatile__ (
    2d74:	0f b6       	in	r0, 0x3f	; 63
    2d76:	f8 94       	cli
    2d78:	a8 95       	wdr
    2d7a:	80 91 60 00 	lds	r24, 0x0060
    2d7e:	88 61       	ori	r24, 0x18	; 24
    2d80:	80 93 60 00 	sts	0x0060, r24
    2d84:	10 92 60 00 	sts	0x0060, r1
    2d88:	0f be       	out	0x3f, r0	; 63
	//  PRR1 =  (1<<PRTIM3) ;
	 #elif PROCESSOR_TYP == 1280
	  PRR0 = (1<<PRTWI) |  (1<<PRSPI) | (1<<PRUSART1);
	  PRR1 = (1<<PRTIM5) | (1<<PRTIM4) | (1<<PRTIM3) | (1<<PRUSART3) | (1<<PRUSART2) | (1<<PRUSART3);
	 #else
	  PRR = (1<<PRTWI) | (1<<PRSPI) | (1<<PRUSART0);
    2d8a:	86 e8       	ldi	r24, 0x86	; 134
    2d8c:	80 93 64 00 	sts	0x0064, r24
	 #endif
//	disable digital inputs of Analog pins, but TP1-3 digital inputs must be left enabled for VGS measurement
	  DIDR0 = ((1<<ADC5D) | (1<<ADC4D) | (1<<ADC3D) | (1<<ADC2D) | (1<<ADC1D) | (1<<ADC0D)) & ~((1<<TP3) | (1<<TP2) | (1<<TP1));	
    2d90:	88 e3       	ldi	r24, 0x38	; 56
    2d92:	80 93 7e 00 	sts	0x007E, r24
	  TCCR2A = (0<<WGM21) | (0<<WGM20);		// Counter 2 normal mode
    2d96:	10 92 b0 00 	sts	0x00B0, r1
	  TCCR2B = CNTR2_PRESCALER;	//prescaler set in autoconf
    2d9a:	87 e0       	ldi	r24, 0x07	; 7
    2d9c:	80 93 b1 00 	sts	0x00B1, r24
	#endif		/* INHIBIT_SLEEP_MODE */
	  sei();				// enable interrupts
    2da0:	78 94       	sei
	  lcd_init();				//initialize LCD
    2da2:	0e 94 ee 0c 	call	0x19dc	; 0x19dc <lcd_init>
		
	//  ADC_PORT = TXD_VAL;
	//  ADC_DDR = TXD_MSK;
	  if(tmp) { 
    2da6:	13 fd       	sbrc	r17, 3
    2da8:	a5 c5       	rjmp	.+2890   	; 0x38f4 <main+0xba8>

	#ifdef PULLUP_DISABLE
	 #ifdef __AVR_ATmega8__
	  SFIOR = (1<<PUD);		// disable Pull-Up Resistors mega8
	 #else
	  MCUCR = (1<<PUD);		// disable Pull-Up Resistors mega168 family
    2daa:	80 e1       	ldi	r24, 0x10	; 16
    2dac:	85 bf       	out	0x35, r24	; 53
#ifdef WITH_HARDWARE_SERIAL
//	ii = 60;
	ii = 30;
#else
	#if 1
	  for (ii=0; ii<60; ii++) {
    2dae:	10 e0       	ldi	r17, 0x00	; 0
		if (RST_PIN_REG & (1 << RST_PIN))
    2db0:	4f 99       	sbic	0x09, 7	; 9
    2db2:	06 c0       	rjmp	.+12     	; 0x2dc0 <main+0x74>
			break;	// button is released
	     wait_about10ms();
    2db4:	82 e0       	ldi	r24, 0x02	; 2
    2db6:	0e 94 9b 09 	call	0x1336	; 0x1336 <sleep_5ms>
#ifdef WITH_HARDWARE_SERIAL
//	ii = 60;
	ii = 30;
#else
	#if 1
	  for (ii=0; ii<60; ii++) {
    2dba:	1f 5f       	subi	r17, 0xFF	; 255
    2dbc:	1c 33       	cpi	r17, 0x3C	; 60
    2dbe:	c1 f7       	brne	.-16     	; 0x2db0 <main+0x64>
	  if (!(RST_PIN_REG & (1<<RST_PIN))) {
	     // key is still pressed
	     ii = wait_for_key_ms(700);	
	  }
	#endif
	  display_time = OFF_WAIT_TIME;		// LONG_WAIT_TIME for single mode, else SHORT_WAIT_TIME
    2dc0:	8f e5       	ldi	r24, 0x5F	; 95
    2dc2:	9d e6       	ldi	r25, 0x6D	; 109
    2dc4:	90 93 0c 01 	sts	0x010C, r25
    2dc8:	80 93 0b 01 	sts	0x010B, r24
	  if (ii > 30) {
    2dcc:	1f 31       	cpi	r17, 0x1F	; 31
    2dce:	30 f0       	brcs	.+12     	; 0x2ddc <main+0x90>
	     display_time = LONG_WAIT_TIME;	// ... set long time display anyway
    2dd0:	80 e6       	ldi	r24, 0x60	; 96
    2dd2:	9d e6       	ldi	r25, 0x6D	; 109
    2dd4:	90 93 0c 01 	sts	0x010C, r25
    2dd8:	80 93 0b 01 	sts	0x010B, r24
#endif // WITH_HARDWARE_SERIAL
	#if POWER_OFF+0 > 1
	  empty_count = 0;
	  mess_count = 0;
	#endif
	  ADCconfig.RefFlag = 0;
    2ddc:	10 92 26 01 	sts	0x0126, r1
	  Calibrate_UR();		// get Ref Voltages and Pin resistance
    2de0:	0e 94 35 2a 	call	0x546a	; 0x546a <Calibrate_UR>
				: "r0"
		);
	}
	else
	{
		__asm__ __volatile__ (
    2de4:	9f e0       	ldi	r25, 0x0F	; 15
    2de6:	88 e1       	ldi	r24, 0x18	; 24
    2de8:	0f b6       	in	r0, 0x3f	; 63
    2dea:	f8 94       	cli
    2dec:	a8 95       	wdr
    2dee:	80 93 60 00 	sts	0x0060, r24
    2df2:	0f be       	out	0x3f, r0	; 63
    2df4:	90 93 60 00 	sts	0x0060, r25
	#ifdef WDT_enabled
	  wdt_enable(WDTO_2S);		//Watchdog on
	#endif
	#ifdef WITH_MENU
	  if (ii >= 60) {
    2df8:	1c 33       	cpi	r17, 0x3C	; 60
    2dfa:	89 f0       	breq	.+34     	; 0x2e1e <main+0xd2>
	#if ((LCD_ST_TYPE == 7565) || (LCD_ST_TYPE == 1306))
	  lcd_command(CMD_DISPLAY_ON);
	  lcd_command(CMD_SET_ALLPTS_NORMAL);		// 0xa4
	#endif
	  lcd_clear();			// clear the LCD
	  ADC_DDR = TXD_MSK;		// activate Software-UART 
    2dfc:	48 e0       	ldi	r20, 0x08	; 8
    2dfe:	94 2e       	mov	r9, r20
#endif
#if POWER_OFF+0 > 1
  empty_count++;
  mess_count = 0;
#endif
  max_time = SHORT_WAIT_TIME;		// use allways the short wait time
    2e00:	52 e1       	ldi	r21, 0x12	; 18
    2e02:	35 2e       	mov	r3, r21
  mess_count++;			// count measurements
#endif
  max_time = display_time;	// full specified wait time

 end2:
  ADC_DDR = (1<<TPRELAY) | TXD_MSK; 	// switch pin with reference to GND, release relay
    2e04:	68 e1       	ldi	r22, 0x18	; 24
    2e06:	86 2e       	mov	r8, r22
	  lcd_clear_line1();
	#else
	  lcd_clear();				// clear total display
	#endif

	  _trans = &ntrans;			// default transistor structure to show
    2e08:	79 e3       	ldi	r23, 0x39	; 57
    2e0a:	a7 2e       	mov	r10, r23
    2e0c:	71 e0       	ldi	r23, 0x01	; 1
    2e0e:	b7 2e       	mov	r11, r23
    unsigned char fetidx = 0;
    lcd_set_cursor(0,TEXT_RIGHT_TO_ICON);	// position behind the icon, Line 1
#endif
    if((PartMode&P_CHANNEL) == P_CHANNEL) {
       lcd_data('P');			//P-channel
       _trans = &ptrans;
    2e10:	e9 e5       	ldi	r30, 0x59	; 89
    2e12:	ce 2e       	mov	r12, r30
    2e14:	e1 e0       	ldi	r30, 0x01	; 1
    2e16:	de 2e       	mov	r13, r30
       if (((n_cpre == cap.cpre) && (cap.cval > n_cval))
					|| (cap.cpre > n_cpre)) {
          // the capacity value or dimension of the PNP B-E is greater than the NPN B-E
          PartMode = PART_MODE_PNP;
       } else {
          PartMode = PART_MODE_NPN;
    2e18:	fc e0       	ldi	r31, 0x0C	; 12
    2e1a:	2f 2e       	mov	r2, r31
    2e1c:	37 c0       	rjmp	.+110    	; 0x2e8c <main+0x140>
	#ifdef WDT_enabled
	  wdt_enable(WDTO_2S);		//Watchdog on
	#endif
	#ifdef WITH_MENU
	  if (ii >= 60) {
		while(function_menu());		// selection of function
    2e1e:	0e 94 b9 35 	call	0x6b72	; 0x6b72 <function_menu>
    2e22:	81 11       	cpse	r24, r1
    2e24:	fc cf       	rjmp	.-8      	; 0x2e1e <main+0xd2>
    2e26:	ea cf       	rjmp	.-44     	; 0x2dfc <main+0xb0>
 #else
  #warning Capacity measurement from high to low not possible for diodes without PULLUP_DISABLE option!
 #endif  /* PULLUP_DISABLE */
#endif
        goto end3;
     } else if(NumOfDiodes == 2) { // double diode
    2e28:	82 30       	cpi	r24, 0x02	; 2
    2e2a:	09 f4       	brne	.+2      	; 0x2e2e <main+0xe2>
    2e2c:	58 c1       	rjmp	.+688    	; 0x30de <main+0x392>
        if (diodes.Cathode[1] == diodes.Anode[0]) {
           diode_sequence = 0x10;	// 1 0
           SerienDiodenAusgabe();
           goto end3;
        }
     } else if(NumOfDiodes == 3) {
    2e2e:	83 30       	cpi	r24, 0x03	; 3
    2e30:	09 f4       	brne	.+2      	; 0x2e34 <main+0xe8>
    2e32:	81 c1       	rjmp	.+770    	; 0x3136 <main+0x3ea>
           lcd_MEM_string(Dioden);	//"Diodes "
           SerienDiodenAusgabe();
           goto end3;
        }
     }  // end (NumOfDiodes == 3)
     lcd_MEM_string(Bauteil);		//"Bauteil"
    2e34:	84 ec       	ldi	r24, 0xC4	; 196
    2e36:	92 e0       	ldi	r25, 0x02	; 2
    2e38:	0e 94 b5 0e 	call	0x1d6a	; 0x1d6a <lcd_fix_string>
     lcd_MEM_string(Unknown); 		//" unbek."
    2e3c:	88 ea       	ldi	r24, 0xA8	; 168
    2e3e:	92 e0       	ldi	r25, 0x02	; 2
    2e40:	0e 94 b5 0e 	call	0x1d6a	; 0x1d6a <lcd_fix_string>
     lcd_line2(); //2. row 
    2e44:	0e 94 23 0d 	call	0x1a46	; 0x1a46 <lcd_line2>
     lcd_data(NumOfDiodes + '0');
    2e48:	80 91 11 01 	lds	r24, 0x0111
    2e4c:	80 5d       	subi	r24, 0xD0	; 208
    2e4e:	0e 94 0c 0e 	call	0x1c18	; 0x1c18 <lcd_data>
     lcd_data('*');
    2e52:	8a e2       	ldi	r24, 0x2A	; 42
    2e54:	0e 94 0c 0e 	call	0x1c18	; 0x1c18 <lcd_data>
     lcd_MEM_string(AnKat_str);		//"->|-"
    2e58:	87 e3       	ldi	r24, 0x37	; 55
    2e5a:	91 e0       	ldi	r25, 0x01	; 1
    2e5c:	0e 94 b5 0e 	call	0x1d6a	; 0x1d6a <lcd_fix_string>
     lcd_MEM_string(Detected);		//" detected"
    2e60:	8e e8       	ldi	r24, 0x8E	; 142
    2e62:	92 e0       	ldi	r25, 0x02	; 2
  lcd_MEM_string(Bauteil);		//"campione"
  lcd_space();
  lcd_MEM_string(TestFailed2); 		//"guasto "
#else
  lcd_MEM_string(TestFailed2); 		//"defektes "
  lcd_MEM_string(Bauteil);		//"Bauteil"
    2e64:	0e 94 b5 0e 	call	0x1d6a	; 0x1d6a <lcd_fix_string>
#endif
not_known:
   uart_newline();		// MAURO added
    2e68:	0e 94 cb 0c 	call	0x1996	; 0x1996 <uart_newline>
#ifdef WITH_GRAPHICS
     lcd_big_icon(QUESTION);		// show big question mark
    2e6c:	86 e0       	ldi	r24, 0x06	; 6
    2e6e:	0e 94 c7 0d 	call	0x1b8e	; 0x1b8e <lcd_big_icon>
#endif
#if POWER_OFF+0 > 1
  empty_count++;
  mess_count = 0;
#endif
  max_time = SHORT_WAIT_TIME;		// use allways the short wait time
    2e72:	80 e4       	ldi	r24, 0x40	; 64
    2e74:	9f e1       	ldi	r25, 0x1F	; 31
  mess_count++;			// count measurements
#endif
  max_time = display_time;	// full specified wait time

 end2:
  ADC_DDR = (1<<TPRELAY) | TXD_MSK; 	// switch pin with reference to GND, release relay
    2e76:	87 b8       	out	0x07, r8	; 7
  lcd_refresh();			// write the pixels to display, ST7920 only
	while (!(RST_PIN_REG & (1 << RST_PIN)))
    2e78:	4f 9b       	sbis	0x09, 7	; 9
    2e7a:	fe cf       	rjmp	.-4      	; 0x2e78 <main+0x12c>
		;	//wait ,until button is released
#ifdef WITH_ROTARY_SWITCH
wait_again:
#endif
  ii = wait_for_key_ms(max_time);
    2e7c:	13 da       	rcall	.-3034   	; 0x22a4 <wait_for_key_ms>
    2e7e:	82 33       	cpi	r24, 0x32	; 50
#endif
#ifdef WITH_MENU
 #ifdef WITH_ROTARY_SWITCH
  if ((ii >=50) || (rotary.incre > 2))
 #else
  if (ii >= 50) 
    2e80:	08 f4       	brcc	.+2      	; 0x2e84 <main+0x138>
    2e82:	c9 c4       	rjmp	.+2450   	; 0x3816 <main+0xaca>
    2e84:	0e 94 b9 35 	call	0x6b72	; 0x6b72 <function_menu>
 #endif
  {
     // menu selected by long key press or rotary switch
		while(function_menu());// start the function menu
    2e88:	81 11       	cpse	r24, r1
    2e8a:	fc cf       	rjmp	.-8      	; 0x2e84 <main+0x138>
    2e8c:	8f ea       	ldi	r24, 0xAF	; 175

	//*****************************************************************
	//Entry: if start key is pressed before shut down
	loop_start:
	#if ((LCD_ST_TYPE == 7565) || (LCD_ST_TYPE == 1306))
	  lcd_command(CMD_DISPLAY_ON);
    2e8e:	0e 94 c2 0c 	call	0x1984	; 0x1984 <lcd_command>
    2e92:	84 ea       	ldi	r24, 0xA4	; 164
	  lcd_command(CMD_SET_ALLPTS_NORMAL);		// 0xa4
    2e94:	0e 94 c2 0c 	call	0x1984	; 0x1984 <lcd_command>
    2e98:	0e 94 d7 0c 	call	0x19ae	; 0x19ae <lcd_clear>
	#endif
	  lcd_clear();			// clear the LCD
    2e9c:	97 b8       	out	0x07, r9	; 7
	  ADC_DDR = TXD_MSK;		// activate Software-UART 
    2e9e:	92 da       	rcall	.-2780   	; 0x23c4 <init_parts>
          init_parts();			// reset parts info to nothing found
    2ea0:	0e 94 35 2a 	call	0x546a	; 0x546a <Calibrate_UR>
	  Calibrate_UR();		// get Ref Voltages and Pin resistance
    2ea4:	0e 94 d0 0c 	call	0x19a0	; 0x19a0 <lcd_line1>
	  lcd_line1();			// Cursor to 1. row, column 1
    2ea8:	36 d5       	rcall	.+2668   	; 0x3916 <Battery_check>
    2eaa:	80 91 34 01 	lds	r24, 0x0134
	  
	#ifdef BAT_CHECK
	  // Battery check is selected
        Battery_check();
    2eae:	88 23       	and	r24, r24
	  lcd_MEM_string(VERSION_str);		// if no Battery check, Version .. in row 1
	#endif	/* BAT_CHECK */

	  // begin tests
	#if FLASHEND > 0x1fff
	  if (WithReference) {
    2eb0:	79 f0       	breq	.+30     	; 0x2ed0 <main+0x184>
    2eb2:	0e 94 23 0d 	call	0x1a46	; 0x1a46 <lcd_line2>
    2eb6:	80 e5       	ldi	r24, 0x50	; 80
	 #if POWER_OFF+0 > 1
	     if ((mess_count == 0) && (empty_count == 0))
	 #endif
	     {
		 /* display VCC= only first time */
		 lcd_line2();
    2eb8:	91 e0       	ldi	r25, 0x01	; 1
    2eba:	0e 94 b5 0e 	call	0x1d6a	; 0x1d6a <lcd_fix_string>
		 lcd_MEM_string(VCC_str);		// VCC=
    2ebe:	63 e0       	ldi	r22, 0x03	; 3
    2ec0:	80 91 29 01 	lds	r24, 0x0129
		 Display_mV(ADCconfig.U_AVCC,3);	// Display 3 Digits of this mV units
    2ec4:	90 91 2a 01 	lds	r25, 0x012A
    2ec8:	8a d8       	rcall	.-3820   	; 0x1fde <Display_mV>
    2eca:	88 ec       	ldi	r24, 0xC8	; 200
    2ecc:	0e 94 9b 09 	call	0x1336	; 0x1336 <sleep_5ms>
    2ed0:	0e 94 23 0d 	call	0x1a46	; 0x1a46 <lcd_line2>
		 lcd_refresh();			// write the pixels to display, ST7920 only
		 wait_about1s();		// time to read the VCC= message
    2ed4:	0e 94 42 26 	call	0x4c84	; 0x4c84 <EntladePins>
	     wait_about300ms();		// delay to read the Vext= message
	  }
	#endif /* WITH_VEXT */

	#ifndef DebugOut
	  lcd_line2();			//LCD position row 2, column 1
    2ed8:	80 91 13 01 	lds	r24, 0x0113
	#endif
	  EntladePins();		// discharge all capacitors!
    2edc:	89 30       	cpi	r24, 0x09	; 9
    2ede:	21 f5       	brne	.+72     	; 0x2f28 <main+0x1dc>
	  if(PartFound == PART_CELL) {
    2ee0:	0e 94 d7 0c 	call	0x19ae	; 0x19ae <lcd_clear>
    2ee4:	85 e5       	ldi	r24, 0x55	; 85
    2ee6:	91 e0       	ldi	r25, 0x01	; 1
	    lcd_clear();
    2ee8:	0e 94 b5 0e 	call	0x1d6a	; 0x1d6a <lcd_fix_string>
	    lcd_MEM_string(Cell_str);	// display "Cell!"
    2eec:	0e 94 23 0d 	call	0x1a46	; 0x1a46 <lcd_line2>
    2ef0:	63 e0       	ldi	r22, 0x03	; 3
    2ef2:	80 91 4d 01 	lds	r24, 0x014D
	#if FLASHEND > 0x3fff
	    lcd_line2();		// use LCD line 2
    2ef6:	90 91 4e 01 	lds	r25, 0x014E
	    Display_mV(cell_mv[0],3);
    2efa:	71 d8       	rcall	.-3870   	; 0x1fde <Display_mV>
    2efc:	0e 94 59 0e 	call	0x1cb2	; 0x1cb2 <lcd_space>
    2f00:	63 e0       	ldi	r22, 0x03	; 3
    2f02:	80 91 4f 01 	lds	r24, 0x014F
	    lcd_space();
    2f06:	90 91 50 01 	lds	r25, 0x0150
	    Display_mV(cell_mv[1],3);
    2f0a:	69 d8       	rcall	.-3886   	; 0x1fde <Display_mV>
    2f0c:	0e 94 59 0e 	call	0x1cb2	; 0x1cb2 <lcd_space>
    2f10:	63 e0       	ldi	r22, 0x03	; 3
    2f12:	80 91 51 01 	lds	r24, 0x0151
    2f16:	90 91 52 01 	lds	r25, 0x0152
	    lcd_space();
    2f1a:	61 d8       	rcall	.-3902   	; 0x1fde <Display_mV>
	    Display_mV(cell_mv[2],3);
    2f1c:	8a ec       	ldi	r24, 0xCA	; 202
    2f1e:	0e 94 9b 09 	call	0x1336	; 0x1336 <sleep_5ms>
    2f22:	81 e1       	ldi	r24, 0x11	; 17
    2f24:	d6 da       	rcall	.-2644   	; 0x24d2 <AutoCheck>
    2f26:	72 c4       	rjmp	.+2276   	; 0x380c <main+0xac0>
    2f28:	8d e6       	ldi	r24, 0x6D	; 109
	#endif
	#ifdef WITH_SELFTEST
	    lcd_refresh();			// write the pixels to display, ST7920 only
	    wait_about2s();
    2f2a:	93 e0       	ldi	r25, 0x03	; 3
    2f2c:	0e 94 b0 3e 	call	0x7d60	; 0x7d60 <eeprom_read_byte>
	    AutoCheck(0x11);		// full Selftest with "Short probes" message
    2f30:	18 2f       	mov	r17, r24
    2f32:	8a e6       	ldi	r24, 0x6A	; 106
    2f34:	93 e0       	ldi	r25, 0x03	; 3
	#endif
	    goto tt_end;
    2f36:	0e 94 b0 3e 	call	0x7d60	; 0x7d60 <eeprom_read_byte>
	  }

	#ifdef WITH_SELFTEST
	 #ifdef AUTO_CAL
	  lcd_cursor_off();
	  UnCalibrated = (eeprom_read_byte(&c_zero_tab[3]) - eeprom_read_byte(&c_zero_tab[0]));
    2f3a:	18 1b       	sub	r17, r24
    2f3c:	10 93 31 01 	sts	0x0131, r17
    2f40:	80 e0       	ldi	r24, 0x00	; 0
    2f42:	c7 da       	rcall	.-2674   	; 0x24d2 <AutoCheck>
    2f44:	0e 94 a3 0e 	call	0x1d46	; 0x1d46 <lcd_clear_line2>
    2f48:	83 ee       	ldi	r24, 0xE3	; 227
    2f4a:	92 e0       	ldi	r25, 0x02	; 2
    2f4c:	0e 94 b5 0e 	call	0x1d6a	; 0x1d6a <lcd_fix_string>
	     // if calibrated, both c_zero_tab values are identical! c_zero_tab[3] is not used otherwise
	     lcd_cursor_on();
	  }
	 #endif
	 #ifdef WITH_MENU
	  AutoCheck(0x00);			//check, if selftest should be done, only calibration
    2f50:	83 e0       	ldi	r24, 0x03	; 3
    2f52:	0e 94 62 09 	call	0x12c4	; 0x12c4 <uart_putc>
	 #else
	  AutoCheck(0x01);			//check, if selftest should be done, full selftest without MENU
	 #endif
	#endif
	#if FLASHEND > 0x1fff
          lcd_clear_line2();			//LCD position row2, column 1
    2f56:	0e 94 cb 0c 	call	0x1996	; 0x1996 <uart_newline>
        #else
          lcd_line2();				//LCD position row2, column 1
        #endif
	  lcd_MEM_string(TestRunning);		//String: testing...
    2f5a:	42 e0       	ldi	r20, 0x02	; 2
    2f5c:	61 e0       	ldi	r22, 0x01	; 1
    2f5e:	80 e0       	ldi	r24, 0x00	; 0
    2f60:	4e d5       	rcall	.+2716   	; 0x39fe <CheckPins>
	  lcd_refresh();			// write the pixels to display, ST7920 only
	 #ifdef WITH_UART
	    uart_putc(0x03);		// ETX, start of new measurement 
    2f62:	42 e0       	ldi	r20, 0x02	; 2
    2f64:	60 e0       	ldi	r22, 0x00	; 0
    2f66:	81 e0       	ldi	r24, 0x01	; 1
	    uart_newline();			 // MAURO Added
    2f68:	4a d5       	rcall	.+2708   	; 0x39fe <CheckPins>
    2f6a:	41 e0       	ldi	r20, 0x01	; 1
	 #endif
//
	  // check all 6 combinations for the 3 pins 
	//         High  Low  Tri
	  CheckPins(TP1, TP2, TP3);
    2f6c:	62 e0       	ldi	r22, 0x02	; 2
    2f6e:	80 e0       	ldi	r24, 0x00	; 0
    2f70:	46 d5       	rcall	.+2700   	; 0x39fe <CheckPins>
    2f72:	41 e0       	ldi	r20, 0x01	; 1
    2f74:	60 e0       	ldi	r22, 0x00	; 0
	  CheckPins(TP2, TP1, TP3);
    2f76:	82 e0       	ldi	r24, 0x02	; 2
    2f78:	42 d5       	rcall	.+2692   	; 0x39fe <CheckPins>
    2f7a:	40 e0       	ldi	r20, 0x00	; 0
    2f7c:	62 e0       	ldi	r22, 0x02	; 2
    2f7e:	81 e0       	ldi	r24, 0x01	; 1

	  CheckPins(TP1, TP3, TP2);
    2f80:	3e d5       	rcall	.+2684   	; 0x39fe <CheckPins>
    2f82:	40 e0       	ldi	r20, 0x00	; 0
    2f84:	61 e0       	ldi	r22, 0x01	; 1
    2f86:	82 e0       	ldi	r24, 0x02	; 2
    2f88:	3a d5       	rcall	.+2676   	; 0x39fe <CheckPins>
	  CheckPins(TP3, TP1, TP2);
    2f8a:	80 91 13 01 	lds	r24, 0x0113
    2f8e:	81 11       	cpse	r24, r1
    2f90:	0e c0       	rjmp	.+28     	; 0x2fae <main+0x262>
    2f92:	0e 94 42 26 	call	0x4c84	; 0x4c84 <EntladePins>

	  CheckPins(TP2, TP3, TP1);
    2f96:	60 e0       	ldi	r22, 0x00	; 0
    2f98:	82 e0       	ldi	r24, 0x02	; 2
    2f9a:	0e 94 12 27 	call	0x4e24	; 0x4e24 <ReadCapacity>
	  CheckPins(TP3, TP2, TP1);
    2f9e:	61 e0       	ldi	r22, 0x01	; 1
    2fa0:	82 e0       	ldi	r24, 0x02	; 2
    2fa2:	0e 94 12 27 	call	0x4e24	; 0x4e24 <ReadCapacity>
    2fa6:	60 e0       	ldi	r22, 0x00	; 0

	  // Capacity measurement is only possible correctly with two Pins connected.
	  // A third connected pin will increase the capacity value!
	//  if(((PartFound == PART_NONE) || (PartFound == PART_RESISTOR) || (PartFound == PART_DIODE)) ) {
	  if(PartFound == PART_NONE) {
    2fa8:	81 e0       	ldi	r24, 0x01	; 1
    2faa:	0e 94 12 27 	call	0x4e24	; 0x4e24 <ReadCapacity>
    2fae:	0e 94 d7 0c 	call	0x19ae	; 0x19ae <lcd_clear>
	     // If no part is found yet, check separate if is is a capacitor
#ifdef DebugOut
	     lcd_data('C');
#endif
	     EntladePins();		// discharge capacities
    2fb2:	b0 92 37 01 	sts	0x0137, r11
	     //measurement of capacities in all 3 combinations
	     ReadCapacity(TP3, TP1);
    2fb6:	a0 92 36 01 	sts	0x0136, r10
    2fba:	80 91 13 01 	lds	r24, 0x0113
#ifdef DebugOut
	     lcd_data('K');
#endif
	#if DebugOut != 10
	     ReadCapacity(TP3, TP2);
    2fbe:	86 30       	cpi	r24, 0x06	; 6
    2fc0:	69 f4       	brne	.+26     	; 0x2fdc <main+0x290>
    2fc2:	85 ec       	ldi	r24, 0xC5	; 197
#ifdef DebugOut
	     lcd_data('K');
#endif
	     ReadCapacity(TP2, TP1);
    2fc4:	0e 94 c7 0d 	call	0x1b8e	; 0x1b8e <lcd_big_icon>
    2fc8:	60 e1       	ldi	r22, 0x10	; 16
    2fca:	88 ef       	ldi	r24, 0xF8	; 248
	#ifdef DebugOut 
	  // only clear two lines of LCD

	  lcd_clear_line1();
	#else
	  lcd_clear();				// clear total display
    2fcc:	2e d8       	rcall	.-4004   	; 0x202a <lcd_draw_trans_pins>
    2fce:	67 e0       	ldi	r22, 0x07	; 7
	#endif

	  _trans = &ntrans;			// default transistor structure to show
    2fd0:	80 e0       	ldi	r24, 0x00	; 0
    2fd2:	0e 94 a4 0c 	call	0x1948	; 0x1948 <lcd_set_cursor>
    2fd6:	82 eb       	ldi	r24, 0xB2	; 178
	  if (PartFound == PART_THYRISTOR) {
    2fd8:	92 e0       	ldi	r25, 0x02	; 2
    2fda:	0e c0       	rjmp	.+28     	; 0x2ff8 <main+0x2ac>
    2fdc:	87 30       	cpi	r24, 0x07	; 7
    2fde:	f1 f4       	brne	.+60     	; 0x301c <main+0x2d0>
#ifdef WITH_GRAPHICS
            lcd_big_icon(THYRISTOR|LCD_UPPER_LEFT);
    2fe0:	84 ec       	ldi	r24, 0xC4	; 196
    2fe2:	0e 94 c7 0d 	call	0x1b8e	; 0x1b8e <lcd_big_icon>
            lcd_draw_trans_pins(-8, 16);
    2fe6:	60 e1       	ldi	r22, 0x10	; 16
    2fe8:	88 ef       	ldi	r24, 0xF8	; 248
    2fea:	1f d8       	rcall	.-4034   	; 0x202a <lcd_draw_trans_pins>
    2fec:	67 e0       	ldi	r22, 0x07	; 7
            lcd_set_cursor(0,TEXT_RIGHT_TO_ICON);		// position behind the icon, Line 1
    2fee:	80 e0       	ldi	r24, 0x00	; 0
    2ff0:	0e 94 a4 0c 	call	0x1948	; 0x1948 <lcd_set_cursor>
    2ff4:	8b eb       	ldi	r24, 0xBB	; 187
	    lcd_MEM_string(Thyristor);		//"Thyristor"
    2ff6:	92 e0       	ldi	r25, 0x02	; 2
    2ff8:	0e 94 b5 0e 	call	0x1d6a	; 0x1d6a <lcd_fix_string>
            PinLayout(Cathode_char,'G','A'); 	// CGA= or 123=...
#endif
            goto TyUfAusgabe;
          }

  if (PartFound == PART_TRIAC) {
    2ffc:	67 e0       	ldi	r22, 0x07	; 7
    2ffe:	82 e0       	ldi	r24, 0x02	; 2
#ifdef WITH_GRAPHICS
    lcd_big_icon(TRIAC|LCD_UPPER_LEFT);
    3000:	0e 94 a4 0c 	call	0x1948	; 0x1948 <lcd_set_cursor>
    3004:	89 e6       	ldi	r24, 0x69	; 105
    lcd_draw_trans_pins(-8, 16);
    3006:	91 e0       	ldi	r25, 0x01	; 1
    3008:	0e 94 b5 0e 	call	0x1d6a	; 0x1d6a <lcd_fix_string>
    300c:	62 e0       	ldi	r22, 0x02	; 2
    lcd_set_cursor(0,TEXT_RIGHT_TO_ICON);		// position behind the icon, Line 1
    300e:	80 91 3d 01 	lds	r24, 0x013D
    3012:	90 91 3e 01 	lds	r25, 0x013E
    lcd_MEM_string(Triac);		//"Triac"
    3016:	0e 94 ef 0f 	call	0x1fde	; 0x1fde <Display_mV>
    301a:	f6 c3       	rjmp	.+2028   	; 0x3808 <main+0xabc>
    301c:	88 30       	cpi	r24, 0x08	; 8
//gakAusgabe:
//  PinLayout(Cathode_char,'G','A'); 	// CGA= or 123=...
TyUfAusgabe:
#ifdef WITH_THYRISTOR_GATE_V
 #ifdef WITH_GRAPHICS
  lcd_set_cursor(1*PAGES_PER_LINE,TEXT_RIGHT_TO_ICON);		// position behind the icon,line 2
    301e:	81 f4       	brne	.+32     	; 0x3040 <main+0x2f4>
    3020:	20 91 83 01 	lds	r18, 0x0183
    3024:	80 91 84 01 	lds	r24, 0x0184
 #else
  lcd_line2(); //2. row 
 #endif
  lcd_MEM_string(Uf_str);		// "Uf="
    3028:	90 e0       	ldi	r25, 0x00	; 0
    302a:	82 0f       	add	r24, r18
    302c:	91 1d       	adc	r25, r1
 #ifdef WITH_PUT
  Display_mV(_trans->uBE,2);    // needed instead of ntrans for PUT, but costs 4 bytes more flash...
 #else
  Display_mV(ntrans.uBE,2);
    302e:	02 97       	sbiw	r24, 0x02	; 2
    3030:	19 f4       	brne	.+6      	; 0x3038 <main+0x2ec>
    3032:	0e 94 89 2c 	call	0x5912	; 0x5912 <show_Cap13>
    3036:	f1 c3       	rjmp	.+2018   	; 0x381a <main+0xace>
    3038:	80 e0       	ldi	r24, 0x00	; 0
    303a:	0e 94 bb 2b 	call	0x5776	; 0x5776 <show_cap>
 #endif	 /* SamplingADC */
      goto tt_end;
   }
#endif /* WITH_UJT */

  if (PartFound == PART_CAPACITOR) {
    303e:	e6 c3       	rjmp	.+1996   	; 0x380c <main+0xac0>
    3040:	83 30       	cpi	r24, 0x03	; 3
#if FLASHEND > 0x3fff
     if ((cap.ca + cap.cb) == (TP1 + TP3)) {
    3042:	09 f0       	breq	.+2      	; 0x3046 <main+0x2fa>
    3044:	b6 c0       	rjmp	.+364    	; 0x31b2 <main+0x466>
    3046:	80 91 11 01 	lds	r24, 0x0111
    304a:	81 30       	cpi	r24, 0x01	; 1
    304c:	09 f0       	breq	.+2      	; 0x3050 <main+0x304>
    304e:	ec ce       	rjmp	.-552    	; 0x2e28 <main+0xdc>
    3050:	80 e0       	ldi	r24, 0x00	; 0
    3052:	0e 94 3a 09 	call	0x1274	; 0x1274 <DiodeSymbol_withPins>
        show_Cap13();		// repeated capacity measurement
    3056:	60 91 89 01 	lds	r22, 0x0189
        goto shut_off;		// key was pressed or timeout
     }
     show_cap(0);		// show capacity in normal way and measure additional parameters
    305a:	80 91 8f 01 	lds	r24, 0x018F
    305e:	2d de       	rcall	.-934    	; 0x2cba <GetIr>
#else
     show_cap_simple();		// show capacity in normal way and measure additional parameters
#endif
     goto tt_end;
    3060:	80 e7       	ldi	r24, 0x70	; 112
      goto tt_end;
  }
#endif

  // ========================================
  if(PartFound == PART_DIODE) {
    3062:	0e 94 13 09 	call	0x1226	; 0x1226 <UfAusgabe>
    3066:	40 e0       	ldi	r20, 0x00	; 0
  // ========================================
     if(NumOfDiodes == 1) {		//single Diode
    3068:	60 91 89 01 	lds	r22, 0x0189
    306c:	80 91 8f 01 	lds	r24, 0x018F
    3070:	0e 94 b1 38 	call	0x7162	; 0x7162 <sampling_cap>
//        lcd_MEM_string(Diode);		//"Diode: "
#if FLASHEND > 0x1fff
        // enough memory (>8k) to sort the pins and additional Ir=
        DiodeSymbol_withPins(0);
    3074:	60 93 73 01 	sts	0x0173, r22
	GetIr(diodes.Cathode[0],diodes.Anode[0]);	// measure and output Ir=x.xuA
    3078:	70 93 74 01 	sts	0x0174, r23
    307c:	80 93 75 01 	sts	0x0175, r24
    3080:	90 93 76 01 	sts	0x0176, r25
#else
        // too less memory to sort the pins
        DiodeSymbol_withPins(0);
#endif
        UfAusgabe(0x70);		// mark for additional resistor and output Uf= in line 2
    3084:	80 e0       	ldi	r24, 0x00	; 0
    3086:	0e 94 97 0e 	call	0x1d2e	; 0x1d2e <lcd_next_line_wait>
           DisplayValue(cap.cval,cap.cpre,'F',2);
 #endif
        }
#else  // SamplingADC
showdiodecap:
        cap.cval=sampling_cap(diodes.Cathode[0],diodes.Anode[0],0);   // at low voltage
    308a:	60 91 73 01 	lds	r22, 0x0173
    308e:	70 91 74 01 	lds	r23, 0x0174
    3092:	80 91 75 01 	lds	r24, 0x0175
    3096:	90 91 76 01 	lds	r25, 0x0176
    309a:	02 e0       	ldi	r16, 0x02	; 2
    309c:	26 e4       	ldi	r18, 0x46	; 70
    309e:	42 ef       	ldi	r20, 0xF2	; 242
    30a0:	0e 94 fb 0e 	call	0x1df6	; 0x1df6 <DisplayValue>
    30a4:	8d e2       	ldi	r24, 0x2D	; 45
    30a6:	0e 94 0c 0e 	call	0x1c18	; 0x1c18 <lcd_data>
        lcd_next_line_wait(0);		// next line, wait 5s and clear line 2
    30aa:	41 e0       	ldi	r20, 0x01	; 1
    30ac:	60 91 89 01 	lds	r22, 0x0189
        DisplayValue(cap.cval,sampling_cap_pre,'F',2);
    30b0:	80 91 8f 01 	lds	r24, 0x018F
    30b4:	0e 94 b1 38 	call	0x7162	; 0x7162 <sampling_cap>
    30b8:	60 93 73 01 	sts	0x0173, r22
    30bc:	70 93 74 01 	sts	0x0174, r23
    30c0:	80 93 75 01 	sts	0x0175, r24
    30c4:	90 93 76 01 	sts	0x0176, r25
 #ifdef PULLUP_DISABLE
        lcd_data('-');
    30c8:	26 e4       	ldi	r18, 0x46	; 70
    30ca:	42 ef       	ldi	r20, 0xF2	; 242
    30cc:	0e 94 fb 0e 	call	0x1df6	; 0x1df6 <DisplayValue>
        cap.cval=sampling_cap(diodes.Cathode[0],diodes.Anode[0],1);   // at high voltage
    30d0:	8c e2       	ldi	r24, 0x2C	; 44
    30d2:	91 e0       	ldi	r25, 0x01	; 1
    30d4:	0e 94 b5 0e 	call	0x1d6a	; 0x1d6a <lcd_fix_string>
    30d8:	0e 94 cb 0c 	call	0x1996	; 0x1996 <uart_newline>
    30dc:	f8 c2       	rjmp	.+1520   	; 0x36ce <main+0x982>
    30de:	82 e3       	ldi	r24, 0x32	; 50
    30e0:	0e 94 0c 0e 	call	0x1c18	; 0x1c18 <lcd_data>
    30e4:	8d e1       	ldi	r24, 0x1D	; 29
    30e6:	91 e0       	ldi	r25, 0x01	; 1
    30e8:	0e 94 b5 0e 	call	0x1d6a	; 0x1d6a <lcd_fix_string>
        if (cap.cval < 0) cap.cval = 0;		// don't show negativ value
        DisplayValue(cap.cval,sampling_cap_pre,'F',2);
    30ec:	80 91 89 01 	lds	r24, 0x0189
    30f0:	20 91 8a 01 	lds	r18, 0x018A
  #if LCD_LINE_LENGTH > 16
        lcd_MEM_string(AT05volt);	// " @0-5V"
    30f4:	82 13       	cpse	r24, r18
    30f6:	07 c0       	rjmp	.+14     	; 0x3106 <main+0x3ba>
    30f8:	80 e0       	ldi	r24, 0x00	; 0
    30fa:	0e 94 54 09 	call	0x12a8	; 0x12a8 <DiodeSymbol_CpinApin>
  #else
        lcd_MEM_string(AT05volt+1);	// "@0-5V"
  #endif
        uart_newline();			// MAURO Diode ('A')
    30fe:	81 e0       	ldi	r24, 0x01	; 1
 #else
  #warning Capacity measurement from high to low not possible for diodes without PULLUP_DISABLE option!
 #endif  /* PULLUP_DISABLE */
#endif
        goto end3;
    3100:	0e 94 4c 09 	call	0x1298	; 0x1298 <DiodeSymbol_ACpin>
     } else if(NumOfDiodes == 2) { // double diode
        lcd_data('2');
    3104:	0c c0       	rjmp	.+24     	; 0x311e <main+0x3d2>
    3106:	30 91 8f 01 	lds	r19, 0x018F
        lcd_MEM_string(Dioden);		//"diodes "
    310a:	90 91 90 01 	lds	r25, 0x0190
    310e:	39 13       	cpse	r19, r25
        if(diodes.Anode[0] == diodes.Anode[1]) { //Common Anode
    3110:	08 c0       	rjmp	.+16     	; 0x3122 <main+0x3d6>
    3112:	80 e0       	ldi	r24, 0x00	; 0
    3114:	0e 94 46 09 	call	0x128c	; 0x128c <DiodeSymbol_ApinCpin>
    3118:	81 e0       	ldi	r24, 0x01	; 1
    311a:	0e 94 5a 09 	call	0x12b4	; 0x12b4 <DiodeSymbol_CApin>
           DiodeSymbol_CpinApin(0);	// 1-|<-2
    311e:	81 e0       	ldi	r24, 0x01	; 1
    3120:	a0 cf       	rjmp	.-192    	; 0x3062 <main+0x316>
           DiodeSymbol_ACpin(1);	//  ->|-3
    3122:	32 13       	cpse	r19, r18
    3124:	02 c0       	rjmp	.+4      	; 0x312a <main+0x3de>
    3126:	81 e0       	ldi	r24, 0x01	; 1
    3128:	03 c0       	rjmp	.+6      	; 0x3130 <main+0x3e4>
           goto showdiodecap;   // double diodes are often varicap; measure capacitance of one of them
#else
           goto end3;
#endif
        } 
        if(diodes.Cathode[0] == diodes.Cathode[1]) { //Common Cathode
    312a:	98 13       	cpse	r25, r24
    312c:	83 ce       	rjmp	.-762    	; 0x2e34 <main+0xe8>
    312e:	80 e1       	ldi	r24, 0x10	; 16
    3130:	80 93 06 01 	sts	0x0106, r24
    3134:	30 c0       	rjmp	.+96     	; 0x3196 <main+0x44a>
           DiodeSymbol_ApinCpin(0);	// 1->|-2
    3136:	83 e3       	ldi	r24, 0x33	; 51
    3138:	80 93 06 01 	sts	0x0106, r24
           DiodeSymbol_CApin(1);	//  -|<-3
    313c:	80 91 8f 01 	lds	r24, 0x018F
    3140:	90 91 8a 01 	lds	r25, 0x018A
           UfAusgabe(0x01);
    3144:	89 13       	cpse	r24, r25
#else
           goto end3;
#endif
//        else if ((diodes.Cathode[0] == diodes.Anode[1]) && (diodes.Cathode[1] == diodes.Anode[0])) 
        } 
        if (diodes.Cathode[0] == diodes.Anode[1]) {
    3146:	03 c0       	rjmp	.+6      	; 0x314e <main+0x402>
    3148:	21 e0       	ldi	r18, 0x01	; 1
           // normaly two serial diodes are detected as three diodes, but if the threshold is high
           // for both diodes, the third diode is not detected.
           // can also be Antiparallel
           diode_sequence = 0x01;	// 0 1
    314a:	20 93 06 01 	sts	0x0106, r18
           SerienDiodenAusgabe();
           goto end3;
        } 
        if (diodes.Cathode[1] == diodes.Anode[0]) {
    314e:	40 91 89 01 	lds	r20, 0x0189
           diode_sequence = 0x10;	// 1 0
    3152:	30 91 90 01 	lds	r19, 0x0190
    3156:	43 13       	cpse	r20, r19
    3158:	03 c0       	rjmp	.+6      	; 0x3160 <main+0x414>
           SerienDiodenAusgabe();
           goto end3;
        }
     } else if(NumOfDiodes == 3) {
        //Serial of 2 Diodes; was detected as 3 Diodes 
        diode_sequence = 0x33;	// 3 3
    315a:	20 e1       	ldi	r18, 0x10	; 16
    315c:	20 93 06 01 	sts	0x0106, r18
        /* Check for any constellation of 2 serial diodes:
          Only once the pin No of anyone Cathode is identical of another anode.
          two diodes in series is additionally detected as third big diode.
        */
			if (diodes.Cathode[0] == diodes.Anode[1]) {
    3160:	20 91 8b 01 	lds	r18, 0x018B
    3164:	82 13       	cpse	r24, r18
    3166:	03 c0       	rjmp	.+6      	; 0x316e <main+0x422>
    3168:	82 e0       	ldi	r24, 0x02	; 2
    316a:	80 93 06 01 	sts	0x0106, r24
           diode_sequence = 0x01;	// 0 1
    316e:	80 91 91 01 	lds	r24, 0x0191
          }
			if (diodes.Anode[0] == diodes.Cathode[1]) {
    3172:	48 13       	cpse	r20, r24
    3174:	03 c0       	rjmp	.+6      	; 0x317c <main+0x430>
    3176:	40 e2       	ldi	r20, 0x20	; 32
    3178:	40 93 06 01 	sts	0x0106, r20
    317c:	32 13       	cpse	r19, r18
           diode_sequence = 0x10;	// 1 0
    317e:	0e c0       	rjmp	.+28     	; 0x319c <main+0x450>
    3180:	30 92 06 01 	sts	0x0106, r3
          }
			if (diodes.Cathode[0] == diodes.Anode[2]) {
    3184:	98 17       	cp	r25, r24
    3186:	61 f0       	breq	.+24     	; 0x31a0 <main+0x454>
    3188:	83 e3       	ldi	r24, 0x33	; 51
    318a:	0e 94 0c 0e 	call	0x1c18	; 0x1c18 <lcd_data>
           diode_sequence = 0x02;	// 0 2
    318e:	8d e1       	ldi	r24, 0x1D	; 29
    3190:	91 e0       	ldi	r25, 0x01	; 1
          }
			if (diodes.Anode[0] == diodes.Cathode[2]) {
    3192:	0e 94 b5 0e 	call	0x1d6a	; 0x1d6a <lcd_fix_string>
    3196:	0e 94 29 09 	call	0x1252	; 0x1252 <SerienDiodenAusgabe>
           diode_sequence = 0x20;	// 2 0
    319a:	99 c2       	rjmp	.+1330   	; 0x36ce <main+0x982>
    319c:	98 13       	cpse	r25, r24
    319e:	03 c0       	rjmp	.+6      	; 0x31a6 <main+0x45a>
          }
			if (diodes.Cathode[1] == diodes.Anode[2]) {
    31a0:	81 e2       	ldi	r24, 0x21	; 33
    31a2:	80 93 06 01 	sts	0x0106, r24
           diode_sequence = 0x12;	// 1 2
    31a6:	80 91 06 01 	lds	r24, 0x0106
          }
			if (diodes.Anode[1] == diodes.Cathode[2]) {
    31aa:	82 32       	cpi	r24, 0x22	; 34
           diode_sequence = 0x21;	// 2 1
          }
//        if((ptrans.b<3) && (ptrans.c<3)) 
        if(diode_sequence < 0x22) {
           lcd_data('3');
    31ac:	08 f0       	brcs	.+2      	; 0x31b0 <main+0x464>
    31ae:	42 ce       	rjmp	.-892    	; 0x2e34 <main+0xe8>
    31b0:	eb cf       	rjmp	.-42     	; 0x3188 <main+0x43c>
           lcd_MEM_string(Dioden);	//"Diodes "
    31b2:	84 30       	cpi	r24, 0x04	; 4
    31b4:	09 f0       	breq	.+2      	; 0x31b8 <main+0x46c>
    31b6:	54 c1       	rjmp	.+680    	; 0x3460 <main+0x714>
    31b8:	80 91 68 01 	lds	r24, 0x0168
           SerienDiodenAusgabe();
    31bc:	88 23       	and	r24, r24
           goto end3;
    31be:	09 f4       	brne	.+2      	; 0x31c2 <main+0x476>
           diode_sequence = 0x20;	// 2 0
          }
			if (diodes.Cathode[1] == diodes.Anode[2]) {
           diode_sequence = 0x12;	// 1 2
          }
			if (diodes.Anode[1] == diodes.Cathode[2]) {
    31c0:	5f c0       	rjmp	.+190    	; 0x3280 <main+0x534>
    31c2:	80 91 48 01 	lds	r24, 0x0148
           diode_sequence = 0x21;	// 2 1
    31c6:	88 23       	and	r24, r24
    31c8:	09 f4       	brne	.+2      	; 0x31cc <main+0x480>
          }
//        if((ptrans.b<3) && (ptrans.c<3)) 
        if(diode_sequence < 0x22) {
    31ca:	5a c0       	rjmp	.+180    	; 0x3280 <main+0x534>
    31cc:	60 91 45 01 	lds	r22, 0x0145
    31d0:	80 91 47 01 	lds	r24, 0x0147
    31d4:	0e 94 12 27 	call	0x4e24	; 0x4e24 <ReadCapacity>
     lcd_MEM_string(AnKat_str);		//"->|-"
     lcd_MEM_string(Detected);		//" detected"
     goto not_known;
     // end (PartFound == PART_DIODE)
  // ========================================
  } else if (PartFound == PART_TRANSISTOR) {
    31d8:	40 90 73 01 	lds	r4, 0x0173
  // ========================================
#ifdef SEARCH_PARASITIC
    if ((ptrans.count != 0) && (ntrans.count !=0)) {
    31dc:	50 90 74 01 	lds	r5, 0x0174
    31e0:	60 90 75 01 	lds	r6, 0x0175
    31e4:	70 90 76 01 	lds	r7, 0x0176
    31e8:	10 91 85 01 	lds	r17, 0x0185
    31ec:	60 91 67 01 	lds	r22, 0x0167
       // Special Handling of NPNp and PNPn Transistor.
       // If a protection diode is built on the same structur as the NPN-Transistor,
       // a parasitic PNP-Transistor will be detected. 
       ReadCapacity(ntrans.e, ntrans.b);	// read capacity of NPN base-emitter
    31f0:	80 91 65 01 	lds	r24, 0x0165
    31f4:	0e 94 12 27 	call	0x4e24	; 0x4e24 <ReadCapacity>
    31f8:	80 91 39 01 	lds	r24, 0x0139
       n_cval = cap.cval;			// save the found capacity value
    31fc:	90 91 3a 01 	lds	r25, 0x013A
    3200:	a0 91 3b 01 	lds	r26, 0x013B
    3204:	b0 91 3c 01 	lds	r27, 0x013C
    3208:	40 91 59 01 	lds	r20, 0x0159
       n_cpre  = cap.cpre;			// and dimension
    320c:	50 91 5a 01 	lds	r21, 0x015A
       ReadCapacity(ptrans.b, ptrans.e);	// read capacity of PNP base-emitter
    3210:	60 91 5b 01 	lds	r22, 0x015B
    3214:	70 91 5c 01 	lds	r23, 0x015C
    3218:	84 3f       	cpi	r24, 0xF4	; 244
    321a:	21 e0       	ldi	r18, 0x01	; 1
       // check if one hfe is very low. If yes, simulate a very low BE capacity
       if ((ntrans.hfe < 500) && (ptrans.hfe >= 500)) n_cpre = -16; // set NPN BE capacity to low value
    321c:	92 07       	cpc	r25, r18
    321e:	a1 05       	cpc	r26, r1
    3220:	b1 05       	cpc	r27, r1
    3222:	38 f4       	brcc	.+14     	; 0x3232 <main+0x4e6>
    3224:	44 3f       	cpi	r20, 0xF4	; 244
    3226:	31 e0       	ldi	r19, 0x01	; 1
    3228:	53 07       	cpc	r21, r19
    322a:	61 05       	cpc	r22, r1
    322c:	71 05       	cpc	r23, r1
    322e:	08 f0       	brcs	.+2      	; 0x3232 <main+0x4e6>
    3230:	10 ef       	ldi	r17, 0xF0	; 240
    3232:	44 3f       	cpi	r20, 0xF4	; 244
    3234:	51 40       	sbci	r21, 0x01	; 1
    3236:	61 05       	cpc	r22, r1
    3238:	71 05       	cpc	r23, r1
    323a:	40 f4       	brcc	.+16     	; 0x324c <main+0x500>
    323c:	84 3f       	cpi	r24, 0xF4	; 244
    323e:	91 40       	sbci	r25, 0x01	; 1
    3240:	a1 05       	cpc	r26, r1
    3242:	b1 05       	cpc	r27, r1
    3244:	18 f0       	brcs	.+6      	; 0x324c <main+0x500>
    3246:	80 ef       	ldi	r24, 0xF0	; 240
    3248:	80 93 85 01 	sts	0x0185, r24
    324c:	80 91 85 01 	lds	r24, 0x0185
    3250:	18 13       	cpse	r17, r24
    3252:	0e c0       	rjmp	.+28     	; 0x3270 <main+0x524>
    3254:	80 91 73 01 	lds	r24, 0x0173
       if ((ptrans.hfe < 500) && (ntrans.hfe >= 500)) cap.cpre = -16; // set PNP BE capacity to low value
    3258:	90 91 74 01 	lds	r25, 0x0174
    325c:	a0 91 75 01 	lds	r26, 0x0175
    3260:	b0 91 76 01 	lds	r27, 0x0176
    3264:	48 16       	cp	r4, r24
    3266:	59 06       	cpc	r5, r25
    3268:	6a 06       	cpc	r6, r26
    326a:	7b 06       	cpc	r7, r27
    326c:	18 f0       	brcs	.+6      	; 0x3274 <main+0x528>
    326e:	06 c0       	rjmp	.+12     	; 0x327c <main+0x530>

       if (((n_cpre == cap.cpre) && (cap.cval > n_cval))
    3270:	18 17       	cp	r17, r24
    3272:	24 f4       	brge	.+8      	; 0x327c <main+0x530>
    3274:	9d e0       	ldi	r25, 0x0D	; 13
    3276:	90 93 12 01 	sts	0x0112, r25
    327a:	02 c0       	rjmp	.+4      	; 0x3280 <main+0x534>
    327c:	20 92 12 01 	sts	0x0112, r2
    3280:	80 91 68 01 	lds	r24, 0x0168
    3284:	88 23       	and	r24, r24
    3286:	61 f0       	breq	.+24     	; 0x32a0 <main+0x554>
    3288:	80 91 48 01 	lds	r24, 0x0148
    328c:	88 23       	and	r24, r24
    328e:	41 f0       	breq	.+16     	; 0x32a0 <main+0x554>
    3290:	4f 99       	sbic	0x09, 7	; 9
    3292:	06 c0       	rjmp	.+12     	; 0x32a0 <main+0x554>
					|| (cap.cpre > n_cpre)) {
    3294:	90 91 12 01 	lds	r25, 0x0112
          // the capacity value or dimension of the PNP B-E is greater than the NPN B-E
          PartMode = PART_MODE_PNP;
    3298:	81 e0       	ldi	r24, 0x01	; 1
    329a:	89 27       	eor	r24, r25
    329c:	80 93 12 01 	sts	0x0112, r24
       } else {
          PartMode = PART_MODE_NPN;
    32a0:	67 e0       	ldi	r22, 0x07	; 7
    32a2:	80 e0       	ldi	r24, 0x00	; 0
       }
    }  /* end ((ptrans.count != 0) && (ntrans.count !=0)) */
#endif
    // not possible for mega8, change Pin sequence instead.
		if ((ptrans.count != 0) && (ntrans.count != 0)
    32a4:	0e 94 a4 0c 	call	0x1948	; 0x1948 <lcd_set_cursor>
    32a8:	80 ec       	ldi	r24, 0xC0	; 192
    32aa:	0e 94 c7 0d 	call	0x1b8e	; 0x1b8e <lcd_big_icon>
    32ae:	80 91 12 01 	lds	r24, 0x0112
    32b2:	8c 30       	cpi	r24, 0x0C	; 12
				&& (!(RST_PIN_REG & (1 << RST_PIN)))) {
    32b4:	51 f4       	brne	.+20     	; 0x32ca <main+0x57e>
    32b6:	85 e8       	ldi	r24, 0x85	; 133
          PartMode = PART_MODE_PNP;	// switch to parasitic transistor
       } else {
          PartMode = PART_MODE_NPN;	// switch to parasitic transistor
       }
#else
       PartMode ^= (PART_MODE_PNP - PART_MODE_NPN);
    32b8:	91 e0       	ldi	r25, 0x01	; 1
    32ba:	0e 94 b5 0e 	call	0x1d6a	; 0x1d6a <lcd_fix_string>
    32be:	80 91 68 01 	lds	r24, 0x0168
    32c2:	88 23       	and	r24, r24
#endif
    }

#ifdef WITH_GRAPHICS
    lcd_set_cursor(0,TEXT_RIGHT_TO_ICON);			// position behind the icon, Line 1
    32c4:	a9 f0       	breq	.+42     	; 0x32f0 <main+0x5a4>
    32c6:	80 e7       	ldi	r24, 0x70	; 112
    32c8:	11 c0       	rjmp	.+34     	; 0x32ec <main+0x5a0>
    32ca:	d0 92 37 01 	sts	0x0137, r13
    lcd_big_icon(BJT_NPN|LCD_UPPER_LEFT);	// show the NPN Icon at lower left corner
    32ce:	c0 92 36 01 	sts	0x0136, r12
    if(PartMode == PART_MODE_NPN) {
    32d2:	8b ed       	ldi	r24, 0xDB	; 219
    32d4:	91 e0       	ldi	r25, 0x01	; 1
    32d6:	0e 94 09 0e 	call	0x1c12	; 0x1c12 <lcd_update_icon>
//       _trans = &ntrans;  is allready selected a default
       lcd_MEM_string(NPN_str);		//"NPN "
    32da:	8d e7       	ldi	r24, 0x7D	; 125
    32dc:	91 e0       	ldi	r25, 0x01	; 1
    32de:	0e 94 b5 0e 	call	0x1d6a	; 0x1d6a <lcd_fix_string>
       if (ptrans.count != 0) {
    32e2:	80 91 48 01 	lds	r24, 0x0148
    32e6:	88 23       	and	r24, r24
    32e8:	19 f0       	breq	.+6      	; 0x32f0 <main+0x5a4>
          lcd_data('p');		// mark for parasitic PNp
    32ea:	8e e6       	ldi	r24, 0x6E	; 110
    32ec:	0e 94 0c 0e 	call	0x1c18	; 0x1c18 <lcd_data>
       }
    } else {
       _trans = &ptrans;		// change transistor structure
    32f0:	3a d8       	rcall	.-3980   	; 0x2366 <search_vak_diode>
    32f2:	18 2f       	mov	r17, r24
    32f4:	85 30       	cpi	r24, 0x05	; 5
       lcd_update_icon(bmp_pnp);	// update for PNP
    32f6:	a0 f4       	brcc	.+40     	; 0x3320 <main+0x5d4>
    32f8:	a0 91 36 01 	lds	r26, 0x0136
    32fc:	b0 91 37 01 	lds	r27, 0x0137
       lcd_MEM_string(PNP_str);		//"PNP "
    3300:	e8 2f       	mov	r30, r24
    3302:	f0 e0       	ldi	r31, 0x00	; 0
    3304:	e7 57       	subi	r30, 0x77	; 119
       if (ntrans.count != 0) {
    3306:	fe 4f       	sbci	r31, 0xFE	; 254
    3308:	1d 96       	adiw	r26, 0x0d	; 13
    330a:	9c 91       	ld	r25, X
    330c:	80 81       	ld	r24, Z
          lcd_data('n');		// mark for parasitic NPn
    330e:	98 17       	cp	r25, r24
    3310:	11 f0       	breq	.+4      	; 0x3316 <main+0x5ca>
    3312:	62 e0       	ldi	r22, 0x02	; 2
    }
    lcd_space();
#endif

    // show the protection diode of the BJT
    vak_diode_nr = search_vak_diode();
    3314:	01 c0       	rjmp	.+2      	; 0x3318 <main+0x5cc>
    3316:	60 e0       	ldi	r22, 0x00	; 0
    3318:	86 ea       	ldi	r24, 0xA6	; 166
    if (vak_diode_nr < 5) {
    331a:	91 e0       	ldi	r25, 0x01	; 1
    331c:	0e 94 f3 0d 	call	0x1be6	; 0x1be6 <lcd_update_icon_opt>
    // no side of the diode is connected to the base, this must be the protection diode   
#ifdef WITH_GRAPHICS
       options = 0;
       if (_trans->c != diodes.Anode[vak_diode_nr])
    3320:	60 e1       	ldi	r22, 0x10	; 16
    3322:	89 ef       	ldi	r24, 0xF9	; 249
    3324:	0e 94 15 10 	call	0x202a	; 0x202a <lcd_draw_trans_pins>
    3328:	87 e0       	ldi	r24, 0x07	; 7
    332a:	0e 94 73 0e 	call	0x1ce6	; 0x1ce6 <lcd_next_line>
    332e:	84 e9       	ldi	r24, 0x94	; 148
    3330:	91 e0       	ldi	r25, 0x01	; 1
    3332:	0e 94 b5 0e 	call	0x1d6a	; 0x1d6a <lcd_fix_string>
    3336:	e0 91 36 01 	lds	r30, 0x0136
          options |= OPT_VREVERSE;
    333a:	f0 91 37 01 	lds	r31, 0x0137
       lcd_update_icon_opt(bmp_vakdiode,options);	// show the protection diode right to the Icon
    333e:	60 81       	ld	r22, Z
    3340:	71 81       	ldd	r23, Z+1	; 0x01
    3342:	82 81       	ldd	r24, Z+2	; 0x02
    3344:	93 81       	ldd	r25, Z+3	; 0x03
       }
#endif    /* !WITH_GRAPHICS */
    }  /* endif vak_diode_nr < 6 */

#ifdef WITH_GRAPHICS
    lcd_draw_trans_pins(-7, 16);	// show the pin numbers
    3346:	03 e0       	ldi	r16, 0x03	; 3
    3348:	20 e0       	ldi	r18, 0x00	; 0
    334a:	4e ef       	ldi	r20, 0xFE	; 254
    334c:	0e 94 fb 0e 	call	0x1df6	; 0x1df6 <DisplayValue>
    lcd_next_line(TEXT_RIGHT_TO_ICON);	// position behind the icon, Line 2
    3350:	88 e0       	ldi	r24, 0x08	; 8
    3352:	0e 94 73 0e 	call	0x1ce6	; 0x1ce6 <lcd_next_line>
    lcd_MEM_string(hfe_str);		//"B="  (hFE)
    3356:	89 e4       	ldi	r24, 0x49	; 73
    3358:	0e 94 0c 0e 	call	0x1c18	; 0x1c18 <lcd_data>
    DisplayValue(_trans->hfe,-2,0,3);
    335c:	e0 91 36 01 	lds	r30, 0x0136
    3360:	f0 91 37 01 	lds	r31, 0x0137
    3364:	86 81       	ldd	r24, Z+6	; 0x06
    3366:	97 81       	ldd	r25, Z+7	; 0x07
    3368:	80 31       	cpi	r24, 0x10	; 16
    336a:	97 42       	sbci	r25, 0x27	; 39
    336c:	70 f0       	brcs	.+28     	; 0x338a <main+0x63e>
    336e:	85 e6       	ldi	r24, 0x65	; 101
    3370:	0e 94 0c 0e 	call	0x1c18	; 0x1c18 <lcd_data>
    3374:	e0 91 36 01 	lds	r30, 0x0136

    lcd_next_line(TEXT_RIGHT_TO_ICON+1-LOW_H_SPACE); // position behind the icon+1, Line 3
    3378:	f0 91 37 01 	lds	r31, 0x0137
    lcd_data('I');
    337c:	86 81       	ldd	r24, Z+6	; 0x06
    337e:	97 81       	ldd	r25, Z+7	; 0x07
    3380:	80 51       	subi	r24, 0x10	; 16
    if (_trans->current >= 10000) {
    3382:	97 42       	sbci	r25, 0x27	; 39
    3384:	97 83       	std	Z+7, r25	; 0x07
    3386:	86 83       	std	Z+6, r24	; 0x06
    3388:	03 c0       	rjmp	.+6      	; 0x3390 <main+0x644>
    338a:	83 e6       	ldi	r24, 0x63	; 99
    338c:	0e 94 0c 0e 	call	0x1c18	; 0x1c18 <lcd_data>
    3390:	0e 94 a7 0e 	call	0x1d4e	; 0x1d4e <lcd_equal>
       lcd_data('e');				// emitter current has 10mA offset
    3394:	e0 91 36 01 	lds	r30, 0x0136
    3398:	f0 91 37 01 	lds	r31, 0x0137
       _trans->current -= 10000;
    339c:	22 e0       	ldi	r18, 0x02	; 2
    339e:	41 e4       	ldi	r20, 0x41	; 65
    33a0:	6a ef       	ldi	r22, 0xFA	; 250
    33a2:	86 81       	ldd	r24, Z+6	; 0x06
    33a4:	97 81       	ldd	r25, Z+7	; 0x07
    33a6:	0e 94 e4 0f 	call	0x1fc8	; 0x1fc8 <DisplayValue16>
    33aa:	87 e0       	ldi	r24, 0x07	; 7
    33ac:	0e 94 73 0e 	call	0x1ce6	; 0x1ce6 <lcd_next_line>
    } else {
       lcd_data('c');
    33b0:	8d e6       	ldi	r24, 0x6D	; 109
    33b2:	91 e0       	ldi	r25, 0x01	; 1
    33b4:	0e 94 b5 0e 	call	0x1d6a	; 0x1d6a <lcd_fix_string>
    }
    lcd_equal();			// lcd_data('=');
    33b8:	e0 91 36 01 	lds	r30, 0x0136
    DisplayValue16(_trans->current,-6,'A',2);	// display Ic or Ie current
    33bc:	f0 91 37 01 	lds	r31, 0x0137
    33c0:	63 e0       	ldi	r22, 0x03	; 3
    33c2:	84 81       	ldd	r24, Z+4	; 0x04
    33c4:	95 81       	ldd	r25, Z+5	; 0x05
    33c6:	0e 94 ef 0f 	call	0x1fde	; 0x1fde <Display_mV>
    33ca:	81 e0       	ldi	r24, 0x01	; 1
    33cc:	80 93 38 01 	sts	0x0138, r24

    lcd_next_line(TEXT_RIGHT_TO_ICON); // position behind the icon, Line 4
    33d0:	e0 91 36 01 	lds	r30, 0x0136
    33d4:	f0 91 37 01 	lds	r31, 0x0137
    lcd_MEM_string(Ube_str);		//"Ube="
    33d8:	80 85       	ldd	r24, Z+8	; 0x08
    33da:	91 85       	ldd	r25, Z+9	; 0x09
    33dc:	89 2b       	or	r24, r25
    Display_mV(_trans->uBE,3-LOW_H_SPACE);
    33de:	91 f0       	breq	.+36     	; 0x3404 <main+0x6b8>
    33e0:	86 e0       	ldi	r24, 0x06	; 6
    33e2:	0e 94 97 0e 	call	0x1d2e	; 0x1d2e <lcd_next_line_wait>
    33e6:	8f ef       	ldi	r24, 0xFF	; 255
    33e8:	90 e0       	ldi	r25, 0x00	; 0
    33ea:	0e 94 b5 0e 	call	0x1d6a	; 0x1d6a <lcd_fix_string>
    33ee:	e0 91 36 01 	lds	r30, 0x0136
    last_line_used = 1;
    33f2:	f0 91 37 01 	lds	r31, 0x0137

 #ifdef SHOW_ICE
    if (_trans->ice0 > 0) {
    33f6:	22 e0       	ldi	r18, 0x02	; 2
    33f8:	41 e4       	ldi	r20, 0x41	; 65
    33fa:	6a ef       	ldi	r22, 0xFA	; 250
    33fc:	80 85       	ldd	r24, Z+8	; 0x08
    33fe:	91 85       	ldd	r25, Z+9	; 0x09
    3400:	0e 94 e4 0f 	call	0x1fc8	; 0x1fc8 <DisplayValue16>
    3404:	e0 91 36 01 	lds	r30, 0x0136
       lcd_next_line_wait(TEXT_RIGHT_TO_ICON-1-LOW_H_SPACE); // position behind the icon, Line 4 & wait and clear last line
    3408:	f0 91 37 01 	lds	r31, 0x0137
       lcd_MEM2_string(ICE0_str);		// "ICE0="
    340c:	82 85       	ldd	r24, Z+10	; 0x0a
    340e:	93 85       	ldd	r25, Z+11	; 0x0b
    3410:	89 2b       	or	r24, r25
    3412:	91 f0       	breq	.+36     	; 0x3438 <main+0x6ec>
       DisplayValue16(_trans->ice0,-6,'A',2);	// display ICEO
    3414:	86 e0       	ldi	r24, 0x06	; 6
    3416:	0e 94 97 0e 	call	0x1d2e	; 0x1d2e <lcd_next_line_wait>
    341a:	89 ef       	ldi	r24, 0xF9	; 249
    341c:	90 e0       	ldi	r25, 0x00	; 0
    341e:	0e 94 b5 0e 	call	0x1d6a	; 0x1d6a <lcd_fix_string>
    3422:	e0 91 36 01 	lds	r30, 0x0136
    3426:	f0 91 37 01 	lds	r31, 0x0137
    }
    if (_trans->ices > 0) {
    342a:	22 e0       	ldi	r18, 0x02	; 2
    342c:	41 e4       	ldi	r20, 0x41	; 65
    342e:	6a ef       	ldi	r22, 0xFA	; 250
    3430:	82 85       	ldd	r24, Z+10	; 0x0a
    3432:	93 85       	ldd	r25, Z+11	; 0x0b
    3434:	0e 94 e4 0f 	call	0x1fc8	; 0x1fc8 <DisplayValue16>
    3438:	15 30       	cpi	r17, 0x05	; 5
       lcd_next_line_wait(TEXT_RIGHT_TO_ICON-1-LOW_H_SPACE); // position behind the icon, Line 4 & wait and clear last line
    343a:	78 f4       	brcc	.+30     	; 0x345a <main+0x70e>
    343c:	80 e0       	ldi	r24, 0x00	; 0
    343e:	0e 94 97 0e 	call	0x1d2e	; 0x1d2e <lcd_next_line_wait>
       lcd_MEM2_string(ICEs_str);		// "ICEs="
    3442:	81 2f       	mov	r24, r17
    3444:	0e 94 3a 09 	call	0x1274	; 0x1274 <DiodeSymbol_withPins>
       DisplayValue16(_trans->ices,-6,'A',2);	// display ICEs
    3448:	89 e6       	ldi	r24, 0x69	; 105
    344a:	91 e0       	ldi	r25, 0x01	; 1
    344c:	0e 94 b5 0e 	call	0x1d6a	; 0x1d6a <lcd_fix_string>
    3450:	81 2f       	mov	r24, r17
    3452:	0e 94 05 09 	call	0x120a	; 0x120a <mVAusgabe>
    3456:	0e 94 cb 0c 	call	0x1996	; 0x1996 <uart_newline>
    345a:	43 e4       	ldi	r20, 0x43	; 67
    345c:	62 e4       	ldi	r22, 0x42	; 66
       DisplayValue16(_trans->ices,-6,'A',3);
    }
 #endif
#endif  /* WITH_GRAPHICS */
#ifdef SHOW_VAKDIODE
    if (vak_diode_nr < 5) {
    345e:	33 c1       	rjmp	.+614    	; 0x36c6 <main+0x97a>
    3460:	85 30       	cpi	r24, 0x05	; 5
       lcd_next_line_wait(0); 		// next line, wait 5s and clear line 2/4
    3462:	09 f0       	breq	.+2      	; 0x3466 <main+0x71a>
    3464:	40 c1       	rjmp	.+640    	; 0x36e6 <main+0x99a>
    3466:	67 e0       	ldi	r22, 0x07	; 7
       DiodeSymbol_withPins(vak_diode_nr);
    3468:	80 e0       	ldi	r24, 0x00	; 0
    346a:	0e 94 a4 0c 	call	0x1948	; 0x1948 <lcd_set_cursor>
       lcd_MEM_string(Uf_str);			//"Uf="
    346e:	80 91 12 01 	lds	r24, 0x0112
    3472:	84 ff       	sbrs	r24, 4
    3474:	09 c0       	rjmp	.+18     	; 0x3488 <main+0x73c>
       mVAusgabe(vak_diode_nr);
    3476:	80 e5       	ldi	r24, 0x50	; 80
    3478:	0e 94 0c 0e 	call	0x1c18	; 0x1c18 <lcd_data>
       uart_newline();			// MAURO not verified ('D')
    347c:	d0 92 37 01 	sts	0x0137, r13
    } /* end if (vak_diode_nr < 5) */
#endif
#ifdef WITH_GRAPHICS
    PinLayoutLine('E','B','C'); 		//  Pin 1=E ...
    3480:	c0 92 36 01 	sts	0x0136, r12
    3484:	12 e0       	ldi	r17, 0x02	; 2
#endif
    goto tt_end;
    // end (PartFound == PART_TRANSISTOR)

  // ========================================
  } else if (PartFound == PART_FET) {	/* JFET or MOSFET */
    3486:	04 c0       	rjmp	.+8      	; 0x3490 <main+0x744>
    3488:	8e e4       	ldi	r24, 0x4E	; 78
    348a:	0e 94 0c 0e 	call	0x1c18	; 0x1c18 <lcd_data>
  // ========================================
#ifdef WITH_GRAPHICS
    unsigned char fetidx = 0;
    lcd_set_cursor(0,TEXT_RIGHT_TO_ICON);	// position behind the icon, Line 1
    348e:	10 e0       	ldi	r17, 0x00	; 0
    3490:	8d e2       	ldi	r24, 0x2D	; 45
    3492:	0e 94 0c 0e 	call	0x1c18	; 0x1c18 <lcd_data>
#endif
    if((PartMode&P_CHANNEL) == P_CHANNEL) {
    3496:	80 91 12 01 	lds	r24, 0x0112
    349a:	08 2f       	mov	r16, r24
       lcd_data('P');			//P-channel
    349c:	0f 70       	andi	r16, 0x0F	; 15
    349e:	04 30       	cpi	r16, 0x04	; 4
    34a0:	61 f4       	brne	.+24     	; 0x34ba <main+0x76e>
       _trans = &ptrans;
    34a2:	8f e9       	ldi	r24, 0x9F	; 159
    34a4:	91 e0       	ldi	r25, 0x01	; 1
    34a6:	0e 94 b5 0e 	call	0x1d6a	; 0x1d6a <lcd_fix_string>
#ifdef WITH_GRAPHICS
       fetidx = 2;
    34aa:	83 ec       	ldi	r24, 0xC3	; 195
    34ac:	0e 94 c7 0d 	call	0x1b8e	; 0x1b8e <lcd_big_icon>
#endif
    } else {
       lcd_data('N');			//N-channel
    34b0:	11 23       	and	r17, r17
    34b2:	e1 f1       	breq	.+120    	; 0x352c <main+0x7e0>

  // ========================================
  } else if (PartFound == PART_FET) {	/* JFET or MOSFET */
  // ========================================
#ifdef WITH_GRAPHICS
    unsigned char fetidx = 0;
    34b4:	84 ee       	ldi	r24, 0xE4	; 228
#endif
    } else {
       lcd_data('N');			//N-channel
//       _trans = &ntrans;	is allready selected as default
    }
    lcd_data('-');		// minus is used for JFET, D-MOS, E-MOS ...
    34b6:	91 e0       	ldi	r25, 0x01	; 1
    34b8:	37 c0       	rjmp	.+110    	; 0x3528 <main+0x7dc>
    34ba:	85 ff       	sbrs	r24, 5

    uint8_t part_code;
    part_code = PartMode&0x0f;
    34bc:	05 c0       	rjmp	.+10     	; 0x34c8 <main+0x77c>
    34be:	84 e4       	ldi	r24, 0x44	; 68
    34c0:	0e 94 0c 0e 	call	0x1c18	; 0x1c18 <lcd_data>
#ifdef WITH_GRAPHICS
    if (part_code == PART_MODE_JFET) {
    34c4:	1f 5f       	subi	r17, 0xFF	; 255
    34c6:	03 c0       	rjmp	.+6      	; 0x34ce <main+0x782>
       lcd_MEM_string(jfet_str);	//"JFET"
    34c8:	85 e4       	ldi	r24, 0x45	; 69
    34ca:	0e 94 0c 0e 	call	0x1c18	; 0x1c18 <lcd_data>
    34ce:	03 30       	cpi	r16, 0x03	; 3
       lcd_big_icon(N_JFET|LCD_UPPER_LEFT);
    34d0:	b1 f4       	brne	.+44     	; 0x34fe <main+0x7b2>
    34d2:	89 e9       	ldi	r24, 0x99	; 153
    34d4:	91 e0       	ldi	r25, 0x01	; 1
       if (fetidx != 0) {
    34d6:	0e 94 b5 0e 	call	0x1d6a	; 0x1d6a <lcd_fix_string>
          lcd_update_icon(bmp_p_jfet); // update the n_jfet bitmap to p_jfet
    34da:	81 ec       	ldi	r24, 0xC1	; 193
    34dc:	0e 94 c7 0d 	call	0x1b8e	; 0x1b8e <lcd_big_icon>
       }
    } else {		// no JFET
       if ((PartMode&D_MODE) == D_MODE) {
    34e0:	11 30       	cpi	r17, 0x01	; 1
    34e2:	19 f4       	brne	.+6      	; 0x34ea <main+0x79e>
          lcd_data('D');			// N-D or P-D
    34e4:	81 e3       	ldi	r24, 0x31	; 49
    34e6:	92 e0       	ldi	r25, 0x02	; 2
    34e8:	1f c0       	rjmp	.+62     	; 0x3528 <main+0x7dc>
          fetidx += 1;
    34ea:	12 30       	cpi	r17, 0x02	; 2
    34ec:	19 f4       	brne	.+6      	; 0x34f4 <main+0x7a8>
       } else {
          lcd_data('E');			// N-E or P-E
    34ee:	8d e3       	ldi	r24, 0x3D	; 61
    34f0:	92 e0       	ldi	r25, 0x02	; 2
    34f2:	1a c0       	rjmp	.+52     	; 0x3528 <main+0x7dc>
       }
       if (part_code == (PART_MODE_IGBT)) {
    34f4:	13 30       	cpi	r17, 0x03	; 3
    34f6:	d1 f4       	brne	.+52     	; 0x352c <main+0x7e0>
          lcd_MEM_string(igbt_str);	//"-IGBT"
    34f8:	8d e0       	ldi	r24, 0x0D	; 13
    34fa:	92 e0       	ldi	r25, 0x02	; 2
    34fc:	15 c0       	rjmp	.+42     	; 0x3528 <main+0x7dc>
    34fe:	84 ea       	ldi	r24, 0xA4	; 164
          lcd_big_icon(N_E_IGBT|LCD_UPPER_LEFT);
    3500:	91 e0       	ldi	r25, 0x01	; 1
    3502:	0e 94 b5 0e 	call	0x1d6a	; 0x1d6a <lcd_fix_string>
          if (fetidx == 1)  lcd_update_icon(bmp_n_d_igbt);
    3506:	82 ec       	ldi	r24, 0xC2	; 194
    3508:	0e 94 c7 0d 	call	0x1b8e	; 0x1b8e <lcd_big_icon>
    350c:	11 30       	cpi	r17, 0x01	; 1
    350e:	19 f4       	brne	.+6      	; 0x3516 <main+0x7ca>
          if (fetidx == 2)  lcd_update_icon(bmp_p_e_igbt);
    3510:	8d ef       	ldi	r24, 0xFD	; 253
    3512:	91 e0       	ldi	r25, 0x01	; 1
    3514:	09 c0       	rjmp	.+18     	; 0x3528 <main+0x7dc>
    3516:	12 30       	cpi	r17, 0x02	; 2
    3518:	19 f4       	brne	.+6      	; 0x3520 <main+0x7d4>
          if (fetidx == 3)  lcd_update_icon(bmp_p_d_igbt);
    351a:	83 e0       	ldi	r24, 0x03	; 3
    351c:	92 e0       	ldi	r25, 0x02	; 2
    351e:	04 c0       	rjmp	.+8      	; 0x3528 <main+0x7dc>
    3520:	13 30       	cpi	r17, 0x03	; 3
    3522:	21 f4       	brne	.+8      	; 0x352c <main+0x7e0>
       } else {
          lcd_MEM_string(mosfet_str);	//"-MOS "
    3524:	8b ee       	ldi	r24, 0xEB	; 235
    3526:	91 e0       	ldi	r25, 0x01	; 1
    3528:	0e 94 09 0e 	call	0x1c12	; 0x1c12 <lcd_update_icon>
          lcd_big_icon(N_E_MOS|LCD_UPPER_LEFT);
    352c:	0e 94 b3 11 	call	0x2366	; 0x2366 <search_vak_diode>
    3530:	85 30       	cpi	r24, 0x05	; 5
          if (fetidx == 1)  lcd_update_icon(bmp_n_d_mos);
    3532:	a0 f4       	brcc	.+40     	; 0x355c <main+0x810>
    3534:	a0 91 36 01 	lds	r26, 0x0136
    3538:	b0 91 37 01 	lds	r27, 0x0137
          if (fetidx == 2)  lcd_update_icon(bmp_p_e_mos);
    353c:	e8 2f       	mov	r30, r24
    353e:	f0 e0       	ldi	r31, 0x00	; 0
    3540:	e7 57       	subi	r30, 0x77	; 119
    3542:	fe 4f       	sbci	r31, 0xFE	; 254
    3544:	1d 96       	adiw	r26, 0x0d	; 13
          if (fetidx == 3)  lcd_update_icon(bmp_p_d_mos);
    3546:	9c 91       	ld	r25, X
    3548:	80 81       	ld	r24, Z
    354a:	98 17       	cp	r25, r24
    354c:	11 f0       	breq	.+4      	; 0x3552 <main+0x806>
    354e:	62 e0       	ldi	r22, 0x02	; 2
    3550:	01 c0       	rjmp	.+2      	; 0x3554 <main+0x808>
    } else {
       PinLayout('S','G','D'); 		//  SGD= or 123=...
    }
#endif  /* WITH_GRAPHICS */

    vak_diode_nr = search_vak_diode();
    3552:	60 e0       	ldi	r22, 0x00	; 0
    3554:	86 ea       	ldi	r24, 0xA6	; 166
    if(vak_diode_nr < 5) {
    3556:	91 e0       	ldi	r25, 0x01	; 1
    3558:	0e 94 f3 0d 	call	0x1be6	; 0x1be6 <lcd_update_icon_opt>
       }
 #endif
#endif  /* not WITH_GRAPHICS */
#ifdef WITH_GRAPHICS
       options = 0;
       if (_trans->c != diodes.Anode[vak_diode_nr])
    355c:	60 e1       	ldi	r22, 0x10	; 16
    355e:	89 ef       	ldi	r24, 0xF9	; 249
    3560:	0e 94 15 10 	call	0x202a	; 0x202a <lcd_draw_trans_pins>
    3564:	87 e0       	ldi	r24, 0x07	; 7
    3566:	0e 94 73 0e 	call	0x1ce6	; 0x1ce6 <lcd_next_line>
    356a:	80 91 12 01 	lds	r24, 0x0112
    356e:	85 fd       	sbrc	r24, 5
    3570:	1c c0       	rjmp	.+56     	; 0x35aa <main+0x85e>
    3572:	85 e6       	ldi	r24, 0x65	; 101
          options |= OPT_VREVERSE;
    3574:	91 e0       	ldi	r25, 0x01	; 1
    3576:	0e 94 b5 0e 	call	0x1d6a	; 0x1d6a <lcd_fix_string>
       lcd_update_icon_opt(bmp_vakdiode,options);	// update Icon with protection diode
    357a:	e0 91 36 01 	lds	r30, 0x0136
    357e:	f0 91 37 01 	lds	r31, 0x0137
#endif

    } /* end if NumOfDiodes == 1 */

#ifdef WITH_GRAPHICS
    lcd_draw_trans_pins(-7, 16);	// update of pin numbers must be done after diode update
    3582:	62 e0       	ldi	r22, 0x02	; 2
    3584:	82 85       	ldd	r24, Z+10	; 0x0a
    3586:	93 85       	ldd	r25, Z+11	; 0x0b
    3588:	0e 94 ef 0f 	call	0x1fde	; 0x1fde <Display_mV>
    lcd_next_line(TEXT_RIGHT_TO_ICON);	// position text behind the icon, Line 2
    358c:	e0 91 36 01 	lds	r30, 0x0136
 #if LCD_LINES > 6
       lcd_next_line(TEXT_RIGHT_TO_ICON);	// double line
 #endif
    if((PartMode&D_MODE) != D_MODE) {	//enhancement-MOSFET
    3590:	f0 91 37 01 	lds	r31, 0x0137
    3594:	66 85       	ldd	r22, Z+14	; 0x0e
    3596:	84 85       	ldd	r24, Z+12	; 0x0c
       lcd_MEM_string(vt_str+1);		// "Vt="
    3598:	0e 94 12 27 	call	0x4e24	; 0x4e24 <ReadCapacity>
    359c:	87 e0       	ldi	r24, 0x07	; 7
    359e:	0e 94 73 0e 	call	0x1ce6	; 0x1ce6 <lcd_next_line>
       Display_mV(_trans->gthvoltage,2);	//Gate-threshold voltage
    35a2:	0e 94 cf 0e 	call	0x1d9e	; 0x1d9e <lcd_show_Cg>
    35a6:	86 e0       	ldi	r24, 0x06	; 6
    35a8:	6e c0       	rjmp	.+220    	; 0x3686 <main+0x93a>
    35aa:	8f 70       	andi	r24, 0x0F	; 15
    35ac:	e0 91 36 01 	lds	r30, 0x0136
    35b0:	f0 91 37 01 	lds	r31, 0x0137
	//Gate capacity
       ReadCapacity(_trans->b,_trans->e);	//measure capacity
    35b4:	84 30       	cpi	r24, 0x04	; 4
    35b6:	39 f0       	breq	.+14     	; 0x35c6 <main+0x87a>
    35b8:	66 85       	ldd	r22, Z+14	; 0x0e
    35ba:	84 85       	ldd	r24, Z+12	; 0x0c
    35bc:	0e 94 12 27 	call	0x4e24	; 0x4e24 <ReadCapacity>
    35c0:	0e 94 cf 0e 	call	0x1d9e	; 0x1d9e <lcd_show_Cg>
       lcd_next_line(TEXT_RIGHT_TO_ICON);	// position text behind the icon, Line 3
    35c4:	13 c0       	rjmp	.+38     	; 0x35ec <main+0x8a0>
    35c6:	84 81       	ldd	r24, Z+4	; 0x04
       lcd_show_Cg();	// show Cg=xxxpF
    35c8:	95 81       	ldd	r25, Z+5	; 0x05
    35ca:	89 2b       	or	r24, r25
 #ifdef SHOW_R_DS
       lcd_show_rds(TEXT_RIGHT_TO_ICON-1); 	// show RDS at column behind the icon -1
    35cc:	79 f0       	breq	.+30     	; 0x35ec <main+0x8a0>
    35ce:	80 e0       	ldi	r24, 0x00	; 0
 #endif
    } else {   /* depletion mode */
       if ((PartMode&0x0f)  != PART_MODE_JFET) {     /* kein JFET */
    35d0:	90 e0       	ldi	r25, 0x00	; 0
    35d2:	0e 94 b5 0e 	call	0x1d6a	; 0x1d6a <lcd_fix_string>
    35d6:	e0 91 36 01 	lds	r30, 0x0136
    35da:	f0 91 37 01 	lds	r31, 0x0137
          ReadCapacity(_trans->b,_trans->e);	//measure capacity
    35de:	22 e0       	ldi	r18, 0x02	; 2
    35e0:	41 e4       	ldi	r20, 0x41	; 65
    35e2:	6a ef       	ldi	r22, 0xFA	; 250
    35e4:	84 81       	ldd	r24, Z+4	; 0x04
          lcd_show_Cg();	// show Cg=xxxpF
    35e6:	95 81       	ldd	r25, Z+5	; 0x05
    35e8:	0e 94 e4 0f 	call	0x1fc8	; 0x1fc8 <DisplayValue16>
  #ifdef FET_Idss
       } else { 	// it is a JFET
          // display the I_DSS, if measured
          if (_trans->uBE!=0) {
    35ec:	60 e0       	ldi	r22, 0x00	; 0
    35ee:	84 e0       	ldi	r24, 0x04	; 4
    35f0:	0e 94 a4 0c 	call	0x1948	; 0x1948 <lcd_set_cursor>
             static const unsigned char str_Idss[] MEM_TEXT = "Idss=";
             lcd_MEM_string(str_Idss);
    35f4:	89 e4       	ldi	r24, 0x49	; 73
    35f6:	0e 94 0c 0e 	call	0x1c18	; 0x1c18 <lcd_data>
    35fa:	84 e6       	ldi	r24, 0x64	; 100
             DisplayValue16(_trans->uBE,-6,'A',2);
    35fc:	0e 94 0c 0e 	call	0x1c18	; 0x1c18 <lcd_data>
    3600:	0e 94 a7 0e 	call	0x1d4e	; 0x1d4e <lcd_equal>
    3604:	e0 91 36 01 	lds	r30, 0x0136
    3608:	f0 91 37 01 	lds	r31, 0x0137
    360c:	22 e0       	ldi	r18, 0x02	; 2
    360e:	41 e4       	ldi	r20, 0x41	; 65
    3610:	6a ef       	ldi	r22, 0xFA	; 250
       // set cursor below the icon
  #define LINE_BELOW_ICON ((ICON_HEIGHT/8)/((FONT_HEIGHT+7)/8))
 #if LCD_LINES > 6
       lcd_set_cursor((LINE_BELOW_ICON + 1) * PAGES_PER_LINE,0);
 #else
       lcd_set_cursor(LINE_BELOW_ICON * PAGES_PER_LINE,0);
    3612:	86 81       	ldd	r24, Z+6	; 0x06
    3614:	97 81       	ldd	r25, Z+7	; 0x07
    3616:	0e 94 e4 0f 	call	0x1fc8	; 0x1fc8 <DisplayValue16>
 #endif
       lcd_data('I');
    361a:	8f e5       	ldi	r24, 0x5F	; 95
    361c:	91 e0       	ldi	r25, 0x01	; 1
    361e:	0e 94 b5 0e 	call	0x1d6a	; 0x1d6a <lcd_fix_string>
 #if (LCD_LINE_LENGTH > 17)
       lcd_data('d');
    3622:	e0 91 36 01 	lds	r30, 0x0136
 #endif
       lcd_equal();			// lcd_data('=');
    3626:	f0 91 37 01 	lds	r31, 0x0137
       DisplayValue16(_trans->current,-6,'A',2);
    362a:	62 e0       	ldi	r22, 0x02	; 2
    362c:	82 85       	ldd	r24, Z+10	; 0x0a
    362e:	93 85       	ldd	r25, Z+11	; 0x0b
    3630:	0e 94 ef 0f 	call	0x1fde	; 0x1fde <Display_mV>
    3634:	e0 91 36 01 	lds	r30, 0x0136
    3638:	f0 91 37 01 	lds	r31, 0x0137
    363c:	80 85       	ldd	r24, Z+8	; 0x08
    363e:	91 85       	ldd	r25, Z+9	; 0x09
       lcd_MEM_string(Vgs_str);		// "@Vg="
    3640:	80 3c       	cpi	r24, 0xC0	; 192
    3642:	92 41       	sbci	r25, 0x12	; 18
    3644:	f8 f4       	brcc	.+62     	; 0x3684 <main+0x938>
    3646:	80 e0       	ldi	r24, 0x00	; 0
       Display_mV(_trans->gthvoltage,2);	//Gate-threshold voltage
    3648:	0e 94 97 0e 	call	0x1d2e	; 0x1d2e <lcd_next_line_wait>
    364c:	89 e4       	ldi	r24, 0x49	; 73
    364e:	0e 94 0c 0e 	call	0x1c18	; 0x1c18 <lcd_data>
    3652:	84 e6       	ldi	r24, 0x64	; 100
    3654:	0e 94 0c 0e 	call	0x1c18	; 0x1c18 <lcd_data>
    3658:	0e 94 a7 0e 	call	0x1d4e	; 0x1d4e <lcd_equal>

 #ifdef SHOW_ICE
       // Display also the cutoff gate voltage, idea from Pieter-Tjerk
       if (_trans->ice0<4800) { // can't trust cutoff voltage if close to 5V supply voltage, since then the transistor may not have been cut off at all
    365c:	22 e0       	ldi	r18, 0x02	; 2
    365e:	41 e4       	ldi	r20, 0x41	; 65
    3660:	6b ef       	ldi	r22, 0xFB	; 251
    3662:	80 e0       	ldi	r24, 0x00	; 0
    3664:	90 e0       	ldi	r25, 0x00	; 0
    3666:	0e 94 e4 0f 	call	0x1fc8	; 0x1fc8 <DisplayValue16>
    366a:	8f e5       	ldi	r24, 0x5F	; 95
          lcd_next_line_wait(0);
    366c:	91 e0       	ldi	r25, 0x01	; 1
    366e:	0e 94 b5 0e 	call	0x1d6a	; 0x1d6a <lcd_fix_string>
          lcd_data('I');
    3672:	e0 91 36 01 	lds	r30, 0x0136
    3676:	f0 91 37 01 	lds	r31, 0x0137
  #if (LCD_LINE_LENGTH > 17)
          lcd_data('d');
    367a:	62 e0       	ldi	r22, 0x02	; 2
    367c:	80 85       	ldd	r24, Z+8	; 0x08
  #endif
          lcd_equal();			// lcd_data('=');
    367e:	91 85       	ldd	r25, Z+9	; 0x09
    3680:	0e 94 ef 0f 	call	0x1fde	; 0x1fde <Display_mV>
          DisplayValue16(0,-5,'A',2);
    3684:	80 e0       	ldi	r24, 0x00	; 0
    3686:	0e 94 e7 0e 	call	0x1dce	; 0x1dce <lcd_show_rds>
    368a:	04 30       	cpi	r16, 0x04	; 4
    368c:	09 f4       	brne	.+2      	; 0x3690 <main+0x944>
    368e:	2a c1       	rjmp	.+596    	; 0x38e4 <main+0xb98>
          lcd_MEM_string(Vgs_str);		// "@Vg="
    3690:	10 e0       	ldi	r17, 0x00	; 0
    3692:	80 91 11 01 	lds	r24, 0x0111
    3696:	18 17       	cp	r17, r24
          Display_mV(_trans->ice0,2);	// cutoff Gate voltage
    3698:	88 f4       	brcc	.+34     	; 0x36bc <main+0x970>
    369a:	80 e0       	ldi	r24, 0x00	; 0
    369c:	0e 94 97 0e 	call	0x1d2e	; 0x1d2e <lcd_next_line_wait>
    36a0:	81 2f       	mov	r24, r17
    36a2:	0e 94 3a 09 	call	0x1274	; 0x1274 <DiodeSymbol_withPins>
    36a6:	89 e6       	ldi	r24, 0x69	; 105
    36a8:	91 e0       	ldi	r25, 0x01	; 1
 #endif
       }
 #ifdef SHOW_R_DS
       lcd_show_rds(0);                // show Drain-Source resistance RDS at column 0
    36aa:	0e 94 b5 0e 	call	0x1d6a	; 0x1d6a <lcd_fix_string>
    36ae:	81 2f       	mov	r24, r17
    lcd_data('|');
    lcd_space();
    DisplayValue16(NumOfDiodes,0,' ',3);
#endif
#if FLASHEND > 0x1fff
    if (part_code != PART_MODE_JFET) {
    36b0:	0e 94 05 09 	call	0x120a	; 0x120a <mVAusgabe>
    36b4:	0e 94 cb 0c 	call	0x1996	; 0x1996 <uart_newline>
       for (ii=0;ii<NumOfDiodes;ii++) {
    36b8:	1f 5f       	subi	r17, 0xFF	; 255
    36ba:	eb cf       	rjmp	.-42     	; 0x3692 <main+0x946>
    36bc:	03 30       	cpi	r16, 0x03	; 3
    36be:	09 f0       	breq	.+2      	; 0x36c2 <main+0x976>
          // there is enough space for long form of presenting protection diode
 #if LCD_LINES > 6
          if (ii == 0) lcd_next_line(0);		// line 5 , if possible
 #endif
          lcd_next_line_wait(0);		// line 4, if possible & wait 5s and clear last line 
    36c0:	15 c1       	rjmp	.+554    	; 0x38ec <main+0xba0>
    36c2:	43 e4       	ldi	r20, 0x43	; 67
    36c4:	67 e4       	ldi	r22, 0x47	; 71
          DiodeSymbol_withPins(ii);
    36c6:	85 e4       	ldi	r24, 0x45	; 69
    36c8:	0e 94 a9 08 	call	0x1152	; 0x1152 <PinLayoutLine>
          lcd_MEM_string(Uf_str);			//"Uf="
    36cc:	9d c0       	rjmp	.+314    	; 0x3808 <main+0xabc>
    36ce:	0e 94 cb 0c 	call	0x1996	; 0x1996 <uart_newline>
    36d2:	80 91 6f 01 	lds	r24, 0x016F
          mVAusgabe(ii);
    36d6:	88 23       	and	r24, r24
    36d8:	09 f4       	brne	.+2      	; 0x36dc <main+0x990>
          uart_newline();			// MAURO OK N-E-MOS/IGBT ('F')
    36da:	98 c0       	rjmp	.+304    	; 0x380c <main+0xac0>
    36dc:	87 b8       	out	0x07, r8	; 7
    lcd_space();
    DisplayValue16(NumOfDiodes,0,' ',3);
#endif
#if FLASHEND > 0x1fff
    if (part_code != PART_MODE_JFET) {
       for (ii=0;ii<NumOfDiodes;ii++) {
    36de:	97 b8       	out	0x07, r9	; 7
    36e0:	80 e0       	ldi	r24, 0x00	; 0
          uart_newline();			// MAURO OK N-E-MOS/IGBT ('F')
       } /* end for ii (NumOfDiodes) */
    }  /* PART_MODE != JFET */
#endif
#ifdef WITH_GRAPHICS
    if (part_code == PART_MODE_IGBT) {
    36e2:	0e 94 97 0e 	call	0x1d2e	; 0x1d2e <lcd_next_line_wait>
    36e6:	20 91 6f 01 	lds	r18, 0x016F
       PinLayoutLine('E','G','C'); 		//  Pin 1=...
    36ea:	22 23       	and	r18, r18
    36ec:	09 f4       	brne	.+2      	; 0x36f0 <main+0x9a4>
    36ee:	7f c0       	rjmp	.+254    	; 0x37ee <main+0xaa2>
    36f0:	80 91 56 01 	lds	r24, 0x0156
	goto loop_start;
	// POWER_OFF not selected, repeat measurement
//  return 0;

end3:
        uart_newline();		// MAURO  ('H')
    36f4:	21 30       	cpi	r18, 0x01	; 1
    36f6:	91 f4       	brne	.+36     	; 0x371c <main+0x9d0>
  // the diode  is already shown on the LCD
	if (ResistorsFound == 0)
    36f8:	0e 94 d6 08 	call	0x11ac	; 0x11ac <Rnum2pins>
    36fc:	20 91 56 01 	lds	r18, 0x0156
    3700:	21 30       	cpi	r18, 0x01	; 1
		goto tt_end;
  ADC_DDR = (1<<TPRELAY) | TXD_MSK; 	// switch pin with reference to GND, release relay
    3702:	39 f4       	brne	.+14     	; 0x3712 <main+0x9c6>
  // there is one resistor or more detected
#if (LCD_LINES > 3)
  ADC_DDR =  TXD_MSK; 	// switch pin with reference to input, activate relay
    3704:	20 91 11 01 	lds	r18, 0x0111
 #ifdef WAIT_LINE2_CLEAR
  lcd_next_line_wait(0);
    3708:	21 11       	cpse	r18, r1
    370a:	03 c0       	rjmp	.+6      	; 0x3712 <main+0x9c6>
    goto tt_end;
  }  /* end (PartFound == PART_FET) */

//   if(PartFound == PART_RESISTOR) 
resistor_out:
  if (ResistorsFound != 0) {
    370c:	0e 94 43 2c 	call	0x5886	; 0x5886 <show_Resis13>
    3710:	84 c0       	rjmp	.+264    	; 0x381a <main+0xace>
    3712:	40 e0       	ldi	r20, 0x00	; 0
    3714:	69 2f       	mov	r22, r25
    if (ResistorsFound == 1) { // single resistor

       rpins.pw = Rnum2pins(ResistorList[0]);	// get pin numbers for resistor 1
    3716:	0e 94 06 2b 	call	0x560c	; 0x560c <show_resis>
  }  /* end (PartFound == PART_FET) */

//   if(PartFound == PART_RESISTOR) 
resistor_out:
  if (ResistorsFound != 0) {
    if (ResistorsFound == 1) { // single resistor
    371a:	78 c0       	rjmp	.+240    	; 0x380c <main+0xac0>
    371c:	90 91 57 01 	lds	r25, 0x0157

       rpins.pw = Rnum2pins(ResistorList[0]);	// get pin numbers for resistor 1
    3720:	34 e0       	ldi	r19, 0x04	; 4
       lcd_testpin(rpins.pb[1]);	//Pin-number 2
       lcd_line2(); //2. row 
       RvalOut(ResistorList[0]);
#else
 #if FLASHEND > 0x3fff
       if ((ResistorList[0] == 1) && (NumOfDiodes == 0)) {
    3722:	93 9f       	mul	r25, r19
    3724:	d0 01       	movw	r26, r0
    3726:	11 24       	eor	r1, r1
    3728:	aa 55       	subi	r26, 0x5A	; 90
    372a:	be 4f       	sbci	r27, 0xFE	; 254
    372c:	34 e0       	ldi	r19, 0x04	; 4
    372e:	83 9f       	mul	r24, r19
    3730:	f0 01       	movw	r30, r0
          // is the TP1:TP3 resistor and no additional diode
          show_Resis13();		// call of the special resistor measurement
    3732:	11 24       	eor	r1, r1
    3734:	ea 55       	subi	r30, 0x5A	; 90
          goto shut_off;		// key is pressed or timeout
    3736:	fe 4f       	sbci	r31, 0xFE	; 254
       }
 #endif
       show_resis(rpins.pb[0],rpins.pb[1],0);
    3738:	ed 90       	ld	r14, X+
    373a:	fd 90       	ld	r15, X+
    373c:	0d 91       	ld	r16, X+
    373e:	1c 91       	ld	r17, X
    3740:	40 81       	ld	r20, Z
#endif

    } else { // multiple resistors found, R-Max suchen

       ii = ResistorList[0];	// first resistor in the list with number 0,1,2
       if (ResistorVal[ResistorList[1]] > ResistorVal[ii])
    3742:	51 81       	ldd	r21, Z+1	; 0x01
    3744:	62 81       	ldd	r22, Z+2	; 0x02
    3746:	73 81       	ldd	r23, Z+3	; 0x03
    3748:	4e 15       	cp	r20, r14
    374a:	5f 05       	cpc	r21, r15
    374c:	60 07       	cpc	r22, r16
    374e:	71 07       	cpc	r23, r17
    3750:	10 f4       	brcc	.+4      	; 0x3756 <main+0xa0a>
    3752:	f9 2e       	mov	r15, r25
    3754:	01 c0       	rjmp	.+2      	; 0x3758 <main+0xa0c>
    3756:	f8 2e       	mov	r15, r24
    3758:	22 30       	cpi	r18, 0x02	; 2
    375a:	29 f4       	brne	.+10     	; 0x3766 <main+0xa1a>
    375c:	89 0f       	add	r24, r25
    375e:	93 e0       	ldi	r25, 0x03	; 3
    3760:	f9 2e       	mov	r15, r25
    3762:	f8 1a       	sub	r15, r24
    3764:	1c c0       	rjmp	.+56     	; 0x379e <main+0xa52>
    3766:	80 91 58 01 	lds	r24, 0x0158
    376a:	94 e0       	ldi	r25, 0x04	; 4
    376c:	89 9f       	mul	r24, r25
    376e:	d0 01       	movw	r26, r0
    3770:	11 24       	eor	r1, r1
    3772:	aa 55       	subi	r26, 0x5A	; 90
    3774:	be 4f       	sbci	r27, 0xFE	; 254
    3776:	24 e0       	ldi	r18, 0x04	; 4
          ii = ResistorList[1]; // second resistor in the list with number 0,1,2
    3778:	f2 9e       	mul	r15, r18
    377a:	f0 01       	movw	r30, r0
       show_resis(rpins.pb[0],rpins.pb[1],0);
#endif

    } else { // multiple resistors found, R-Max suchen

       ii = ResistorList[0];	// first resistor in the list with number 0,1,2
    377c:	11 24       	eor	r1, r1
       if (ResistorVal[ResistorList[1]] > ResistorVal[ii])
          ii = ResistorList[1]; // second resistor in the list with number 0,1,2
       if (ResistorsFound == 2) {
    377e:	ea 55       	subi	r30, 0x5A	; 90
    3780:	fe 4f       	sbci	r31, 0xFE	; 254
    3782:	0d 91       	ld	r16, X+
          ii = (3 - ResistorList[0] - ResistorList[1]);
    3784:	1d 91       	ld	r17, X+
    3786:	2d 91       	ld	r18, X+
    3788:	3c 91       	ld	r19, X
    378a:	40 81       	ld	r20, Z
       } else {
          if (ResistorVal[ResistorList[2]] > ResistorVal[ii]) {
    378c:	51 81       	ldd	r21, Z+1	; 0x01
    378e:	62 81       	ldd	r22, Z+2	; 0x02
    3790:	73 81       	ldd	r23, Z+3	; 0x03
    3792:	40 17       	cp	r20, r16
    3794:	51 07       	cpc	r21, r17
    3796:	62 07       	cpc	r22, r18
    3798:	73 07       	cpc	r23, r19
    379a:	08 f4       	brcc	.+2      	; 0x379e <main+0xa52>
    379c:	f8 2e       	mov	r15, r24
    379e:	1f 2d       	mov	r17, r15
    37a0:	16 95       	lsr	r17
    37a2:	82 e0       	ldi	r24, 0x02	; 2
    37a4:	e8 2e       	mov	r14, r24
    37a6:	ef 18       	sub	r14, r15
    37a8:	f1 10       	cpse	r15, r1
    37aa:	02 c0       	rjmp	.+4      	; 0x37b0 <main+0xa64>
    37ac:	01 e0       	ldi	r16, 0x01	; 1
    37ae:	01 c0       	rjmp	.+2      	; 0x37b2 <main+0xa66>
    37b0:	02 e0       	ldi	r16, 0x02	; 2
    37b2:	81 2f       	mov	r24, r17
    37b4:	0e 94 56 0e 	call	0x1cac	; 0x1cac <lcd_testpin>
    37b8:	88 e1       	ldi	r24, 0x18	; 24
    37ba:	91 e0       	ldi	r25, 0x01	; 1
    37bc:	0e 94 b5 0e 	call	0x1d6a	; 0x1d6a <lcd_fix_string>
    37c0:	8e 2d       	mov	r24, r14
             ii = ResistorList[2];
    37c2:	0e 94 56 0e 	call	0x1cac	; 0x1cac <lcd_testpin>
          y = TP1;
          z = TP3;
       }
#else
    // the following does the same as the above, but more cryptically (and in fewer instructions)
       x = TP1+(ii>>1);
    37c6:	88 e1       	ldi	r24, 0x18	; 24
       y = TP3-ii;
    37c8:	91 e0       	ldi	r25, 0x01	; 1
    37ca:	0e 94 b5 0e 	call	0x1d6a	; 0x1d6a <lcd_fix_string>
       z = TP2+(ii>0);
    37ce:	80 2f       	mov	r24, r16
    37d0:	0e 94 56 0e 	call	0x1cac	; 0x1cac <lcd_testpin>
    37d4:	80 e0       	ldi	r24, 0x00	; 0
    37d6:	0e 94 73 0e 	call	0x1ce6	; 0x1ce6 <lcd_next_line>
#endif
       lcd_testpin(x);  	//Pin-number 1
    37da:	81 e0       	ldi	r24, 0x01	; 1
    37dc:	f1 10       	cpse	r15, r1
       lcd_MEM_string(Resistor_str);    // -[=]-
    37de:	80 e0       	ldi	r24, 0x00	; 0
    37e0:	0e 94 e0 08 	call	0x11c0	; 0x11c0 <RvalOut>
    37e4:	82 e0       	ldi	r24, 0x02	; 2
       lcd_testpin(y);		//Pin-number 2
    37e6:	81 1b       	sub	r24, r17
    37e8:	0e 94 e0 08 	call	0x11c0	; 0x11c0 <RvalOut>
       lcd_MEM_string(Resistor_str);    // -[=]-
    37ec:	0f c0       	rjmp	.+30     	; 0x380c <main+0xac0>
    37ee:	88 e9       	ldi	r24, 0x98	; 152
    37f0:	92 e0       	ldi	r25, 0x02	; 2
    37f2:	0e 94 b5 0e 	call	0x1d6a	; 0x1d6a <lcd_fix_string>
       lcd_testpin(z);		//Pin-number 3
    37f6:	0e 94 23 0d 	call	0x1a46	; 0x1a46 <lcd_line2>

       lcd_next_line(0);
    37fa:	8b ec       	ldi	r24, 0xCB	; 203
    37fc:	92 e0       	ldi	r25, 0x02	; 2
    37fe:	0e 94 b5 0e 	call	0x1d6a	; 0x1d6a <lcd_fix_string>
    //  if (ii == 2) { /* resistor 2 has maximum */
    //     RvalOut(0);
    //     RvalOut(1);
    //  }
    // again a shorter but cryptical equivalent:
       RvalOut(ii==0);
    3802:	84 ec       	ldi	r24, 0xC4	; 196
    3804:	92 e0       	ldi	r25, 0x02	; 2
    3806:	2e cb       	rjmp	.-2468   	; 0x2e64 <main+0x118>
    3808:	0e 94 cb 0c 	call	0x1996	; 0x1996 <uart_newline>
       RvalOut(2-(ii>>1));
    380c:	80 91 0b 01 	lds	r24, 0x010B
    3810:	90 91 0c 01 	lds	r25, 0x010C
    }  // end ResistorsFound==1
    goto tt_end;

  } // end (PartFound == PART_RESISTOR)

  lcd_MEM_string(TestFailed1); 	//"Kein,unbek. oder"
    3814:	30 cb       	rjmp	.-2464   	; 0x2e76 <main+0x12a>
    3816:	81 11       	cpse	r24, r1
    3818:	39 cb       	rjmp	.-2446   	; 0x2e8c <main+0x140>
    381a:	80 91 31 01 	lds	r24, 0x0131
  lcd_line2(); //2. row 
    381e:	88 23       	and	r24, r24
#if defined(LANG_ITALIAN) || defined(LANG_FRANCAIS)	//italiano or francais
  lcd_MEM_string(Bauteil);		//"campione"
  lcd_space();
  lcd_MEM_string(TestFailed2); 		//"guasto "
#else
  lcd_MEM_string(TestFailed2); 		//"defektes "
    3820:	09 f4       	brne	.+2      	; 0x3824 <main+0xad8>
    3822:	5d c0       	rjmp	.+186    	; 0x38de <main+0xb92>
    3824:	34 e0       	ldi	r19, 0x04	; 4
    3826:	63 2e       	mov	r6, r19
  lcd_MEM_string(Bauteil);		//"Bauteil"
    3828:	00 e0       	ldi	r16, 0x00	; 0
    382a:	10 e0       	ldi	r17, 0x00	; 0
    382c:	80 e0       	ldi	r24, 0x00	; 0
 #ifdef WITH_PUT
  Display_mV(_trans->uBE,2);    // needed instead of ntrans for PUT, but costs 4 bytes more flash...
 #else
  Display_mV(ntrans.uBE,2);
 #endif
  uart_newline();		// MAURO ('I')
    382e:	90 e0       	ldi	r25, 0x00	; 0
    3830:	22 e1       	ldi	r18, 0x12	; 18
 tt_end:
#if POWER_OFF+0 > 1
  empty_count = 0;		// reset counter, if part is found
  mess_count++;			// count measurements
#endif
  max_time = display_time;	// full specified wait time
    3832:	42 2e       	mov	r4, r18
    3834:	fc 01       	movw	r30, r24
    3836:	e0 0f       	add	r30, r16
    3838:	f1 1f       	adc	r31, r17
    383a:	e5 5a       	subi	r30, 0xA5	; 165
     // menu selected by long key press or rotary switch
		while(function_menu());// start the function menu
     goto loop_start;
  }
#endif
	if (ii != 0)
    383c:	fd 4f       	sbci	r31, 0xFD	; 253
    383e:	74 90       	lpm	r7, Z
#if defined(AUTO_CAL) && (FLASHEND > 0x3fff)
// Check is direct included in the main source of the TransistorTester
// a function with a call from main will use additional 38 bytes of flash
  // define additional variables , ii is already defined in main
 #define TIME_TO_READ 10000
  if (UnCalibrated) {
    3840:	30 e2       	ldi	r19, 0x20	; 32
    3842:	73 12       	cpse	r7, r19
    3844:	01 c0       	rjmp	.+2      	; 0x3848 <main+0xafc>
    3846:	48 2e       	mov	r4, r24
    3848:	01 96       	adiw	r24, 0x01	; 1
    384a:	83 31       	cpi	r24, 0x13	; 19
    384c:	91 05       	cpc	r25, r1
    384e:	91 f7       	brne	.-28     	; 0x3834 <main+0xae8>
    3850:	66 20       	and	r6, r6
#endif
#if POWER_OFF+0 > 1
  empty_count++;
  mess_count = 0;
#endif
  max_time = SHORT_WAIT_TIME;		// use allways the short wait time
    3852:	41 f0       	breq	.+16     	; 0x3864 <main+0xb18>
    3854:	86 2d       	mov	r24, r6
    3856:	83 70       	andi	r24, 0x03	; 3
    3858:	61 f4       	brne	.+24     	; 0x3872 <main+0xb26>
    385a:	89 83       	std	Y+1, r24	; 0x01
    385c:	0e 94 d7 0c 	call	0x19ae	; 0x19ae <lcd_clear>
    3860:	89 81       	ldd	r24, Y+1	; 0x01
    3862:	07 c0       	rjmp	.+14     	; 0x3872 <main+0xb26>
    zeich = ' ';		// initial value for while loop
    line_nr = LCD_LINES;		// begin with the first LCD line, but don't wait
    while (zeich != (char)0) {	// zero is end of text
       space_pos = LCD_LINE_LENGTH;		// if no space is found
       for (ii=0;ii<(LCD_LINE_LENGTH+1);ii++) {	// look for the last space character
         zeich = pgm_read_byte(&HelpCalibration_str[ii+jj]);
    3864:	80 e1       	ldi	r24, 0x10	; 16
         if (zeich == ' ')  space_pos = ii; // save the position
    3866:	97 e2       	ldi	r25, 0x27	; 39
    3868:	0e 94 52 11 	call	0x22a4	; 0x22a4 <wait_for_key_ms>
    386c:	88 23       	and	r24, r24
    386e:	91 f3       	breq	.-28     	; 0x3854 <main+0xb08>
    jj = 0;
    zeich = ' ';		// initial value for while loop
    line_nr = LCD_LINES;		// begin with the first LCD line, but don't wait
    while (zeich != (char)0) {	// zero is end of text
       space_pos = LCD_LINE_LENGTH;		// if no space is found
       for (ii=0;ii<(LCD_LINE_LENGTH+1);ii++) {	// look for the last space character
    3870:	32 c0       	rjmp	.+100    	; 0x38d6 <main+0xb8a>
    3872:	60 e0       	ldi	r22, 0x00	; 0
    3874:	88 0f       	add	r24, r24
         zeich = pgm_read_byte(&HelpCalibration_str[ii+jj]);
         if (zeich == ' ')  space_pos = ii; // save the position
       }
       if (line_nr == 0) {
    3876:	0e 94 a4 0c 	call	0x1948	; 0x1948 <lcd_set_cursor>
          // it is the first LCD line, wait for showing the last message
          if ((wait_for_key_ms(TIME_TO_READ)) != 0) break;	// key pressed
       }
       sub_line = line_nr % LCD_LINES;
    387a:	0e 94 cb 0c 	call	0x1996	; 0x1996 <uart_newline>
       if (sub_line == 0) lcd_clear();  // clear display, line_nr is 0 or 4
    387e:	a8 95       	wdr
    3880:	63 94       	inc	r6
    3882:	86 2d       	mov	r24, r6
    3884:	83 70       	andi	r24, 0x03	; 3
    3886:	68 2e       	mov	r6, r24
    3888:	e1 2c       	mov	r14, r1
         zeich = pgm_read_byte(&HelpCalibration_str[ii+jj]);
         if (zeich == ' ')  space_pos = ii; // save the position
       }
       if (line_nr == 0) {
          // it is the first LCD line, wait for showing the last message
          if ((wait_for_key_ms(TIME_TO_READ)) != 0) break;	// key pressed
    388a:	f1 2c       	mov	r15, r1
    388c:	e4 14       	cp	r14, r4
    388e:	a8 f4       	brcc	.+42     	; 0x38ba <main+0xb6e>
    3890:	f7 01       	movw	r30, r14
    3892:	e0 0f       	add	r30, r16
    3894:	f1 1f       	adc	r31, r17
    3896:	e5 5a       	subi	r30, 0xA5	; 165
       }
       sub_line = line_nr % LCD_LINES;
       if (sub_line == 0) lcd_clear();  // clear display, line_nr is 0 or 4
       lcd_set_cursor(sub_line*PAGES_PER_LINE ,0);
    3898:	fd 4f       	sbci	r31, 0xFD	; 253
    389a:	74 90       	lpm	r7, Z
    389c:	77 20       	and	r7, r7
    389e:	d9 f0       	breq	.+54     	; 0x38d6 <main+0xb8a>
       uart_newline();
    38a0:	9f ef       	ldi	r25, 0xFF	; 255
    38a2:	79 12       	cpse	r7, r25
       wdt_reset();
    38a4:	03 c0       	rjmp	.+6      	; 0x38ac <main+0xb60>
       line_nr = (line_nr + 1) % LCD_LINES;
    38a6:	0e 94 59 0e 	call	0x1cb2	; 0x1cb2 <lcd_space>
    38aa:	03 c0       	rjmp	.+6      	; 0x38b2 <main+0xb66>
    38ac:	87 2d       	mov	r24, r7
       for (ii=0;ii<space_pos;ii++) {
    38ae:	0e 94 0c 0e 	call	0x1c18	; 0x1c18 <lcd_data>
    38b2:	2f ef       	ldi	r18, 0xFF	; 255
    38b4:	e2 1a       	sub	r14, r18
    38b6:	f2 0a       	sbc	r15, r18
    38b8:	e9 cf       	rjmp	.-46     	; 0x388c <main+0xb40>
    38ba:	77 20       	and	r7, r7
    38bc:	61 f0       	breq	.+24     	; 0x38d6 <main+0xb8a>
    38be:	04 0d       	add	r16, r4
         zeich = pgm_read_byte(&HelpCalibration_str[ii+jj]);
    38c0:	11 1d       	adc	r17, r1
         if (zeich == (char)0) break;	// end of text found
    38c2:	f8 01       	movw	r30, r16
    38c4:	e5 5a       	subi	r30, 0xA5	; 165
         if (zeich == LCD_CHAR_INSEP) {
    38c6:	fd 4f       	sbci	r31, 0xFD	; 253
    38c8:	e4 91       	lpm	r30, Z
    38ca:	e0 32       	cpi	r30, 0x20	; 32
            lcd_space();	// replace with space
    38cc:	09 f0       	breq	.+2      	; 0x38d0 <main+0xb84>
    38ce:	ae cf       	rjmp	.-164    	; 0x382c <main+0xae0>
    38d0:	0f 5f       	subi	r16, 0xFF	; 255
         } else {
            lcd_data(zeich);		// display the character without offset
    38d2:	1f 4f       	sbci	r17, 0xFF	; 255
    38d4:	ab cf       	rjmp	.-170    	; 0x382c <main+0xae0>
    38d6:	80 e1       	ldi	r24, 0x10	; 16
    38d8:	97 e2       	ldi	r25, 0x27	; 39
    38da:	0e 94 52 11 	call	0x22a4	; 0x22a4 <wait_for_key_ms>
    38de:	0e 94 05 12 	call	0x240a	; 0x240a <switch_tester_off>
         }
       }
       if (zeich == (char)0) break;	// end of text found
    38e2:	d4 ca       	rjmp	.-2648   	; 0x2e8c <main+0x140>
       jj += space_pos;		// start position of line 2
    38e4:	4f e3       	ldi	r20, 0x3F	; 63
    38e6:	67 e4       	ldi	r22, 0x47	; 71
       if((pgm_read_byte(&HelpCalibration_str[jj])) == ' ') jj++; // no space at begin of line
    38e8:	8f e3       	ldi	r24, 0x3F	; 63
    38ea:	ee ce       	rjmp	.-548    	; 0x36c8 <main+0x97c>
    38ec:	44 e4       	ldi	r20, 0x44	; 68
    38ee:	67 e4       	ldi	r22, 0x47	; 71
    38f0:	83 e5       	ldi	r24, 0x53	; 83
    38f2:	ea ce       	rjmp	.-556    	; 0x36c8 <main+0x97c>
    38f4:	0e 94 d0 0c 	call	0x19a0	; 0x19a0 <lcd_line1>
    38f8:	86 e8       	ldi	r24, 0x86	; 134
    38fa:	92 e0       	ldi	r25, 0x02	; 2
    lcd_pgm_string(HelpCalibration_str);	// only short message!
	#ifdef WITH_UART		//Mauro 
		uart_newline();		//Mauro 
	#endif					//Mauro 
#endif
    wait_for_key_ms(TIME_TO_READ);	// key pressed
    38fc:	0e 94 b5 0e 	call	0x1d6a	; 0x1d6a <lcd_fix_string>
    3900:	8b ec       	ldi	r24, 0xCB	; 203
    3902:	0e 94 9b 09 	call	0x1336	; 0x1336 <sleep_5ms>
  // look, if the tester is uncalibrated (C-source will be included directly)
  lcd_cursor_off();
  #include "HelpCalibration.c"
 #endif
//  MCUSR = 0;
  switch_tester_off();
    3906:	0e 94 05 12 	call	0x240a	; 0x240a <switch_tester_off>
#endif
#ifdef WITH_GRAPHICS
    if (part_code == PART_MODE_IGBT) {
       PinLayoutLine('E','G','C'); 		//  Pin 1=...
    } else if (part_code == PART_MODE_JFET) {
       PinLayoutLine('?','G','?'); 		//  Pin 1=...
    390a:	80 e0       	ldi	r24, 0x00	; 0
    390c:	90 e0       	ldi	r25, 0x00	; 0
    390e:	21 96       	adiw	r28, 0x01	; 1
    3910:	e2 e1       	ldi	r30, 0x12	; 18
    } else {
       PinLayoutLine('S','G','D'); 		//  Pin 1=...
    3912:	0c 94 39 3e 	jmp	0x7c72	; 0x7c72 <__epilogue_restores__>

00003916 <Battery_check>:

//	  Calibrate_UR();		// get Ref Voltages and Pin resistance
//        lcd_line1();			// Cursor to 1. row, column 1
	  
#ifdef BAT_CHECK
void Battery_check(void) {
    3916:	0f 93       	push	r16
    3918:	1f 93       	push	r17
    391a:	cf 93       	push	r28
    391c:	df 93       	push	r29
 uint16_t bat_voltage;
 uint16_t bat_adc;
  // Battery check is selected
  ReadADC(TPBAT);	//Dummy-Readout
    391e:	85 e0       	ldi	r24, 0x05	; 5
    3920:	0e 94 d3 09 	call	0x13a6	; 0x13a6 <ReadADC>
  bat_adc = W5msReadADC(TPBAT); 	//with 5V reference
    3924:	85 e0       	ldi	r24, 0x05	; 5
    3926:	0e 94 cf 09 	call	0x139e	; 0x139e <W5msReadADC>
    392a:	8c 01       	movw	r16, r24
  // A good result can be get with multiply by 4 and divide by 10 (about 0.75%).
  #if BAT_NUMERATOR <= (0xffff/U_VCC)
	  bat_voltage = (bat_adc*BAT_NUMERATOR)/BAT_DENOMINATOR + BAT_OUT;
  #else
   #if (BAT_NUMERATOR == 133) && (BAT_DENOMINATOR == 33)
	  bat_voltage = (bat_adc*4)+BAT_OUT;		// usually output only 2 digits
    392c:	ec 01       	movw	r28, r24
    392e:	cc 0f       	add	r28, r28
    3930:	dd 1f       	adc	r29, r29
    3932:	cc 0f       	add	r28, r28
    3934:	dd 1f       	adc	r29, r29
    3936:	22 96       	adiw	r28, 0x02	; 2
   #else
	  bat_voltage = ((unsigned long)bat_adc*BAT_NUMERATOR)/BAT_DENOMINATOR + BAT_OUT;
   #endif
  #endif
  #if FLASHEND > 0x1fff
          DC_Pwr_mode = 0;
    3938:	10 92 2f 01 	sts	0x012F, r1
   #ifdef DC_PWR
          if ((bat_voltage < 900) || (bat_voltage > DC_PWR))
   #else
          if (bat_voltage < 900) 
    393c:	c4 38       	cpi	r28, 0x84	; 132
    393e:	83 e0       	ldi	r24, 0x03	; 3
    3940:	d8 07       	cpc	r29, r24
    3942:	50 f4       	brcc	.+20     	; 0x3958 <Battery_check+0x42>
   #endif
          {
             // no battery present, don't check,
	     lcd_MEM_string(DC_Pwr_Mode_str);	// "DC Pwr Mode"
    3944:	89 ea       	ldi	r24, 0xA9	; 169
    3946:	91 e0       	ldi	r25, 0x01	; 1
    3948:	0e 94 b5 0e 	call	0x1d6a	; 0x1d6a <lcd_fix_string>
             lcd_clear_line();			// clear to end of line
    394c:	0e 94 6d 0e 	call	0x1cda	; 0x1cda <lcd_clear_line>
             DC_Pwr_mode = 1;
    3950:	81 e0       	ldi	r24, 0x01	; 1
    3952:	80 93 2f 01 	sts	0x012F, r24
             return;
    3956:	26 c0       	rjmp	.+76     	; 0x39a4 <Battery_check+0x8e>
          }
  #endif
         lcd_MEM_string(Bat_str);		//output: "Bat. "
    3958:	88 eb       	ldi	r24, 0xB8	; 184
    395a:	91 e0       	ldi	r25, 0x01	; 1
    395c:	0e 94 b5 0e 	call	0x1d6a	; 0x1d6a <lcd_fix_string>
	 Display_mV(bat_voltage,2);		// Display 2 Digits of this 10mV units
    3960:	62 e0       	ldi	r22, 0x02	; 2
    3962:	ce 01       	movw	r24, r28
    3964:	0e 94 ef 0f 	call	0x1fde	; 0x1fde <Display_mV>
         lcd_space();
    3968:	0e 94 59 0e 	call	0x1cb2	; 0x1cb2 <lcd_space>
  #define WARN_LEVEL (((unsigned long)(BAT_POOR+100)*(unsigned long)BAT_DENOMINATOR)/BAT_NUMERATOR)
 #endif
 #define POOR_LEVEL (((unsigned long)(BAT_POOR)*(unsigned long)BAT_DENOMINATOR)/BAT_NUMERATOR)

  // check the battery voltage
  if (bat_adc <  WARN_LEVEL) {
    396c:	0a 3f       	cpi	r16, 0xFA	; 250
    396e:	86 e0       	ldi	r24, 0x06	; 6
    3970:	18 07       	cpc	r17, r24
    3972:	90 f4       	brcc	.+36     	; 0x3998 <Battery_check+0x82>
     //Vcc < 7,3V; show Warning 
     if(bat_adc < POOR_LEVEL) {	
    3974:	03 33       	cpi	r16, 0x33	; 51
    3976:	16 40       	sbci	r17, 0x06	; 6
    3978:	60 f4       	brcc	.+24     	; 0x3992 <Battery_check+0x7c>
	//Vcc <6,3V; no proper operation is possible
	lcd_MEM_string(BatEmpty);	//Battery empty!
    397a:	85 ed       	ldi	r24, 0xD5	; 213
    397c:	92 e0       	ldi	r25, 0x02	; 2
    397e:	0e 94 b5 0e 	call	0x1d6a	; 0x1d6a <lcd_fix_string>
        lcd_clear_line();			// clear to end of line
    3982:	0e 94 6d 0e 	call	0x1cda	; 0x1cda <lcd_clear_line>
	lcd_refresh();			// write the pixels to display, ST7920 only
	wait_about5s();			// Let time to read the "empty" message
    3986:	8d ec       	ldi	r24, 0xCD	; 205
    3988:	0e 94 9b 09 	call	0x1336	; 0x1336 <sleep_5ms>
        switch_tester_off();		// switch power off
    398c:	0e 94 05 12 	call	0x240a	; 0x240a <switch_tester_off>
	return;
    3990:	09 c0       	rjmp	.+18     	; 0x39a4 <Battery_check+0x8e>
     }
     lcd_MEM_string(BatWeak);		//Battery weak
    3992:	8c ed       	ldi	r24, 0xDC	; 220
    3994:	92 e0       	ldi	r25, 0x02	; 2
    3996:	02 c0       	rjmp	.+4      	; 0x399c <Battery_check+0x86>
  } else { // Battery-voltage OK
     lcd_MEM_string(OK_str); 		// "OK"
    3998:	85 eb       	ldi	r24, 0xB5	; 181
    399a:	91 e0       	ldi	r25, 0x01	; 1
    399c:	0e 94 b5 0e 	call	0x1d6a	; 0x1d6a <lcd_fix_string>
  }
  lcd_clear_line();			// clear to end of line
    39a0:	0e 94 6d 0e 	call	0x1cda	; 0x1cda <lcd_clear_line>
};
    39a4:	df 91       	pop	r29
    39a6:	cf 91       	pop	r28
    39a8:	1f 91       	pop	r17
    39aa:	0f 91       	pop	r16
    39ac:	08 95       	ret

000039ae <expand_FET_quadratic>:

#ifdef FET_Idss
uint16_t expand_FET_quadratic(uint16_t v0, uint16_t v1, uint16_t ii)
// assuming a datapoint of Vgs=v1, Id=ii, tries to calculate Idss (i.e., Id at Vgs=0)
// v0 must be the Vgs at which Id=0
{
    39ae:	cf 93       	push	r28
    39b0:	df 93       	push	r29
    39b2:	dc 01       	movw	r26, r24
   // Quadratic current curve can be calculated by:
   //  v1 = v0 - v1;
   //  return (uint32_t)((uint16_t)((uint32_t)(ii * v0) / v1) * v0) / v1;
   // But this simpler code need 100 bytes more flash than the following code!
   uint8_t drv, dri;	// needed for rounding
   v1 = v0 - v1;
    39b4:	9c 01       	movw	r18, r24
    39b6:	26 1b       	sub	r18, r22
    39b8:	37 0b       	sbc	r19, r23
   drv = 0;
   dri = 0;
    39ba:	e0 e0       	ldi	r30, 0x00	; 0
   //  v1 = v0 - v1;
   //  return (uint32_t)((uint16_t)((uint32_t)(ii * v0) / v1) * v0) / v1;
   // But this simpler code need 100 bytes more flash than the following code!
   uint8_t drv, dri;	// needed for rounding
   v1 = v0 - v1;
   drv = 0;
    39bc:	90 e0       	ldi	r25, 0x00	; 0
   dri = 0;
   for (;;) {
      uint8_t dv, di;
      dv = (v1 + drv) >> 8;
    39be:	b9 01       	movw	r22, r18
    39c0:	69 0f       	add	r22, r25
    39c2:	71 1d       	adc	r23, r1
    39c4:	67 2f       	mov	r22, r23
    39c6:	77 27       	eor	r23, r23
      drv = (v1 + drv) & 0xff;		// remainder of voltage division by 256
    39c8:	92 0f       	add	r25, r18
//      if (dv == 0) dv = 1;		// prevent infinite loop
      v1 += dv;      // increase v by 0.4 %;  unfortunately the compiler doesn't do this very smartly, insists on creating a 16-bit temporary variable for d
    39ca:	26 0f       	add	r18, r22
    39cc:	37 1f       	adc	r19, r23
      di = (ii + dri) >> 8;
    39ce:	ba 01       	movw	r22, r20
    39d0:	6e 0f       	add	r22, r30
    39d2:	71 1d       	adc	r23, r1
    39d4:	67 2f       	mov	r22, r23
    39d6:	77 27       	eor	r23, r23
      dri = (ii + dri) & 0xff;		// remainder of current division by 256
    39d8:	e4 0f       	add	r30, r20
    39da:	eb 01       	movw	r28, r22
    39dc:	cc 0f       	add	r28, r28
    39de:	dd 1f       	adc	r29, r29
      ii += di;     
      ii += di;      // increase ii by 0.8 %
    39e0:	4c 0f       	add	r20, r28
    39e2:	5d 1f       	adc	r21, r29
      if (di > (60000>>8)) {
    39e4:	6b 3e       	cpi	r22, 0xEB	; 235
    39e6:	71 05       	cpc	r23, r1
    39e8:	28 f4       	brcc	.+10     	; 0x39f4 <expand_FET_quadratic+0x46>
         return 0;       
      }
         // no Idss measurement if Idss exceeds 40 mA, the ATmega's maximum pin current
         // note that this is actually quite safe, since by the time there's 40 mA running, the Vgs will be 40mA * 20 ohm = 0.8 V, so quite far from 0, so Id will be less than those 40 mA
      if (v1 > v0) return ii;      // V exceeds Vp, so we've reached Vgs=0 without Id exceeding 40 mA, so we can safely do the Idss measurement
    39ea:	a2 17       	cp	r26, r18
    39ec:	b3 07       	cpc	r27, r19
    39ee:	38 f7       	brcc	.-50     	; 0x39be <expand_FET_quadratic+0x10>
    39f0:	ca 01       	movw	r24, r20
    39f2:	02 c0       	rjmp	.+4      	; 0x39f8 <expand_FET_quadratic+0x4a>
      di = (ii + dri) >> 8;
      dri = (ii + dri) & 0xff;		// remainder of current division by 256
      ii += di;     
      ii += di;      // increase ii by 0.8 %
      if (di > (60000>>8)) {
         return 0;       
    39f4:	80 e0       	ldi	r24, 0x00	; 0
    39f6:	90 e0       	ldi	r25, 0x00	; 0
      }
         // no Idss measurement if Idss exceeds 40 mA, the ATmega's maximum pin current
         // note that this is actually quite safe, since by the time there's 40 mA running, the Vgs will be 40mA * 20 ohm = 0.8 V, so quite far from 0, so Id will be less than those 40 mA
      if (v1 > v0) return ii;      // V exceeds Vp, so we've reached Vgs=0 without Id exceeding 40 mA, so we can safely do the Idss measurement
   }
}
    39f8:	df 91       	pop	r29
    39fa:	cf 91       	pop	r28
    39fc:	08 95       	ret

000039fe <CheckPins>:
#endif

//******************************************************************
void CheckPins(uint8_t HighPin, uint8_t LowPin, uint8_t TristatePin)
  {
    39fe:	ae e1       	ldi	r26, 0x1E	; 30
    3a00:	b0 e0       	ldi	r27, 0x00	; 0
    3a02:	e5 e0       	ldi	r30, 0x05	; 5
    3a04:	fd e1       	ldi	r31, 0x1D	; 29
    3a06:	0c 94 1d 3e 	jmp	0x7c3a	; 0x7c3a <__prologue_saves__>
    3a0a:	98 2e       	mov	r9, r24
    3a0c:	86 2e       	mov	r8, r22
    3a0e:	24 2e       	mov	r2, r20
  /*
    switch HighPin directls to VCC 
    switch R_L port for LowPin to GND 
    TristatePin remains switched to input , no action required 
  */
  wdt_reset();
    3a10:	a8 95       	wdr
  addr = &PinRLRHADCtab[LowPin-TP_MIN];		// Address of combined RL / RH / ADC pin table
    3a12:	e6 2f       	mov	r30, r22
    3a14:	f0 e0       	ldi	r31, 0x00	; 0
    3a16:	eb 5a       	subi	r30, 0xAB	; 171
    3a18:	fd 4f       	sbci	r31, 0xFD	; 253
  LoPinRL = pgm_read_byte(addr);		// instruction for LowPin R_L
    3a1a:	24 91       	lpm	r18, Z
    3a1c:	2b 87       	std	Y+11, r18	; 0x0b
#if FLASHEND > 0x1fff
 #if (((PIN_RL1 + 1) != PIN_RH1) || ((PIN_RL2 + 1) != PIN_RH2) || ((PIN_RL3 + 1) != PIN_RH3))
  addr += 3;			// address of PinRHtab[LowPin]
  LoPinRH = pgm_read_byte(addr);		// instruction for LowPin R_H
 #else
  LoPinRH = LoPinRL + LoPinRL;				// instruction for LowPin R_H
    3a1e:	22 0f       	add	r18, r18
    3a20:	2c 8b       	std	Y+20, r18	; 0x14
 #endif
  addr += 3;			// address of PinADCtab[LowPin]
    3a22:	33 96       	adiw	r30, 0x03	; 3
  addr += 6;			// address of PinADCtab[LowPin]
 #else
  addr += 3;			// address of PinADCtab[LowPin], table PinRHtab is missing
 #endif
#endif
  LoADCp = pgm_read_byte(addr);		// instruction for ADC Low-Pin, including | TXD_VAL
    3a24:	34 91       	lpm	r19, Z
    3a26:	39 8b       	std	Y+17, r19	; 0x11

  addr = &PinRLRHADCtab[TristatePin-TP_MIN];
    3a28:	e4 2f       	mov	r30, r20
    3a2a:	f0 e0       	ldi	r31, 0x00	; 0
    3a2c:	eb 5a       	subi	r30, 0xAB	; 171
    3a2e:	fd 4f       	sbci	r31, 0xFD	; 253
  TriPinRL = pgm_read_byte(addr);	// instruction for TristatePin R_L
    3a30:	44 91       	lpm	r20, Z
    3a32:	49 83       	std	Y+1, r20	; 0x01
  TriPinRH = pgm_read_byte(addr);	// instruction for TristatePin R_H
#else
  TriPinRH = TriPinRL + TriPinRL;			// instruction for TristatePin R_H
#endif
#ifdef SHOW_R_DS
  addr += 3;			// address of PinADCtab[TristatePin]
    3a34:	33 96       	adiw	r30, 0x03	; 3
  TriADCp = pgm_read_byte(addr);	// instruction for ADC Tristate-Pin, including | TXD_VAL
    3a36:	04 91       	lpm	r16, Z
#endif

  addr = &PinRLRHADCtab[HighPin-TP_MIN];
    3a38:	e8 2f       	mov	r30, r24
    3a3a:	f0 e0       	ldi	r31, 0x00	; 0
    3a3c:	eb 5a       	subi	r30, 0xAB	; 171
    3a3e:	fd 4f       	sbci	r31, 0xFD	; 253
  HiPinRL = pgm_read_byte(addr);		// instruction for HighPin R_L
    3a40:	34 90       	lpm	r3, Z
#if (((PIN_RL1 + 1) != PIN_RH1) || ((PIN_RL2 + 1) != PIN_RH2) || ((PIN_RL3 + 1) != PIN_RH3))
  addr += 3;			// address of PinRHtab[HighPin]
  HiPinRH = pgm_read_byte(addr);		// instruction for HighPin R_H
#else
  HiPinRH = HiPinRL + HiPinRL;				// instruction for HighPin R_H
    3a42:	53 2d       	mov	r21, r3
    3a44:	55 0f       	add	r21, r21
    3a46:	58 8b       	std	Y+16, r21	; 0x10
#endif
  addr += 3;			// address of PinADCtab[HighPin]
    3a48:	33 96       	adiw	r30, 0x03	; 3
  HiADCp = pgm_read_byte(addr);		// instruction for ADC High-Pin, including | TXD_VAL 
    3a4a:	84 91       	lpm	r24, Z
    3a4c:	8c 83       	std	Y+4, r24	; 0x04
  HiADCm = HiADCp | TXD_MSK;
    3a4e:	88 60       	ori	r24, 0x08	; 8
    3a50:	8d 83       	std	Y+5, r24	; 0x05
  LoADCm = LoADCp | TXD_MSK;
    3a52:	38 60       	ori	r19, 0x08	; 8
    3a54:	3b 83       	std	Y+3, r19	; 0x03
  }
#else
  // first try the common emitter circuit for P-Channel type
     uint16_t v_change_n;
     uint16_t v_change_p;
  R_PORT = TriPinRL;			//resistor-Port TriState to 1
    3a56:	45 b9       	out	0x05, r20	; 5
  R_DDR = LoPinRL | TriPinRL;		// resistor-Port Low-Pin to 0
    3a58:	64 2e       	mov	r6, r20
    3a5a:	9b 85       	ldd	r25, Y+11	; 0x0b
    3a5c:	69 2a       	or	r6, r25
    3a5e:	64 b8       	out	0x04, r6	; 4
  ADC_DDR = HiADCm;		//High-Pin to output
    3a60:	87 b9       	out	0x07, r24	; 7
  ADC_PORT = HiADCp;		//High-Pin fix to Vcc
    3a62:	ec 81       	ldd	r30, Y+4	; 0x04
    3a64:	e8 b9       	out	0x08, r30	; 8
  //for some MOSFET the gate (TristatePin) must be discharged
  adc.vCEs = W5msReadADC(LowPin);	// lp1 is the voltage at 680 Ohm with + Gate
    3a66:	86 2f       	mov	r24, r22
    3a68:	0e 94 cf 09 	call	0x139e	; 0x139e <W5msReadADC>
    3a6c:	9d 87       	std	Y+13, r25	; 0x0d
    3a6e:	8c 87       	std	Y+12, r24	; 0x0c
 #ifdef WITH_PUT
  R_PORT = TriPinRL | TriPinRH;
  R_DDR = LoPinRL | TriPinRH;           
  adc.lp_otrh = W5msReadADC(LowPin);	//read voltage of Low-Pin  , with tri-state ping to plus via RH; prevents accidental triggering of PUT
 #endif
  R_DDR = LoPinRL;		// resistor-Port Low-Pin to 0
    3a70:	fb 85       	ldd	r31, Y+11	; 0x0b
    3a72:	f4 b9       	out	0x04, r31	; 4
  adc.lp_otr = W5msReadADC(LowPin);	//read voltage of Low-Pin  , without Gate current (+)
    3a74:	88 2d       	mov	r24, r8
    3a76:	0e 94 cf 09 	call	0x139e	; 0x139e <W5msReadADC>
    3a7a:	5c 01       	movw	r10, r24
  R_DDR = 0;
    3a7c:	14 b8       	out	0x04, r1	; 4
  wait10ms();	 			// release all current (clear TRIAC and Thyristor)
    3a7e:	0e 94 83 09 	call	0x1306	; 0x1306 <wait10ms>
  R_PORT = 0;
    3a82:	15 b8       	out	0x05, r1	; 5
  R_DDR = LoPinRL | TriPinRL;		// start current again
    3a84:	64 b8       	out	0x04, r6	; 4
  adc.lp2 = W5msReadADC(LowPin);	// lp2 is the voltage at 680 Ohm with - Gate
    3a86:	88 2d       	mov	r24, r8
    3a88:	0e 94 cf 09 	call	0x139e	; 0x139e <W5msReadADC>
  v_change_p = abs_diff(adc.lp2, adc.vCEs);
    3a8c:	6c 85       	ldd	r22, Y+12	; 0x0c
    3a8e:	7d 85       	ldd	r23, Y+13	; 0x0d
    3a90:	0e 94 31 0a 	call	0x1462	; 0x1462 <abs_diff>
    3a94:	6c 01       	movw	r12, r24
     // switch to common emitter for NPN or N-channel FET
     ADC_DDR = LoADCm;		//Low-Pin to output
    3a96:	2b 81       	ldd	r18, Y+3	; 0x03
    3a98:	27 b9       	out	0x07, r18	; 7
     ADC_PORT = TXD_VAL;		//Low-Pin fix to GND
    3a9a:	88 e0       	ldi	r24, 0x08	; 8
    3a9c:	88 b9       	out	0x08, r24	; 8
     R_PORT = HiPinRL | TriPinRL;
    3a9e:	39 81       	ldd	r19, Y+1	; 0x01
    3aa0:	33 29       	or	r19, r3
    3aa2:	3e 83       	std	Y+6, r19	; 0x06
    3aa4:	35 b9       	out	0x05, r19	; 5
     R_DDR = HiPinRL | TriPinRL;	// resistor-Port High-Pin and TriState-Pin to 1
    3aa6:	34 b9       	out	0x04, r19	; 4
     adc.hp1 = vcc_diff(W5msReadADC(HighPin));		// voltage at 680 Ohm with + Gate
    3aa8:	89 2d       	mov	r24, r9
    3aaa:	0e 94 cf 09 	call	0x139e	; 0x139e <W5msReadADC>
    3aae:	0e 94 37 0a 	call	0x146e	; 0x146e <vcc_diff>
    3ab2:	7c 01       	movw	r14, r24
     R_PORT = 0;			// clear Thyristor
    3ab4:	15 b8       	out	0x05, r1	; 5
     wait10ms();				// release all current (clear TRIAC and Thyristor)
    3ab6:	0e 94 83 09 	call	0x1306	; 0x1306 <wait10ms>
     R_PORT = HiPinRL;			//resistor-Port High-Pin to +, TriState to 0
    3aba:	35 b8       	out	0x05, r3	; 5
     adc.hp2 = vcc_diff(W5msReadADC(HighPin));	// voltage at 680 Ohm with - Gate
    3abc:	89 2d       	mov	r24, r9
    3abe:	0e 94 cf 09 	call	0x139e	; 0x139e <W5msReadADC>
    3ac2:	0e 94 37 0a 	call	0x146e	; 0x146e <vcc_diff>
    3ac6:	2c 01       	movw	r4, r24
     R_DDR = HiPinRL;			// resistor-Port High-Pin to 1, TriState open
    3ac8:	34 b8       	out	0x04, r3	; 4
     adc.hp3 = vcc_diff(W5msReadADC(HighPin)); // voltage at 680 Ohm with open Gate
    3aca:	89 2d       	mov	r24, r9
    3acc:	0e 94 cf 09 	call	0x139e	; 0x139e <W5msReadADC>
    3ad0:	0e 94 37 0a 	call	0x146e	; 0x146e <vcc_diff>
    3ad4:	78 2e       	mov	r7, r24
    3ad6:	19 2f       	mov	r17, r25
     v_change_n = abs_diff(adc.hp1, adc.hp2);
    3ad8:	b2 01       	movw	r22, r4
    3ada:	c7 01       	movw	r24, r14
    3adc:	0e 94 31 0a 	call	0x1462	; 0x1462 <abs_diff>
  } else {
     // if ((adc.vCEs+288) > adc.lp2) goto checkDiode;	// no significant change
     if (abs_diff(adc.lp2, adc.vCEs) < 288) goto checkDiode;    // no significant change
  }
#endif
  if ((v_change_n < 288)  && (v_change_p < 288)) goto checkDiode; // no significant change
    3ae0:	80 32       	cpi	r24, 0x20	; 32
    3ae2:	41 e0       	ldi	r20, 0x01	; 1
    3ae4:	94 07       	cpc	r25, r20
    3ae6:	30 f4       	brcc	.+12     	; 0x3af4 <CheckPins+0xf6>
    3ae8:	50 e2       	ldi	r21, 0x20	; 32
    3aea:	c5 16       	cp	r12, r21
    3aec:	51 e0       	ldi	r21, 0x01	; 1
    3aee:	d5 06       	cpc	r13, r21
    3af0:	08 f4       	brcc	.+2      	; 0x3af4 <CheckPins+0xf6>
    3af2:	9f c5       	rjmp	.+2878   	; 0x4632 <CheckPins+0xc34>
//  if ((v_change_n+150) > (v_change_p + adc.hp3))
  if ((adc.hp2 + v_change_p) < (adc.vCEs + v_change_n))
    3af4:	c4 0c       	add	r12, r4
    3af6:	d5 1c       	adc	r13, r5
    3af8:	ec 85       	ldd	r30, Y+12	; 0x0c
    3afa:	fd 85       	ldd	r31, Y+13	; 0x0d
    3afc:	8e 0f       	add	r24, r30
    3afe:	9f 1f       	adc	r25, r31
    3b00:	c8 16       	cp	r12, r24
    3b02:	d9 06       	cpc	r13, r25
    3b04:	20 f4       	brcc	.+8      	; 0x3b0e <CheckPins+0x110>
  {
 #if DebugOut == 5
     lcd_data('c');
     lcd_data('N');
 #endif
     adc.vCEs = adc.hp2;	// voltage at + 680 Ohm with - Gate
    3b06:	5d 86       	std	Y+13, r5	; 0x0d
    3b08:	4c 86       	std	Y+12, r4	; 0x0c
     adc.lp_otr = adc.hp3;	// voltage at + 680 Ohm with open Gate
    3b0a:	a7 2c       	mov	r10, r7
    3b0c:	b1 2e       	mov	r11, r17
  // a TRIAC is marked as two transistors at least (2 or 3)
  // both of NPN transistors (normal and inverse) are found, if ntrans.count == 2
  // both of PNP transistors (normal and inverse) are found, if ptrans.count == 2
  // If Transistor with protection diode is checked, all results are found,
  // if ntrans.count == 1 and ptrans.count == 1
  if ((ntrans.count + ptrans.count) > 1) {
    3b0e:	20 91 48 01 	lds	r18, 0x0148
    3b12:	80 91 68 01 	lds	r24, 0x0168
    3b16:	90 e0       	ldi	r25, 0x00	; 0
    3b18:	82 0f       	add	r24, r18
    3b1a:	91 1d       	adc	r25, r1
    3b1c:	02 97       	sbiw	r24, 0x02	; 2
    3b1e:	4c f0       	brlt	.+18     	; 0x3b32 <CheckPins+0x134>
     // all transistors found, no more search is needed
     // but TRIAC can be detected as NPNp with same pins as PNPn
     if (!((ntrans.count == 1) && (ntrans.b == ptrans.b))) {
    3b20:	21 30       	cpi	r18, 0x01	; 1
    3b22:	09 f0       	breq	.+2      	; 0x3b26 <CheckPins+0x128>
    3b24:	86 c5       	rjmp	.+2828   	; 0x4632 <CheckPins+0xc34>
    3b26:	90 91 45 01 	lds	r25, 0x0145
    3b2a:	80 91 65 01 	lds	r24, 0x0165
    3b2e:	98 13       	cpse	r25, r24
    3b30:	80 c5       	rjmp	.+2816   	; 0x4632 <CheckPins+0xc34>
  TriPinRL = pgm_read_byte(addr);	// instruction for TristatePin R_L
#if (((PIN_RL1 + 1) != PIN_RH1) || ((PIN_RL2 + 1) != PIN_RH2) || ((PIN_RL3 + 1) != PIN_RH3))
  addr += 3;			// address of PinRLtab[TristatePin]
  TriPinRH = pgm_read_byte(addr);	// instruction for TristatePin R_H
#else
  TriPinRH = TriPinRL + TriPinRL;			// instruction for TristatePin R_H
    3b32:	19 81       	ldd	r17, Y+1	; 0x01
    3b34:	11 0f       	add	r17, r17
    3b36:	f1 2f       	mov	r31, r17
    3b38:	f3 29       	or	r31, r3
    3b3a:	fa 87       	std	Y+10, r31	; 0x0a
  // Additional checking of adc.lp1 will prevent to detect a PNP as P-JFET.
//  if((PartMode <= PART_MODE_P_JFET) && (adc.lp_otr > 455)  && (adc.vCEs > 455))
  
//  if((adc.lp_otr > 455)  && (adc.vCEs > 455))
//  if((adc.vCEs > 115)  && ((adc.vCEs+100) > adc.lp_otr))
  if((adc.vCEs > 115)  && ((adc.vCEs+adc.vCEs+20) > adc.lp_otr))
    3b3c:	2c 85       	ldd	r18, Y+12	; 0x0c
    3b3e:	3d 85       	ldd	r19, Y+13	; 0x0d
    3b40:	24 37       	cpi	r18, 0x74	; 116
    3b42:	31 05       	cpc	r19, r1
    3b44:	08 f4       	brcc	.+2      	; 0x3b48 <CheckPins+0x14a>
    3b46:	97 c1       	rjmp	.+814    	; 0x3e76 <CheckPins+0x478>
    3b48:	c9 01       	movw	r24, r18
    3b4a:	88 0f       	add	r24, r24
    3b4c:	99 1f       	adc	r25, r25
    3b4e:	44 96       	adiw	r24, 0x14	; 20
    3b50:	a8 16       	cp	r10, r24
    3b52:	b9 06       	cpc	r11, r25
    3b54:	08 f0       	brcs	.+2      	; 0x3b58 <CheckPins+0x15a>
    3b56:	8f c1       	rjmp	.+798    	; 0x3e76 <CheckPins+0x478>
     {  //there is more than 650uA current without TristatePin current 
     // can be JFET or D-FET
     //Test if N-JFET or if self-conducting N-MOSFET
#ifdef EXACT_OTR
     ADC_DDR = HiADCm;		//High-Pin to output
    3b58:	3d 81       	ldd	r19, Y+5	; 0x05
    3b5a:	37 b9       	out	0x07, r19	; 7
     ADC_PORT = HiADCp;		//High-Pin fix to Vcc
    3b5c:	4c 81       	ldd	r20, Y+4	; 0x04
    3b5e:	48 b9       	out	0x08, r20	; 8
#endif
     R_DDR = LoPinRL | TriPinRH;	//switch R_H for Tristate-Pin (probably Gate) to GND
    3b60:	8b 85       	ldd	r24, Y+11	; 0x0b
    3b62:	81 2b       	or	r24, r17
    3b64:	84 b9       	out	0x04, r24	; 4
     adc.lp1 = W10msReadADC(LowPin);	//measure voltage at the assumed Source 
    3b66:	88 2d       	mov	r24, r8
    3b68:	0e 94 cb 09 	call	0x1396	; 0x1396 <W10msReadADC>
    3b6c:	6c 01       	movw	r12, r24
     adc.tp1 = ReadADC(TristatePin);	// measure Gate voltage
    3b6e:	82 2d       	mov	r24, r2
    3b70:	0e 94 d3 09 	call	0x13a6	; 0x13a6 <ReadADC>
    3b74:	7c 01       	movw	r14, r24
     R_PORT = TriPinRH;			//switch R_H for Tristate-Pin (probably Gate) to VCC
    3b76:	15 b9       	out	0x05, r17	; 5
     adc.lp2 = W10msReadADC(LowPin);	//measure voltage at the assumed Source again
    3b78:	88 2d       	mov	r24, r8
    3b7a:	0e 94 cb 09 	call	0x1396	; 0x1396 <W10msReadADC>
     lcd_line3();
     mVOut(adc.vCEs);
     mVOut(adc.lp_otr);
#endif
     //If it is a self-conducting MOSFET or JFET, then must be: adc.lp2 > adc.lp1 
     if(adc.lp2>(adc.lp1+599)) {
    3b7e:	96 01       	movw	r18, r12
    3b80:	29 5a       	subi	r18, 0xA9	; 169
    3b82:	3d 4f       	sbci	r19, 0xFD	; 253
    3b84:	28 17       	cp	r18, r24
    3b86:	39 07       	cpc	r19, r25
    3b88:	08 f0       	brcs	.+2      	; 0x3b8c <CheckPins+0x18e>
    3b8a:	ae c0       	rjmp	.+348    	; 0x3ce8 <CheckPins+0x2ea>
        //measure voltage at the  Gate, differ between MOSFET and JFET
        ADC_PORT = TXD_VAL;
    3b8c:	88 e0       	ldi	r24, 0x08	; 8
    3b8e:	88 b9       	out	0x08, r24	; 8
        ADC_DDR = LoADCm;	//Low-Pin fix to GND
    3b90:	5b 81       	ldd	r21, Y+3	; 0x03
    3b92:	57 b9       	out	0x07, r21	; 7
        R_DDR = TriPinRH | HiPinRL;	//High-Pin to output
    3b94:	8a 85       	ldd	r24, Y+10	; 0x0a
    3b96:	84 b9       	out	0x04, r24	; 4
        R_PORT = TriPinRH | HiPinRL;	//switch R_L for High-Pin to VCC
    3b98:	85 b9       	out	0x05, r24	; 5
        adc.lp2 = W10msReadADC(TristatePin); //read voltage of assumed Gate 
    3b9a:	82 2d       	mov	r24, r2
    3b9c:	0e 94 cb 09 	call	0x1396	; 0x1396 <W10msReadADC>
#if DebugOut == 5
        lcd_data('N');
#endif
        if(adc.lp2>3911) {  //MOSFET
    3ba0:	88 34       	cpi	r24, 0x48	; 72
    3ba2:	9f 40       	sbci	r25, 0x0F	; 15
    3ba4:	28 f0       	brcs	.+10     	; 0x3bb0 <CheckPins+0x1b2>
           PartFound = PART_FET;	//N-Kanal-MOSFET
    3ba6:	85 e0       	ldi	r24, 0x05	; 5
    3ba8:	80 93 13 01 	sts	0x0113, r24
           PartMode = PART_MODE_MOS|N_CHANNEL|D_MODE; //Depletion-MOSFET
    3bac:	82 e2       	ldi	r24, 0x22	; 34
    3bae:	04 c0       	rjmp	.+8      	; 0x3bb8 <CheckPins+0x1ba>
#if DebugOut == 5
        lcd_data('D');
#endif
        } else {  //JFET (pn-passage between Gate and Source is conducting )
           PartFound = PART_FET;	//N-Kanal-JFET
    3bb0:	85 e0       	ldi	r24, 0x05	; 5
    3bb2:	80 93 13 01 	sts	0x0113, r24
           PartMode = PART_MODE_JFET|N_CHANNEL|D_MODE;
    3bb6:	84 e2       	ldi	r24, 0x24	; 36
    3bb8:	80 93 12 01 	sts	0x0112, r24
#if DebugOut == 5
        lcd_space();
#endif
//      if ((PartReady == 0) || (adc.lp1 > ntrans.uBE)) 
//      there is no way to find out the right Source / Drain
        ntrans.uBE = adc.lp1;
    3bbc:	d0 92 3e 01 	sts	0x013E, r13
    3bc0:	c0 92 3d 01 	sts	0x013D, r12
        ntrans.gthvoltage = unsigned_diff(adc.lp1, adc.tp1);	//voltage GS (Source - Gate)
    3bc4:	b7 01       	movw	r22, r14
    3bc6:	c6 01       	movw	r24, r12
    3bc8:	0e 94 3c 0a 	call	0x1478	; 0x1478 <unsigned_diff>
    3bcc:	90 93 44 01 	sts	0x0144, r25
    3bd0:	80 93 43 01 	sts	0x0143, r24
        ntrans.current = (unsigned int)(((unsigned long)adc.lp1 * 10000) / RR680MI); // Id 1uA
    3bd4:	96 01       	movw	r18, r12
    3bd6:	a0 e1       	ldi	r26, 0x10	; 16
    3bd8:	b7 e2       	ldi	r27, 0x27	; 39
    3bda:	0e 94 73 3d 	call	0x7ae6	; 0x7ae6 <__umulhisi3>
    3bde:	20 91 0d 01 	lds	r18, 0x010D
    3be2:	30 91 0e 01 	lds	r19, 0x010E
    3be6:	40 e0       	ldi	r20, 0x00	; 0
    3be8:	50 e0       	ldi	r21, 0x00	; 0
    3bea:	0e 94 2f 3d 	call	0x7a5e	; 0x7a5e <__udivmodsi4>
    3bee:	30 93 40 01 	sts	0x0140, r19
    3bf2:	20 93 3f 01 	sts	0x013F, r18
#ifdef SHOW_ICE
 // Test for cutoff Voltage, idea from Pieter-Tjerk
        R_DDR = LoPinRH | TriPinRH;
    3bf6:	8c 89       	ldd	r24, Y+20	; 0x14
    3bf8:	81 2b       	or	r24, r17
    3bfa:	84 b9       	out	0x04, r24	; 4
	R_PORT = 0;			// Low + Tristate Pin with 470k to 0V
    3bfc:	15 b8       	out	0x05, r1	; 5
	ADC_DDR = HiADCm;
    3bfe:	fd 81       	ldd	r31, Y+5	; 0x05
    3c00:	f7 b9       	out	0x07, r31	; 7
	ADC_PORT = HiADCp;		// High Pin to VCC
    3c02:	2c 81       	ldd	r18, Y+4	; 0x04
    3c04:	28 b9       	out	0x08, r18	; 8
	ntrans.ice0 = unsigned_diff(W10msReadADC(LowPin), ReadADC(TristatePin)); // Gate-Source Voltage
    3c06:	82 2d       	mov	r24, r2
    3c08:	0e 94 d3 09 	call	0x13a6	; 0x13a6 <ReadADC>
    3c0c:	7c 01       	movw	r14, r24
    3c0e:	88 2d       	mov	r24, r8
    3c10:	0e 94 cb 09 	call	0x1396	; 0x1396 <W10msReadADC>
    3c14:	b7 01       	movw	r22, r14
    3c16:	0e 94 3c 0a 	call	0x1478	; 0x1478 <unsigned_diff>
    3c1a:	9c 01       	movw	r18, r24
    3c1c:	90 93 42 01 	sts	0x0142, r25
    3c20:	80 93 41 01 	sts	0x0141, r24
    lcd_line4();
    lcd_data('N');
    lcd_data('j');
    lcd_space();
  #endif
    if ((PartMode&0x0f) == PART_MODE_JFET)
    3c24:	90 91 12 01 	lds	r25, 0x0112
    3c28:	9f 70       	andi	r25, 0x0F	; 15
    3c2a:	94 30       	cpi	r25, 0x04	; 4
    3c2c:	79 f5       	brne	.+94     	; 0x3c8c <CheckPins+0x28e>
        {
           uint16_t i16;
           // extrapolate the quadratic relationship between Id and Vgs, to estimate Idss
           i16 = expand_FET_quadratic(ntrans.ice0,ntrans.gthvoltage,ntrans.current);
    3c2e:	40 91 3f 01 	lds	r20, 0x013F
    3c32:	50 91 40 01 	lds	r21, 0x0140
    3c36:	60 91 43 01 	lds	r22, 0x0143
    3c3a:	70 91 44 01 	lds	r23, 0x0144
    3c3e:	c9 01       	movw	r24, r18
    3c40:	b6 de       	rcall	.-660    	; 0x39ae <expand_FET_quadratic>
    3c42:	00 97       	sbiw	r24, 0x00	; 0
  #if DebugOut == 5
           DisplayValue(i16,-6,' ',3);
  #endif
           // i16=0 if estimated Idss would exceed 40 mA, so don't measure then
           if (i16 != 0) {
    3c44:	f9 f0       	breq	.+62     	; 0x3c84 <CheckPins+0x286>
    3c46:	14 b9       	out	0x04, r17	; 4
//               R_PORT = 0; 
               R_DDR = TriPinRH;	// gate to ground via RH
    3c48:	ed 81       	ldd	r30, Y+5	; 0x05
//               ADC_PORT = HiADCp;       // drain to Vcc, source to gnd, both without resistors
               ADC_DDR = HiADCm|LoADCp;
    3c4a:	39 89       	ldd	r19, Y+17	; 0x11
    3c4c:	e3 2b       	or	r30, r19
    3c4e:	e7 b9       	out	0x07, r30	; 7
    3c50:	88 2d       	mov	r24, r8
               adc.lp2 = W10msReadADC(LowPin);	//measure voltage at the Source; this is the voltage drop across the pin's ~20 ohm internal resistance!
    3c52:	0e 94 cb 09 	call	0x1396	; 0x1396 <W10msReadADC>
    3c56:	7c 01       	movw	r14, r24
    3c58:	88 e0       	ldi	r24, 0x08	; 8
               ADC_DDR = TXD_MSK;             // disconnect drain and source immediately after measurement, since quite a lot of current may flow
    3c5a:	87 b9       	out	0x07, r24	; 7
    3c5c:	97 01       	movw	r18, r14
               // this is almost the Idss, since the gate-source voltage is almost 0 (only the voltage drop across that 20 ohm resistance)
               i16 = (unsigned int)(((unsigned long)adc.lp2 * 10000) / pin_rmi); // Idss 1uA
    3c5e:	a0 e1       	ldi	r26, 0x10	; 16
    3c60:	b7 e2       	ldi	r27, 0x27	; 39
    3c62:	0e 94 73 3d 	call	0x7ae6	; 0x7ae6 <__umulhisi3>
    3c66:	20 91 32 01 	lds	r18, 0x0132
    3c6a:	30 91 33 01 	lds	r19, 0x0133
    3c6e:	40 e0       	ldi	r20, 0x00	; 0
    3c70:	50 e0       	ldi	r21, 0x00	; 0
    3c72:	0e 94 2f 3d 	call	0x7a5e	; 0x7a5e <__udivmodsi4>
    3c76:	a9 01       	movw	r20, r18
  #if DebugOut == 5
           DisplayValue(i16,-6,' ',3);
  #endif
               i16 = expand_FET_quadratic(ntrans.ice0,adc.lp2,i16);
    3c78:	b7 01       	movw	r22, r14
    3c7a:	80 91 41 01 	lds	r24, 0x0141
    3c7e:	90 91 42 01 	lds	r25, 0x0142
    3c82:	95 de       	rcall	.-726    	; 0x39ae <expand_FET_quadratic>
    3c84:	90 93 3e 01 	sts	0x013E, r25
  #if DebugOut == 5
           DisplayValue(i16,-6,' ',3);
  #endif
           }
           ntrans.uBE = i16;
    3c88:	80 93 3d 01 	sts	0x013D, r24
    3c8c:	80 91 12 01 	lds	r24, 0x0112
        }
 #endif
 #ifdef SHOW_R_DS
    if ((PartMode&0x0f) != PART_MODE_JFET)
    3c90:	8f 70       	andi	r24, 0x0F	; 15
    3c92:	84 30       	cpi	r24, 0x04	; 4
    3c94:	09 f4       	brne	.+2      	; 0x3c98 <CheckPins+0x29a>
    3c96:	c4 c4       	rjmp	.+2440   	; 0x4620 <CheckPins+0xc22>
    3c98:	88 e0       	ldi	r24, 0x08	; 8
    3c9a:	88 b9       	out	0x08, r24	; 8
         {
            // For depletion MOSFET we try to put the Gate to the same level as Source.
            // The source level is higher than 0V because of the Port output resistance and current.
            // When the Drain-Source resistance is low, we can get nearly the same voltage increase
            // at the Gate with current from the 680 Ohm Port (RL).
            ADC_PORT = TXD_VAL;
    3c9c:	4b 81       	ldd	r20, Y+3	; 0x03
    3c9e:	04 2b       	or	r16, r20
            ADC_DDR = LoADCm | TriADCp;	//Low-Pin and Tristate-Pin fix to GND
    3ca0:	07 b9       	out	0x07, r16	; 7
    3ca2:	34 b8       	out	0x04, r3	; 4
    3ca4:	5e 81       	ldd	r21, Y+6	; 0x06
//            R_DDR = TriPinRL | HiPinRL;	// L-Resistor High-Pin and Tristate-Pin to output
            R_DDR =  HiPinRL;	// L-Resistor High-Pin and Tristate-Pin to output
    3ca6:	55 b9       	out	0x05, r21	; 5
            R_PORT = TriPinRL | HiPinRL;	//switch R_L for High-Pin and Tristate-Pin to VCC
    3ca8:	89 2d       	mov	r24, r9
    3caa:	0e 94 cf 09 	call	0x139e	; 0x139e <W5msReadADC>
            adc.hp2 = W5msReadADC(HighPin);	//measure the voltage at the Drain  
    3cae:	8c 01       	movw	r16, r24
    3cb0:	0e 94 37 0a 	call	0x146e	; 0x146e <vcc_diff>
            adc.rhp = vcc_diff(adc.hp2);	// voltage at the Drain resistor
    3cb4:	6c 01       	movw	r12, r24
    3cb6:	88 2d       	mov	r24, r8
    3cb8:	0e 94 d3 09 	call	0x13a6	; 0x13a6 <ReadADC>
            adc.lp2 = ReadADC(LowPin);		// voltage at the Source 
    3cbc:	e0 90 14 01 	lds	r14, 0x0114
            ntrans.uBE = RR680PL * (unsigned long)unsigned_diff(adc.hp2, adc.lp2) / adc.rhp; // DS resistance in 0.1 OHm
    3cc0:	f0 90 15 01 	lds	r15, 0x0115
    3cc4:	bc 01       	movw	r22, r24
    3cc6:	c8 01       	movw	r24, r16
    3cc8:	0e 94 3c 0a 	call	0x1478	; 0x1478 <unsigned_diff>
    3ccc:	9c 01       	movw	r18, r24
    3cce:	d7 01       	movw	r26, r14
    3cd0:	0e 94 73 3d 	call	0x7ae6	; 0x7ae6 <__umulhisi3>
    3cd4:	96 01       	movw	r18, r12
    3cd6:	40 e0       	ldi	r20, 0x00	; 0
    3cd8:	50 e0       	ldi	r21, 0x00	; 0
    3cda:	0e 94 2f 3d 	call	0x7a5e	; 0x7a5e <__udivmodsi4>
    3cde:	30 93 3e 01 	sts	0x013E, r19
    3ce2:	20 93 3d 01 	sts	0x013D, r18
    3ce6:	9c c4       	rjmp	.+2360   	; 0x4620 <CheckPins+0xc22>
    3ce8:	88 e0       	ldi	r24, 0x08	; 8
    3cea:	88 b9       	out	0x08, r24	; 8
#endif
        ntrans.count++;			// count as two, the inverse is identical
        goto saveNresult;		// save Pin numbers and exit
     }  /* end selfconducting N-channel  mode */

     ADC_PORT = TXD_VAL;		// direct outputs to GND
    3cec:	8b 81       	ldd	r24, Y+3	; 0x03
    3cee:	87 b9       	out	0x07, r24	; 7

     //Test, if P-JFET or if self-conducting P-MOSFET
     ADC_DDR = LoADCm;		//switch Low-Pin (assumed Drain) direct to GND,
    3cf0:	9a 85       	ldd	r25, Y+10	; 0x0a
    3cf2:	94 b9       	out	0x04, r25	; 4
				//R_H for Tristate-Pin (assumed Gate) is already switched to VCC
     R_DDR = TriPinRH | HiPinRL;	//High-Pin to output
    3cf4:	95 b9       	out	0x05, r25	; 5
    3cf6:	89 2d       	mov	r24, r9
     R_PORT = TriPinRH | HiPinRL;	//High-Pin across R_L to Vcc
    3cf8:	0e 94 cb 09 	call	0x1396	; 0x1396 <W10msReadADC>
     adc.hp1 = W10msReadADC(HighPin);	//measure voltage at assumed Source 
    3cfc:	6c 01       	movw	r12, r24
    3cfe:	82 2d       	mov	r24, r2
    3d00:	0e 94 d3 09 	call	0x13a6	; 0x13a6 <ReadADC>
     adc.tp1 = ReadADC(TristatePin);	// measure Gate voltage
    3d04:	7c 01       	movw	r14, r24
    3d06:	35 b8       	out	0x05, r3	; 5
    3d08:	89 2d       	mov	r24, r9
     R_PORT = HiPinRL;			//switch R_H for Tristate-Pin (assumed Gate) to GND
    3d0a:	0e 94 cb 09 	call	0x1396	; 0x1396 <W10msReadADC>
     adc.hp2 = W10msReadADC(HighPin);	//read voltage at assumed Source again
    3d0e:	89 5a       	subi	r24, 0xA9	; 169
    3d10:	9d 4f       	sbci	r25, 0xFD	; 253
     //if it is a self-conducting P_MOSFET or P-JFET , then must be:  adc.hp1 > adc.hp2 
     if(adc.hp1>(adc.hp2+599)) {
    3d12:	8c 15       	cp	r24, r12
    3d14:	9d 05       	cpc	r25, r13
    3d16:	08 f0       	brcs	.+2      	; 0x3d1a <CheckPins+0x31c>
    3d18:	8c c4       	rjmp	.+2328   	; 0x4632 <CheckPins+0xc34>
    3d1a:	ec 81       	ldd	r30, Y+4	; 0x04
    3d1c:	e8 b9       	out	0x08, r30	; 8
        //read voltage at the Gate , to differ between MOSFET and JFET
        ADC_PORT = HiADCp;	//switch High-Pin directly to VCC
    3d1e:	fd 81       	ldd	r31, Y+5	; 0x05
    3d20:	f7 b9       	out	0x07, r31	; 7
        ADC_DDR = HiADCm;	//switch High-Pin to output
    3d22:	82 2d       	mov	r24, r2
    3d24:	0e 94 cb 09 	call	0x1396	; 0x1396 <W10msReadADC>
        adc.tp2 = W10msReadADC(TristatePin); //read voltage at the assumed Gate 
    3d28:	81 3d       	cpi	r24, 0xD1	; 209
    3d2a:	93 40       	sbci	r25, 0x03	; 3
#if DebugOut == 5
        lcd_data('P');
#endif
        if(adc.tp2<977) { 		//MOSFET
    3d2c:	28 f4       	brcc	.+10     	; 0x3d38 <CheckPins+0x33a>
    3d2e:	85 e0       	ldi	r24, 0x05	; 5
    3d30:	80 93 13 01 	sts	0x0113, r24
           PartFound = PART_FET;	//P-Kanal-MOSFET
    3d34:	82 e3       	ldi	r24, 0x32	; 50
    3d36:	04 c0       	rjmp	.+8      	; 0x3d40 <CheckPins+0x342>
           PartMode = PART_MODE_MOS|P_CHANNEL|D_MODE; //Depletion-MOSFET
    3d38:	85 e0       	ldi	r24, 0x05	; 5
    3d3a:	80 93 13 01 	sts	0x0113, r24
#if DebugOut == 5
           lcd_data('D');
#endif
        } else { 			//JFET (pn-passage between Gate and Source is conducting)
           PartFound = PART_FET;	//P-Kanal-JFET
    3d3e:	84 e3       	ldi	r24, 0x34	; 52
    3d40:	80 93 12 01 	sts	0x0112, r24
           PartMode = PART_MODE_JFET|P_CHANNEL|D_MODE;
    3d44:	b6 01       	movw	r22, r12
    3d46:	c7 01       	movw	r24, r14
#endif
        }
#if DebugOut == 5
        lcd_space();
#endif
        ptrans.gthvoltage = unsigned_diff(adc.tp1, adc.hp1);	//voltage GS (Gate - Source)
    3d48:	0e 94 3c 0a 	call	0x1478	; 0x1478 <unsigned_diff>
    3d4c:	90 93 64 01 	sts	0x0164, r25
    3d50:	80 93 63 01 	sts	0x0163, r24
    3d54:	c6 01       	movw	r24, r12
    3d56:	0e 94 37 0a 	call	0x146e	; 0x146e <vcc_diff>
        ptrans.current = (unsigned int)(((unsigned long)vcc_diff(adc.hp1) * 10000) / RR680PL); // Id 1uA
    3d5a:	9c 01       	movw	r18, r24
    3d5c:	a0 e1       	ldi	r26, 0x10	; 16
    3d5e:	b7 e2       	ldi	r27, 0x27	; 39
    3d60:	0e 94 73 3d 	call	0x7ae6	; 0x7ae6 <__umulhisi3>
    3d64:	20 91 14 01 	lds	r18, 0x0114
    3d68:	30 91 15 01 	lds	r19, 0x0115
    3d6c:	40 e0       	ldi	r20, 0x00	; 0
    3d6e:	50 e0       	ldi	r21, 0x00	; 0
    3d70:	0e 94 2f 3d 	call	0x7a5e	; 0x7a5e <__udivmodsi4>
    3d74:	30 93 60 01 	sts	0x0160, r19
    3d78:	20 93 5f 01 	sts	0x015F, r18
    3d7c:	b8 e0       	ldi	r27, 0x08	; 8
    3d7e:	fb 2e       	mov	r15, r27
#ifdef SHOW_ICE
//	Test for cutoff Voltage, idea from Pieter-Tjerk
        ADC_PORT = TXD_VAL;		// direct outputs to GND
    3d80:	f8 b8       	out	0x08, r15	; 8
    3d82:	3b 81       	ldd	r19, Y+3	; 0x03
    3d84:	37 b9       	out	0x07, r19	; 7
        ADC_DDR = LoADCm;		//switch Low-Pin (assumed Drain) direct to GND,
    3d86:	88 89       	ldd	r24, Y+16	; 0x10
    3d88:	81 2b       	or	r24, r17
        R_DDR = TriPinRH | HiPinRH;	//High-Pin to output
    3d8a:	84 b9       	out	0x04, r24	; 4
    3d8c:	85 b9       	out	0x05, r24	; 5
    3d8e:	89 2d       	mov	r24, r9
        R_PORT = TriPinRH | HiPinRH;	//High-Pin and Tristate-Pin across R_H to Vcc
    3d90:	0e 94 d3 09 	call	0x13a6	; 0x13a6 <ReadADC>
        ptrans.ice0 = unsigned_diff(W10msReadADC(TristatePin), ReadADC(HighPin));	//measure voltage at assumed Source 
    3d94:	6c 01       	movw	r12, r24
    3d96:	82 2d       	mov	r24, r2
    3d98:	0e 94 cb 09 	call	0x1396	; 0x1396 <W10msReadADC>
    3d9c:	b6 01       	movw	r22, r12
    3d9e:	0e 94 3c 0a 	call	0x1478	; 0x1478 <unsigned_diff>
    3da2:	9c 01       	movw	r18, r24
    3da4:	90 93 62 01 	sts	0x0162, r25
    3da8:	80 93 61 01 	sts	0x0161, r24
    3dac:	90 91 12 01 	lds	r25, 0x0112
  #if DebugOut == 5
        lcd_line4();
        lcd_data('P');
        lcd_data('J');
  #endif
        if ((PartMode&0x0f) == PART_MODE_JFET) 
    3db0:	9f 70       	andi	r25, 0x0F	; 15
    3db2:	94 30       	cpi	r25, 0x04	; 4
    3db4:	99 f5       	brne	.+102    	; 0x3e1c <CheckPins+0x41e>
    3db6:	40 91 5f 01 	lds	r20, 0x015F
        {
           uint16_t i16;
           // extrapolate the quadratic relationship between Id and Vgs, to estimate Idss
           i16 = expand_FET_quadratic(ptrans.ice0,ptrans.gthvoltage,ptrans.current);
    3dba:	50 91 60 01 	lds	r21, 0x0160
    3dbe:	60 91 63 01 	lds	r22, 0x0163
    3dc2:	70 91 64 01 	lds	r23, 0x0164
    3dc6:	c9 01       	movw	r24, r18
    3dc8:	f2 dd       	rcall	.-1052   	; 0x39ae <expand_FET_quadratic>
    3dca:	00 97       	sbiw	r24, 0x00	; 0
    3dcc:	19 f1       	breq	.+70     	; 0x3e14 <CheckPins+0x416>
    3dce:	15 b9       	out	0x05, r17	; 5
  #if DebugOut == 5
           DisplayValue(i16,-6,' ',3);
  #endif
           // i16=0 if estimated Idss would exceed 40 mA, so don't measure then
           if (i16 != 0) {
    3dd0:	14 b9       	out	0x04, r17	; 4
    3dd2:	4c 81       	ldd	r20, Y+4	; 0x04
               R_PORT = TriPinRH; 
    3dd4:	48 b9       	out	0x08, r20	; 8
               R_DDR = TriPinRH;	// gate to VCC via RH
    3dd6:	eb 81       	ldd	r30, Y+3	; 0x03
               ADC_PORT = HiADCp;       // drain to GND, source to VCC, both without resistors
    3dd8:	5d 81       	ldd	r21, Y+5	; 0x05
    3dda:	e5 2b       	or	r30, r21
               ADC_DDR = HiADCm|LoADCm;
    3ddc:	e7 b9       	out	0x07, r30	; 7
    3dde:	89 2d       	mov	r24, r9
    3de0:	0e 94 cb 09 	call	0x1396	; 0x1396 <W10msReadADC>
               adc.hp3 = vcc_diff(W10msReadADC(HighPin));	//measure voltage at the Source; this is the voltage drop across the pin's ~20 ohm internal resistance!
    3de4:	0e 94 37 0a 	call	0x146e	; 0x146e <vcc_diff>
    3de8:	6c 01       	movw	r12, r24
    3dea:	f7 b8       	out	0x07, r15	; 7
    3dec:	9c 01       	movw	r18, r24
    3dee:	a0 e1       	ldi	r26, 0x10	; 16
               ADC_DDR = TXD_MSK;	// disconnect drain and source immediately after measurement, since quite a lot of current may flow
    3df0:	b7 e2       	ldi	r27, 0x27	; 39
               // this is almost the Idss, since the gate-source voltage is almost 0 (only the voltage drop across that 20 ohm resistance)
               i16 = (unsigned int)(((unsigned long)adc.hp3 * 10000) / pin_rpl); // Idss 1uA
    3df2:	0e 94 73 3d 	call	0x7ae6	; 0x7ae6 <__umulhisi3>
    3df6:	20 91 2b 01 	lds	r18, 0x012B
    3dfa:	30 91 2c 01 	lds	r19, 0x012C
    3dfe:	40 e0       	ldi	r20, 0x00	; 0
    3e00:	50 e0       	ldi	r21, 0x00	; 0
    3e02:	0e 94 2f 3d 	call	0x7a5e	; 0x7a5e <__udivmodsi4>
    3e06:	a9 01       	movw	r20, r18
    3e08:	b6 01       	movw	r22, r12
    3e0a:	80 91 61 01 	lds	r24, 0x0161
  #if DebugOut == 5
           DisplayValue(i16,-6,' ',3);
  #endif
               i16 =expand_FET_quadratic(ptrans.ice0,adc.hp3,i16);
    3e0e:	90 91 62 01 	lds	r25, 0x0162
    3e12:	cd dd       	rcall	.-1126   	; 0x39ae <expand_FET_quadratic>
    3e14:	90 93 5e 01 	sts	0x015E, r25
    3e18:	80 93 5d 01 	sts	0x015D, r24
  #if DebugOut == 5
           DisplayValue(i16,-6,' ',3);
  #endif
           }
           ptrans.uBE = i16;
    3e1c:	80 91 12 01 	lds	r24, 0x0112
    3e20:	8f 70       	andi	r24, 0x0F	; 15
    3e22:	84 30       	cpi	r24, 0x04	; 4
        }	/* end if ((PartMode&0x0f) == PART_MODE_JFET) */
 #endif
 #ifdef SHOW_R_DS
    if ((PartMode&0x0f) != PART_MODE_JFET)
    3e24:	09 f4       	brne	.+2      	; 0x3e28 <CheckPins+0x42a>
    3e26:	da c1       	rjmp	.+948    	; 0x41dc <CheckPins+0x7de>
    3e28:	ec 81       	ldd	r30, Y+4	; 0x04
    3e2a:	e0 2b       	or	r30, r16
    3e2c:	e8 b9       	out	0x08, r30	; 8
    3e2e:	8d 81       	ldd	r24, Y+5	; 0x05
         {
            // For depletion MOSFET we try to put the Gate to the same level as Source.
            // The source level is higher than 0V because of the Port output resistance and current.
            // When the Drain-Source resistance is low, we can get nearly the same voltage increase
            // at the Gate with current from the 680 Ohm Port (RL).
            ADC_PORT = HiADCp | TriADCp;	//switch High-Pin and Tristate-Pin to VCC
    3e30:	08 2b       	or	r16, r24
    3e32:	07 b9       	out	0x07, r16	; 7
    3e34:	15 b8       	out	0x05, r1	; 5
            ADC_DDR = HiADCm | TriADCp;		//switch High-Pin and Tristate-Pin to output
    3e36:	9e 81       	ldd	r25, Y+6	; 0x06
    3e38:	94 b9       	out	0x04, r25	; 4
    3e3a:	89 2d       	mov	r24, r9
            R_PORT = 0;			// switch R-Ports to 0
    3e3c:	0e 94 cf 09 	call	0x139e	; 0x139e <W5msReadADC>
            R_DDR = TriPinRL | HiPinRL;	// L-Resistor High-Pin and Tristate-Pin to output
    3e40:	7c 01       	movw	r14, r24
            adc.hp2 = W5msReadADC(HighPin);	//measure the voltage at the Source  
    3e42:	88 2d       	mov	r24, r8
    3e44:	0e 94 d3 09 	call	0x13a6	; 0x13a6 <ReadADC>
    3e48:	6c 01       	movw	r12, r24
            adc.lp1 = ReadADC(LowPin);		// voltage at the Drain 
    3e4a:	00 91 0d 01 	lds	r16, 0x010D
    3e4e:	10 91 0e 01 	lds	r17, 0x010E
            ptrans.uBE = RR680MI * (unsigned long)unsigned_diff(adc.hp2, adc.lp1) / adc.lp1; // DS resistance in 0.1 OHm
    3e52:	bc 01       	movw	r22, r24
    3e54:	c7 01       	movw	r24, r14
    3e56:	0e 94 3c 0a 	call	0x1478	; 0x1478 <unsigned_diff>
    3e5a:	9c 01       	movw	r18, r24
    3e5c:	d8 01       	movw	r26, r16
    3e5e:	0e 94 73 3d 	call	0x7ae6	; 0x7ae6 <__umulhisi3>
    3e62:	96 01       	movw	r18, r12
    3e64:	40 e0       	ldi	r20, 0x00	; 0
    3e66:	50 e0       	ldi	r21, 0x00	; 0
    3e68:	0e 94 2f 3d 	call	0x7a5e	; 0x7a5e <__udivmodsi4>
    3e6c:	30 93 5e 01 	sts	0x015E, r19
    3e70:	20 93 5d 01 	sts	0x015D, r18
    3e74:	b3 c1       	rjmp	.+870    	; 0x41dc <CheckPins+0x7de>
    3e76:	88 e0       	ldi	r24, 0x08	; 8
    3e78:	88 b9       	out	0x08, r24	; 8
    3e7a:	eb 81       	ldd	r30, Y+3	; 0x03
    3e7c:	e7 b9       	out	0x07, r30	; 7


  //there is less than 650uA current without TristatePin current 
#ifdef COMMON_COLLECTOR
  // Test circuit with common collector (Emitter follower) PNP
  ADC_PORT = TXD_VAL;
    3e7e:	35 b8       	out	0x05, r3	; 5
    3e80:	fa 85       	ldd	r31, Y+10	; 0x0a
  ADC_DDR = LoADCm;			// Collector direct to GND
    3e82:	f4 b9       	out	0x04, r31	; 4
    3e84:	89 2d       	mov	r24, r9
 #endif
     // compute c_hfe with RL Base resistor
     c_hfe = (unsigned long)((unsigned long)unsigned_diff(adc.rhp, adc.tp1) * 100) / adc.tp1;
  }
#else
  R_PORT = HiPinRL;			// switch R_L port for HighPin (Emitter) to VCC
    3e86:	0e 94 cf 09 	call	0x139e	; 0x139e <W5msReadADC>
  R_DDR =  TriPinRH | HiPinRL;	// Tripin=RH-
    3e8a:	9b 8b       	std	Y+19, r25	; 0x13
  adc.hp1 = W5msReadADC(HighPin);
    3e8c:	8a 8b       	std	Y+18, r24	; 0x12
    3e8e:	0e 94 37 0a 	call	0x146e	; 0x146e <vcc_diff>
    3e92:	99 87       	std	Y+9, r25	; 0x09
    3e94:	88 87       	std	Y+8, r24	; 0x08
  adc.rhp = vcc_diff(adc.hp1);	// voltage at the Emitter resistor
    3e96:	82 2d       	mov	r24, r2
    3e98:	0e 94 d3 09 	call	0x13a6	; 0x13a6 <ReadADC>
    3e9c:	9f 87       	std	Y+15, r25	; 0x0f
  adc.tp1 = ReadADC(TristatePin);	// voltage at base resistor 
    3e9e:	8e 87       	std	Y+14, r24	; 0x0e
    3ea0:	25 01       	movw	r4, r10
    3ea2:	24 e6       	ldi	r18, 0x64	; 100
    3ea4:	42 0e       	add	r4, r18
    3ea6:	51 1c       	adc	r5, r1
 #if DebugOut == 5
  lcd_line4();
  lcd_data('P');
 #endif
  if (adc.rhp > (100+adc.lp_otr)) {
    3ea8:	48 85       	ldd	r20, Y+8	; 0x08
    3eaa:	59 85       	ldd	r21, Y+9	; 0x09
    3eac:	b5 01       	movw	r22, r10
    3eae:	44 16       	cp	r4, r20
    3eb0:	55 06       	cpc	r5, r21
    3eb2:	d8 f4       	brcc	.+54     	; 0x3eea <CheckPins+0x4ec>

     tmp16 = unsigned_diff(adc.rhp, adc.lp_otr);	// subtract residual current
    3eb4:	ca 01       	movw	r24, r20
  adc.tp1 = ReadADC(TristatePin);	// voltage at base resistor 
 #if DebugOut == 5
  lcd_line4();
  lcd_data('P');
 #endif
  if (adc.rhp > (100+adc.lp_otr)) {
    3eb6:	0e 94 3c 0a 	call	0x1478	; 0x1478 <unsigned_diff>
    3eba:	7c 01       	movw	r14, r24

     tmp16 = unsigned_diff(adc.rhp, adc.lp_otr);	// subtract residual current
    3ebc:	20 91 14 01 	lds	r18, 0x0114
    3ec0:	30 91 15 01 	lds	r19, 0x0115
 #ifdef LONG_HFE
  #if DebugOut == 5
     lcd_data('H');	// PHcc
  #endif
     c_hfe = ((unsigned long)tmp16 * (unsigned long)(((unsigned long)R_H_VAL * 10000) / 
    3ec4:	40 e0       	ldi	r20, 0x00	; 0
    3ec6:	50 e0       	ldi	r21, 0x00	; 0
    3ec8:	60 e8       	ldi	r22, 0x80	; 128
    3eca:	71 ea       	ldi	r23, 0xA1	; 161
    3ecc:	83 e0       	ldi	r24, 0x03	; 3
    3ece:	9c e1       	ldi	r25, 0x1C	; 28
    3ed0:	0e 94 2f 3d 	call	0x7a5e	; 0x7a5e <__udivmodsi4>
    3ed4:	d7 01       	movw	r26, r14
    3ed6:	0e 94 88 3d 	call	0x7b10	; 0x7b10 <__muluhisi3>
    3eda:	ee 85       	ldd	r30, Y+14	; 0x0e
    3edc:	ff 85       	ldd	r31, Y+15	; 0x0f
    3ede:	6f 01       	movw	r12, r30
    3ee0:	e1 2c       	mov	r14, r1
              (unsigned int)RR680PL)) / (unsigned int)adc.tp1;	
    3ee2:	f1 2c       	mov	r15, r1
    3ee4:	a7 01       	movw	r20, r14
    3ee6:	96 01       	movw	r18, r12
    3ee8:	23 c0       	rjmp	.+70     	; 0x3f30 <CheckPins+0x532>
    3eea:	88 85       	ldd	r24, Y+8	; 0x08
     tmp16 = unsigned_diff(adc.rhp, adc.lp_otr);	// subtract residual current
 #ifdef LONG_HFE
  #if DebugOut == 5
     lcd_data('H');	// PHcc
  #endif
     c_hfe = ((unsigned long)tmp16 * (unsigned long)(((unsigned long)R_H_VAL * 10000) / 
    3eec:	99 85       	ldd	r25, Y+9	; 0x09
    3eee:	0e 94 3c 0a 	call	0x1478	; 0x1478 <unsigned_diff>
     lcd_data('h');	// Phcc
  #endif
     c_hfe = ((tmp16 / ((RR680PL+500)/1000)) * (R_H_VAL/500)) / (adc.tp1/5);
 #endif
  } else {
     tmp16 = unsigned_diff(adc.rhp, adc.lp_otr);
    3ef2:	7c 01       	movw	r14, r24
    3ef4:	fe 81       	ldd	r31, Y+6	; 0x06
    3ef6:	f4 b9       	out	0x04, r31	; 4
    3ef8:	89 2d       	mov	r24, r9
    3efa:	0e 94 cf 09 	call	0x139e	; 0x139e <W5msReadADC>
     R_DDR = TriPinRL | HiPinRL;		// Base resistor  R_L to GND
    3efe:	9b 8b       	std	Y+19, r25	; 0x13
     adc.hp1 = W5msReadADC(HighPin);	// voltage at the Emitter resistor
    3f00:	8a 8b       	std	Y+18, r24	; 0x12
    3f02:	0e 94 37 0a 	call	0x146e	; 0x146e <vcc_diff>
    3f06:	99 87       	std	Y+9, r25	; 0x09
    3f08:	88 87       	std	Y+8, r24	; 0x08
     adc.rhp = vcc_diff(adc.hp1);	// voltage at the Emitter resistor
    3f0a:	82 2d       	mov	r24, r2
    3f0c:	0e 94 d3 09 	call	0x13a6	; 0x13a6 <ReadADC>
    3f10:	9f 87       	std	Y+15, r25	; 0x0f
     adc.tp1 = ReadADC(TristatePin);	// voltage at the base resistor (RL)
    3f12:	8e 87       	std	Y+14, r24	; 0x0e
    3f14:	bc 01       	movw	r22, r24
    3f16:	c7 01       	movw	r24, r14
    3f18:	0e 94 3c 0a 	call	0x1478	; 0x1478 <unsigned_diff>
 #if DebugOut == 5
     lcd_data('L');	// PLcc
 #endif
     // compute c_he with RL Base resistor
     c_hfe = (unsigned long)((unsigned long)unsigned_diff(tmp16, adc.tp1) * 100) / adc.tp1;
    3f1c:	9c 01       	movw	r18, r24
    3f1e:	a4 e6       	ldi	r26, 0x64	; 100
    3f20:	b0 e0       	ldi	r27, 0x00	; 0
    3f22:	0e 94 73 3d 	call	0x7ae6	; 0x7ae6 <__umulhisi3>
    3f26:	ee 85       	ldd	r30, Y+14	; 0x0e
    3f28:	ff 85       	ldd	r31, Y+15	; 0x0f
    3f2a:	9f 01       	movw	r18, r30
    3f2c:	40 e0       	ldi	r20, 0x00	; 0
    3f2e:	50 e0       	ldi	r21, 0x00	; 0
    3f30:	0e 94 2f 3d 	call	0x7a5e	; 0x7a5e <__udivmodsi4>
    3f34:	69 01       	movw	r12, r18
    3f36:	7a 01       	movw	r14, r20
    3f38:	14 b8       	out	0x04, r1	; 4
    3f3a:	15 b8       	out	0x05, r1	; 5
    3f3c:	fc 81       	ldd	r31, Y+4	; 0x04
    3f3e:	f8 b9       	out	0x08, r31	; 8
  DisplayValue(c_hfe,-2,' ',3);
 #endif
#endif   /* COMMON_COLLECTOR */

  //set Pins again for circuit with common Emitter PNP
  R_DDR = 0;			//all Resistor Ports to Input
    3f40:	2d 81       	ldd	r18, Y+5	; 0x05
  R_PORT = 0;			//switch all resistor ports to GND
    3f42:	27 b9       	out	0x07, r18	; 7
  ADC_PORT = HiADCp;		//switch High-Pin to VCC
    3f44:	81 e0       	ldi	r24, 0x01	; 1
    3f46:	0e 94 9b 09 	call	0x1336	; 0x1336 <sleep_5ms>
  ADC_DDR = HiADCm;		//switch High-Pin to output
    3f4a:	64 b8       	out	0x04, r6	; 4
//  R_DDR = LoPinRL;		//switch R_L port for Low-Pin to output (GND)
  wait_about5ms();
    3f4c:	88 2d       	mov	r24, r8
    3f4e:	0e 94 cf 09 	call	0x139e	; 0x139e <W5msReadADC>
     lcd_data('E');
     lcd_testpin(HighPin);
     lcd_space();
#endif
     //Test to PNP
     R_DDR = LoPinRL | TriPinRL;	//switch R_L port for Tristate-Pin to output (GND), for Test of PNP
    3f52:	7b 84       	ldd	r7, Y+11	; 0x0b
     adc.lp1 = W5msReadADC(LowPin);	//measure voltage at LowPin
    3f54:	71 2a       	or	r7, r17
    3f56:	8f 35       	cpi	r24, 0x5F	; 95
    3f58:	9d 40       	sbci	r25, 0x0D	; 13
    3f5a:	08 f4       	brcc	.+2      	; 0x3f5e <CheckPins+0x560>
    3f5c:	45 c1       	rjmp	.+650    	; 0x41e8 <CheckPins+0x7ea>
     if(adc.lp1 > 3422) {
    3f5e:	74 b8       	out	0x04, r7	; 4
    3f60:	88 2d       	mov	r24, r8
    3f62:	0e 94 cb 09 	call	0x1396	; 0x1396 <W10msReadADC>
//        R_DDR = LoPinRL | TriPinRL;	//switch R_L port for Tristate-Pin (Base) to output (GND)
//        wait_about5ms();		// load gate capacitor
//        R_DDR = LoPinRL | TriPinRH;	//switch R_H port for Tristate-Pin (Base) to output (GND)
//        adc.lp1 = W5msReadADC(LowPin);	//measure voltage at LowPin (assumed Collector)
//#else
        R_DDR = LoPinRL | TriPinRH;	//switch R_H port for Tristate-Pin (Base) to output (GND)
    3f66:	9c 8f       	std	Y+28, r25	; 0x1c
        adc.lp1 = W10msReadADC(LowPin);	//measure voltage at LowPin (assumed Collector)
    3f68:	8b 8f       	std	Y+27, r24	; 0x1b
    3f6a:	82 2d       	mov	r24, r2
    3f6c:	0e 94 d3 09 	call	0x13a6	; 0x13a6 <ReadADC>
    3f70:	9e 8b       	std	Y+22, r25	; 0x16
//#endif
        adc.tp2 = ReadADC(TristatePin);	//measure voltage at TristatePin (Base) 
    3f72:	8d 8b       	std	Y+21, r24	; 0x15
    3f74:	89 2d       	mov	r24, r9
    3f76:	0e 94 d3 09 	call	0x13a6	; 0x13a6 <ReadADC>
    3f7a:	98 8f       	std	Y+24, r25	; 0x18
        adc.hp2 = ReadADC(HighPin);	//measure voltage at HighPin (assumed Emitter)
    3f7c:	8f 8b       	std	Y+23, r24	; 0x17
    3f7e:	4d 89       	ldd	r20, Y+21	; 0x15
    3f80:	5e 89       	ldd	r21, Y+22	; 0x16
    3f82:	41 3d       	cpi	r20, 0xD1	; 209
    3f84:	57 40       	sbci	r21, 0x07	; 7

        if(adc.tp2 > 2000) {
    3f86:	08 f4       	brcc	.+2      	; 0x3f8a <CheckPins+0x58c>
    3f88:	b9 c0       	rjmp	.+370    	; 0x40fc <CheckPins+0x6fe>
    3f8a:	84 e0       	ldi	r24, 0x04	; 4
    3f8c:	80 93 13 01 	sts	0x0113, r24
    3f90:	8d e0       	ldi	r24, 0x0D	; 13
              ptrans.uBE = unsigned_diff(adc.hp2, adc.tp2);	// "Offset Voltage"
              goto savePresult;
           }
#endif
           //PNP-Transistor is found (Base voltage moves with Emitter to VCC)
           PartFound = PART_TRANSISTOR;
    3f92:	80 93 12 01 	sts	0x0112, r24
    3f96:	eb 8d       	ldd	r30, Y+27	; 0x1b
           PartMode = PART_MODE_PNP;
    3f98:	fc 8d       	ldd	r31, Y+28	; 0x1c
    3f9a:	ae 16       	cp	r10, r30
    3f9c:	bf 06       	cpc	r11, r31
 #if DebugOut == 5
           lcd_line4();
           lcd_data('P');
 #endif
           tmp16 = adc.lp1;
           if (tmp16 > adc.lp_otr) {
    3f9e:	20 f4       	brcc	.+8      	; 0x3fa8 <CheckPins+0x5aa>
    3fa0:	8f 01       	movw	r16, r30
    3fa2:	0a 19       	sub	r16, r10
    3fa4:	1b 09       	sbc	r17, r11
    3fa6:	02 c0       	rjmp	.+4      	; 0x3fac <CheckPins+0x5ae>
              tmp16 -= adc.lp_otr;
    3fa8:	0b 8d       	ldd	r16, Y+27	; 0x1b
    3faa:	1c 8d       	ldd	r17, Y+28	; 0x1c
    3fac:	40 90 0d 01 	lds	r4, 0x010D
    3fb0:	50 90 0e 01 	lds	r5, 0x010E
           // e_hfe with 1% resolution for optocoupler
 #ifdef LONG_HFE
  #if DebugOut == 5
           lcd_data('H');	// PHce
  #endif
           e_hfe = ((unsigned int)tmp16 * (unsigned long)(((unsigned long)R_H_VAL * 10000) / 
    3fb4:	61 2c       	mov	r6, r1
    3fb6:	71 2c       	mov	r7, r1
    3fb8:	60 e8       	ldi	r22, 0x80	; 128
    3fba:	71 ea       	ldi	r23, 0xA1	; 161
    3fbc:	83 e0       	ldi	r24, 0x03	; 3
    3fbe:	9c e1       	ldi	r25, 0x1C	; 28
    3fc0:	a3 01       	movw	r20, r6
    3fc2:	92 01       	movw	r18, r4
    3fc4:	0e 94 2f 3d 	call	0x7a5e	; 0x7a5e <__udivmodsi4>
    3fc8:	d8 01       	movw	r26, r16
    3fca:	0e 94 88 3d 	call	0x7b10	; 0x7b10 <__muluhisi3>
    3fce:	4d 89       	ldd	r20, Y+21	; 0x15
    3fd0:	5e 89       	ldd	r21, Y+22	; 0x16
    3fd2:	8a 01       	movw	r16, r20
    3fd4:	20 e0       	ldi	r18, 0x00	; 0
              (unsigned int)RR680MI)) / (unsigned int)adc.tp2;	
    3fd6:	30 e0       	ldi	r19, 0x00	; 0
    3fd8:	a9 01       	movw	r20, r18
    3fda:	98 01       	movw	r18, r16
    3fdc:	0e 94 2f 3d 	call	0x7a5e	; 0x7a5e <__udivmodsi4>
           // e_hfe with 1% resolution for optocoupler
 #ifdef LONG_HFE
  #if DebugOut == 5
           lcd_data('H');	// PHce
  #endif
           e_hfe = ((unsigned int)tmp16 * (unsigned long)(((unsigned long)R_H_VAL * 10000) / 
    3fe0:	80 91 68 01 	lds	r24, 0x0168
    3fe4:	88 23       	and	r24, r24
    3fe6:	69 f0       	breq	.+26     	; 0x4002 <CheckPins+0x604>
           lcd_data('B');
           lcd_data('=');
           DisplayValue(e_hfe,-2,' ',3);
 #endif
           // first hFE or e_hfe is greater than last hfe ?
           if ((ptrans.count == 0) || (e_hfe > ptrans.hfe)){
    3fe8:	80 91 59 01 	lds	r24, 0x0159
    3fec:	90 91 5a 01 	lds	r25, 0x015A
    3ff0:	a0 91 5b 01 	lds	r26, 0x015B
    3ff4:	b0 91 5c 01 	lds	r27, 0x015C
    3ff8:	82 17       	cp	r24, r18
    3ffa:	93 07       	cpc	r25, r19
    3ffc:	a4 07       	cpc	r26, r20
    3ffe:	b5 07       	cpc	r27, r21
    4000:	10 f5       	brcc	.+68     	; 0x4046 <CheckPins+0x648>
    4002:	20 93 59 01 	sts	0x0159, r18
    4006:	30 93 5a 01 	sts	0x015A, r19
              ptrans.hfe = e_hfe;				// hFE with common emitter
    400a:	40 93 5b 01 	sts	0x015B, r20
    400e:	50 93 5c 01 	sts	0x015C, r21
    4012:	2b 8d       	ldd	r18, Y+27	; 0x1b
    4014:	3c 8d       	ldd	r19, Y+28	; 0x1c
    4016:	a0 e1       	ldi	r26, 0x10	; 16
    4018:	b7 e2       	ldi	r27, 0x27	; 39
 #if FLASHEND > 0x1fff  /* at least ATmega16 */
              ptrans.current = (unsigned int)(((unsigned long)adc.lp1 * 10000) / RR680MI); // Ic 1uA
    401a:	0e 94 73 3d 	call	0x7ae6	; 0x7ae6 <__umulhisi3>
    401e:	a3 01       	movw	r20, r6
    4020:	92 01       	movw	r18, r4
    4022:	0e 94 2f 3d 	call	0x7a5e	; 0x7a5e <__udivmodsi4>
    4026:	30 93 60 01 	sts	0x0160, r19
    402a:	20 93 5f 01 	sts	0x015F, r18
    402e:	6d 89       	ldd	r22, Y+21	; 0x15
    4030:	7e 89       	ldd	r23, Y+22	; 0x16
    4032:	8f 89       	ldd	r24, Y+23	; 0x17
    4034:	98 8d       	ldd	r25, Y+24	; 0x18
 #endif
              ptrans.uBE = unsigned_diff(adc.hp2, adc.tp2);	// Base Emitter Voltage
    4036:	0e 94 3c 0a 	call	0x1478	; 0x1478 <unsigned_diff>
    403a:	90 93 5e 01 	sts	0x015E, r25
    403e:	80 93 5d 01 	sts	0x015D, r24
    4042:	81 e0       	ldi	r24, 0x01	; 1
    4044:	01 c0       	rjmp	.+2      	; 0x4048 <CheckPins+0x64a>
    4046:	80 e0       	ldi	r24, 0x00	; 0
    4048:	40 91 59 01 	lds	r20, 0x0159
              update_pins = 1;		// trans.ebc must be updated
    404c:	50 91 5a 01 	lds	r21, 0x015A
#ifdef COMMON_COLLECTOR
           //current amplification factor for common  Collector (Emitter follower)
           // c_hFE = (Emitter current - Base current) / Base current
 #ifdef COMMON_EMITTER
           // also with COMMON_EMITTER, is c_hfe greater than the last hFE?
           if (c_hfe > ptrans.hfe)  // trans.hfe is allready e_hfe or last c_hFE
    4050:	60 91 5b 01 	lds	r22, 0x015B
    4054:	70 91 5c 01 	lds	r23, 0x015C
    4058:	4c 15       	cp	r20, r12
    405a:	5d 05       	cpc	r21, r13
    405c:	6e 05       	cpc	r22, r14
    405e:	7f 05       	cpc	r23, r15
    4060:	38 f5       	brcc	.+78     	; 0x40b0 <CheckPins+0x6b2>
    4062:	c0 92 59 01 	sts	0x0159, r12
    4066:	d0 92 5a 01 	sts	0x015A, r13
 #else
           // without COMMON_EMITTER , c_hFE is first or greater than the old one?
           if ((ptrans.count == 0) || (c_hfe > ptrans.hfe)) 
 #endif
           {
              ptrans.hfe = c_hfe;		// c_hfe is the best
    406a:	e0 92 5b 01 	sts	0x015B, r14
    406e:	f0 92 5c 01 	sts	0x015C, r15
    4072:	6e 85       	ldd	r22, Y+14	; 0x0e
    4074:	7f 85       	ldd	r23, Y+15	; 0x0f
    4076:	8a 89       	ldd	r24, Y+18	; 0x12
    4078:	9b 89       	ldd	r25, Y+19	; 0x13
              ptrans.uBE = unsigned_diff(adc.hp1, adc.tp1);	// Base Emitter Voltage common collector
    407a:	0e 94 3c 0a 	call	0x1478	; 0x1478 <unsigned_diff>
    407e:	90 93 5e 01 	sts	0x015E, r25
    4082:	80 93 5d 01 	sts	0x015D, r24
    4086:	28 85       	ldd	r18, Y+8	; 0x08
    4088:	39 85       	ldd	r19, Y+9	; 0x09
    408a:	a0 e1       	ldi	r26, 0x10	; 16
    408c:	b7 e2       	ldi	r27, 0x27	; 39
 #if FLASHEND > 0x1fff  /* at least ATmega16 */
              ptrans.current = (unsigned int)(((unsigned long)adc.rhp * 10000) / RR680PL); // Ie 1uA
    408e:	0e 94 73 3d 	call	0x7ae6	; 0x7ae6 <__umulhisi3>
    4092:	20 91 14 01 	lds	r18, 0x0114
    4096:	30 91 15 01 	lds	r19, 0x0115
    409a:	40 e0       	ldi	r20, 0x00	; 0
    409c:	50 e0       	ldi	r21, 0x00	; 0
    409e:	0e 94 2f 3d 	call	0x7a5e	; 0x7a5e <__udivmodsi4>
    40a2:	20 5f       	subi	r18, 0xF0	; 240
    40a4:	38 4d       	sbci	r19, 0xD8	; 216
    40a6:	30 93 60 01 	sts	0x0160, r19
              ptrans.current += 10000;		// current at emitter!
    40aa:	20 93 5f 01 	sts	0x015F, r18
    40ae:	03 c0       	rjmp	.+6      	; 0x40b6 <CheckPins+0x6b8>
    40b0:	88 23       	and	r24, r24
    40b2:	09 f4       	brne	.+2      	; 0x40b6 <CheckPins+0x6b8>
    40b4:	9c c3       	rjmp	.+1848   	; 0x47ee <CheckPins+0xdf0>
    40b6:	c0 90 0d 01 	lds	r12, 0x010D
#endif   /* end COMMON_COLLECTOR */
#if DebugOut == 5
           lcd_data('B');
#endif
#ifdef SHOW_ICE
           if (update_pins != 0) {
    40ba:	d0 90 0e 01 	lds	r13, 0x010E
	      // update residual collector current without base current
              ptrans.ice0 = (unsigned int)(((unsigned long)adc.lp_otr * 10000) / RR680MI); // ICE0 1uA
    40be:	e1 2c       	mov	r14, r1
    40c0:	f1 2c       	mov	r15, r1
    40c2:	95 01       	movw	r18, r10
    40c4:	a0 e1       	ldi	r26, 0x10	; 16
    40c6:	b7 e2       	ldi	r27, 0x27	; 39
    40c8:	0e 94 73 3d 	call	0x7ae6	; 0x7ae6 <__umulhisi3>
    40cc:	a7 01       	movw	r20, r14
    40ce:	96 01       	movw	r18, r12
    40d0:	0e 94 2f 3d 	call	0x7a5e	; 0x7a5e <__udivmodsi4>
    40d4:	30 93 62 01 	sts	0x0162, r19
    40d8:	20 93 61 01 	sts	0x0161, r18
    40dc:	2c 85       	ldd	r18, Y+12	; 0x0c
    40de:	3d 85       	ldd	r19, Y+13	; 0x0d
    40e0:	a0 e1       	ldi	r26, 0x10	; 16
    40e2:	b7 e2       	ldi	r27, 0x27	; 39
              ptrans.ices = (unsigned int)(((unsigned long)adc.vCEs * 10000) / RR680MI); // ICEs 1uA
    40e4:	0e 94 73 3d 	call	0x7ae6	; 0x7ae6 <__umulhisi3>
    40e8:	a7 01       	movw	r20, r14
    40ea:	96 01       	movw	r18, r12
    40ec:	0e 94 2f 3d 	call	0x7a5e	; 0x7a5e <__udivmodsi4>
    40f0:	30 93 64 01 	sts	0x0164, r19
    40f4:	20 93 63 01 	sts	0x0163, r18
    40f8:	81 e0       	ldi	r24, 0x01	; 1
    40fa:	79 c3       	rjmp	.+1778   	; 0x47ee <CheckPins+0xdf0>
    40fc:	51 e6       	ldi	r21, 0x61	; 97
    40fe:	a5 16       	cp	r10, r21
    4100:	b1 04       	cpc	r11, r1
    4102:	08 f0       	brcs	.+2      	; 0x4106 <CheckPins+0x708>
           }
#endif
           goto savePresult;		// marke P type, save Pins and exit
        }  /* end  if(adc.tp2 > 2000) */
        // is probably a P-E-MOS, check voltage
        if((adc.lp_otr < 97) && (adc.lp1 > 2000)) {
    4104:	71 c0       	rjmp	.+226    	; 0x41e8 <CheckPins+0x7ea>
    4106:	8b 8d       	ldd	r24, Y+27	; 0x1b
    4108:	9c 8d       	ldd	r25, Y+28	; 0x1c
    410a:	81 3d       	cpi	r24, 0xD1	; 209
    410c:	97 40       	sbci	r25, 0x07	; 7
    410e:	08 f4       	brcc	.+2      	; 0x4112 <CheckPins+0x714>
    4110:	6b c0       	rjmp	.+214    	; 0x41e8 <CheckPins+0x7ea>
    4112:	85 e0       	ldi	r24, 0x05	; 5
    4114:	80 93 13 01 	sts	0x0113, r24
    4118:	82 e1       	ldi	r24, 0x12	; 18
           //is flow voltage low enough in the closed  state?
           //(since D-Mode-FET would be by mistake detected as E-Mode )
           PartFound = PART_FET;		//P-Kanal-MOSFET is found (Basis/Gate moves not to VCC)
    411a:	80 93 12 01 	sts	0x0112, r24
    411e:	8b 8d       	ldd	r24, Y+27	; 0x1b
           PartMode = PART_MODE_MOS|P_CHANNEL|E_MODE;
    4120:	9c 8d       	ldd	r25, Y+28	; 0x1c
    4122:	86 50       	subi	r24, 0x06	; 6
    4124:	9f 4f       	sbci	r25, 0xFF	; 255
           if (adc.hp2 > (adc.lp1+250)) {
    4126:	2f 89       	ldd	r18, Y+23	; 0x17
    4128:	38 8d       	ldd	r19, Y+24	; 0x18
    412a:	82 17       	cp	r24, r18
    412c:	93 07       	cpc	r25, r19
    412e:	20 f4       	brcc	.+8      	; 0x4138 <CheckPins+0x73a>
    4130:	83 e1       	ldi	r24, 0x13	; 19
    4132:	80 93 12 01 	sts	0x0112, r24
    4136:	19 c0       	rjmp	.+50     	; 0x416a <CheckPins+0x76c>
           lcd_space();
           mVOut(adc.hp2);
           mVOut(adc.lp1);
 #endif
              //Drain-Source Voltage to high, must be a IGBT
              PartMode = PART_MODE_IGBT|P_CHANNEL|E_MODE;
    4138:	00 91 0d 01 	lds	r16, 0x010D
    413c:	10 91 0e 01 	lds	r17, 0x010E
#ifdef SHOW_R_DS
           } else {
              ptrans.uBE = RR680MI * (unsigned long)unsigned_diff(adc.hp2, adc.lp1) / adc.lp1; // DS resistance in 0.1 OHm
    4140:	6b 8d       	ldd	r22, Y+27	; 0x1b
    4142:	7c 8d       	ldd	r23, Y+28	; 0x1c
    4144:	8f 89       	ldd	r24, Y+23	; 0x17
    4146:	98 8d       	ldd	r25, Y+24	; 0x18
    4148:	0e 94 3c 0a 	call	0x1478	; 0x1478 <unsigned_diff>
    414c:	9c 01       	movw	r18, r24
    414e:	d8 01       	movw	r26, r16
    4150:	0e 94 73 3d 	call	0x7ae6	; 0x7ae6 <__umulhisi3>
    4154:	eb 8d       	ldd	r30, Y+27	; 0x1b
    4156:	fc 8d       	ldd	r31, Y+28	; 0x1c
    4158:	9f 01       	movw	r18, r30
    415a:	40 e0       	ldi	r20, 0x00	; 0
    415c:	50 e0       	ldi	r21, 0x00	; 0
    415e:	0e 94 2f 3d 	call	0x7a5e	; 0x7a5e <__udivmodsi4>
    4162:	30 93 5e 01 	sts	0x015E, r19
    4166:	20 93 5d 01 	sts	0x015D, r18
    416a:	09 89       	ldd	r16, Y+17	; 0x11
    416c:	07 70       	andi	r16, 0x07	; 7
    416e:	82 2d       	mov	r24, r2
    4170:	80 64       	ori	r24, 0x40	; 64
           }  /* end if (adc.hp2 > (adc.lp1+250)) */
       	   //measure the Gate threshold voltage
           //Switching of Drain is monitored with digital input
           // Low level is specified up to 0.3 * VCC
           // High level is specified above 0.6 * VCC
           PinMSK = LoADCm & 7;
    4172:	80 93 7c 00 	sts	0x007C, r24
       	   ADMUX = TristatePin | (1<<REFS0);	// switch to TristatePin, Ref. VCC
    4176:	1b e0       	ldi	r17, 0x0B	; 11
    4178:	cc 24       	eor	r12, r12
    417a:	c3 94       	inc	r12
    417c:	d1 2c       	mov	r13, r1
    417e:	ee 24       	eor	r14, r14
       	   tmp16 = 1;			// round up ((1*4)/9)
    4180:	ea 94       	dec	r14
    4182:	a3 e0       	ldi	r26, 0x03	; 3
    4184:	fa 2e       	mov	r15, r26
       	      while (!(ADC_PIN&PinMSK));		// Wait, until the MOSFET switches and Drain moves to VCC
                  			// 1 is detected with more than 2.5V (up to 2.57V) with tests of mega168 and mega328
       	      R_DDR = LoPinRL;
       	      ADCSRA |= (1<<ADSC);		// Start Conversion
       	      while (ADCSRA&(1<<ADSC));		// wait
      	      tmp16 += (1023 - ADCW);	// Add Tristatepin-Voltage
    4186:	a8 95       	wdr
    4188:	61 e0       	ldi	r22, 0x01	; 1
    418a:	89 81       	ldd	r24, Y+1	; 0x01
    418c:	63 d5       	rcall	.+2758   	; 0x4c54 <ChargePin10ms>
           // High level is specified above 0.6 * VCC
           PinMSK = LoADCm & 7;
       	   ADMUX = TristatePin | (1<<REFS0);	// switch to TristatePin, Ref. VCC
       	   tmp16 = 1;			// round up ((1*4)/9)
       	   for(ii=0;ii<11;ii++) {
       	      wdt_reset();
    418e:	74 b8       	out	0x04, r7	; 4
       	      ChargePin10ms(TriPinRL,1);
    4190:	86 b1       	in	r24, 0x06	; 6
    4192:	80 23       	and	r24, r16
    4194:	e9 f3       	breq	.-6      	; 0x4190 <CheckPins+0x792>
    4196:	fb 85       	ldd	r31, Y+11	; 0x0b
                R_DDR = LoPinRL | TriPinRH;		//switch R_H for Tristate-Pin (Basis) to GND
    4198:	f4 b9       	out	0x04, r31	; 4
       	      while (!(ADC_PIN&PinMSK));		// Wait, until the MOSFET switches and Drain moves to VCC
    419a:	80 91 7a 00 	lds	r24, 0x007A
    419e:	80 64       	ori	r24, 0x40	; 64
                  			// 1 is detected with more than 2.5V (up to 2.57V) with tests of mega168 and mega328
       	      R_DDR = LoPinRL;
    41a0:	80 93 7a 00 	sts	0x007A, r24
       	      ADCSRA |= (1<<ADSC);		// Start Conversion
    41a4:	80 91 7a 00 	lds	r24, 0x007A
    41a8:	86 fd       	sbrc	r24, 6
    41aa:	fc cf       	rjmp	.-8      	; 0x41a4 <CheckPins+0x7a6>
    41ac:	80 91 78 00 	lds	r24, 0x0078
       	      while (ADCSRA&(1<<ADSC));		// wait
    41b0:	90 91 79 00 	lds	r25, 0x0079
    41b4:	97 01       	movw	r18, r14
      	      tmp16 += (1023 - ADCW);	// Add Tristatepin-Voltage
    41b6:	28 1b       	sub	r18, r24
    41b8:	39 0b       	sbc	r19, r25
    41ba:	c2 0e       	add	r12, r18
    41bc:	d3 1e       	adc	r13, r19
    41be:	11 50       	subi	r17, 0x01	; 1
    41c0:	11 f7       	brne	.-60     	; 0x4186 <CheckPins+0x788>
    41c2:	c6 01       	movw	r24, r12
    41c4:	88 0f       	add	r24, r24
    41c6:	99 1f       	adc	r25, r25
    41c8:	88 0f       	add	r24, r24
           // Low level is specified up to 0.3 * VCC
           // High level is specified above 0.6 * VCC
           PinMSK = LoADCm & 7;
       	   ADMUX = TristatePin | (1<<REFS0);	// switch to TristatePin, Ref. VCC
       	   tmp16 = 1;			// round up ((1*4)/9)
       	   for(ii=0;ii<11;ii++) {
    41ca:	99 1f       	adc	r25, r25
       	      R_DDR = LoPinRL;
       	      ADCSRA |= (1<<ADSC);		// Start Conversion
       	      while (ADCSRA&(1<<ADSC));		// wait
      	      tmp16 += (1023 - ADCW);	// Add Tristatepin-Voltage
           }
           tmp16 *= 4;		// is equal to 44*ADCW
    41cc:	69 e0       	ldi	r22, 0x09	; 9
    41ce:	70 e0       	ldi	r23, 0x00	; 0
    41d0:	0e 94 08 3d 	call	0x7a10	; 0x7a10 <__udivmodhi4>
    41d4:	70 93 64 01 	sts	0x0164, r23
           ptrans.gthvoltage = tmp16 / 9;		// gives resolution in mV
    41d8:	60 93 63 01 	sts	0x0163, r22
    41dc:	80 91 68 01 	lds	r24, 0x0168
    41e0:	8f 5f       	subi	r24, 0xFF	; 255
    41e2:	80 93 68 01 	sts	0x0168, r24
           ptrans.count++;		// count FET as two for accelerate searching
    41e6:	88 cf       	rjmp	.-240    	; 0x40f8 <CheckPins+0x6fa>
    41e8:	74 b8       	out	0x04, r7	; 4
    41ea:	15 b9       	out	0x05, r17	; 5
    41ec:	88 2d       	mov	r24, r8
    41ee:	0e 94 cf 09 	call	0x139e	; 0x139e <W5msReadADC>
 #if DebugOut == 5
     lcd_line4();
     lcd_data('N');
 #endif
    // first try to get hFE with RH
    R_DDR = LoPinRL | TriPinRH;
    41f2:	6c 01       	movw	r12, r24
    R_PORT = TriPinRH;		// Tripin=RH+
    41f4:	82 2d       	mov	r24, r2
    adc.lp1 = W5msReadADC(LowPin);
    41f6:	0e 94 d3 09 	call	0x13a6	; 0x13a6 <ReadADC>
    41fa:	99 87       	std	Y+9, r25	; 0x09
    41fc:	88 87       	std	Y+8, r24	; 0x08
    adc.tp1 = ReadADC(TristatePin);	// voltage at the Base 
    41fe:	0e 94 37 0a 	call	0x146e	; 0x146e <vcc_diff>
    4202:	7c 01       	movw	r14, r24
    4204:	4c 14       	cp	r4, r12
    4206:	5d 04       	cpc	r5, r13
    adc.rtp = vcc_diff(adc.tp1);	// voltage at Base resistor
    4208:	b0 f4       	brcc	.+44     	; 0x4236 <CheckPins+0x838>
    420a:	b5 01       	movw	r22, r10
    420c:	c6 01       	movw	r24, r12
    if (adc.lp1 > (100+adc.lp_otr)) {
    420e:	0e 94 3c 0a 	call	0x1478	; 0x1478 <unsigned_diff>
    4212:	8c 01       	movw	r16, r24
       // c_hfe with 1% resolution for optocoupler
       // compute c_hfe with RH Base resistor
       tmp16 = unsigned_diff(adc.lp1, adc.lp_otr);
    4214:	20 91 0d 01 	lds	r18, 0x010D
    4218:	30 91 0e 01 	lds	r19, 0x010E
    421c:	40 e0       	ldi	r20, 0x00	; 0
 #ifdef LONG_HFE
  #if DebugOut == 5
       lcd_data('H');	// NHcc
  #endif

       c_hfe = ((unsigned long)tmp16 * (unsigned long)(((unsigned long)R_H_VAL * 10000) / 
    421e:	50 e0       	ldi	r21, 0x00	; 0
    4220:	60 e8       	ldi	r22, 0x80	; 128
    4222:	71 ea       	ldi	r23, 0xA1	; 161
    4224:	83 e0       	ldi	r24, 0x03	; 3
    4226:	9c e1       	ldi	r25, 0x1C	; 28
    4228:	0e 94 2f 3d 	call	0x7a5e	; 0x7a5e <__udivmodsi4>
    422c:	d8 01       	movw	r26, r16
    422e:	0e 94 88 3d 	call	0x7b10	; 0x7b10 <__muluhisi3>
    4232:	97 01       	movw	r18, r14
    4234:	1e c0       	rjmp	.+60     	; 0x4272 <CheckPins+0x874>
    4236:	64 b8       	out	0x04, r6	; 4
    4238:	39 81       	ldd	r19, Y+1	; 0x01
    423a:	35 b9       	out	0x05, r19	; 5
              (unsigned int)RR680MI)) / (unsigned int)adc.rtp;	
    423c:	88 2d       	mov	r24, r8
    423e:	0e 94 cf 09 	call	0x139e	; 0x139e <W5msReadADC>
       c_hfe = ((tmp16 / ((RR680MI+500)/1000)) * (R_H_VAL/500)) / (adc.tp2/5);
 #endif
    } else {
    // Low-Pin=RL- HighPin=VCC
      R_DDR = LoPinRL | TriPinRL;
      R_PORT = TriPinRL;			// TriPin=RL+  NPN with common Collector
    4242:	6c 01       	movw	r12, r24
    4244:	82 2d       	mov	r24, r2
      adc.lp1 = W5msReadADC(LowPin);	// voltage at Emitter resistor
    4246:	0e 94 d3 09 	call	0x13a6	; 0x13a6 <ReadADC>
    424a:	99 87       	std	Y+9, r25	; 0x09
    424c:	88 87       	std	Y+8, r24	; 0x08
      adc.tp1 = ReadADC(TristatePin);	// voltage at the Base 
    424e:	0e 94 37 0a 	call	0x146e	; 0x146e <vcc_diff>
    4252:	8c 01       	movw	r16, r24
    4254:	c6 01       	movw	r24, r12
    4256:	ac 14       	cp	r10, r12
      adc.rtp = vcc_diff(adc.tp1);	// voltage at Base resistor
    4258:	bd 04       	cpc	r11, r13
    425a:	10 f4       	brcc	.+4      	; 0x4260 <CheckPins+0x862>
    425c:	8a 19       	sub	r24, r10
 #if DebugOut == 5
       lcd_data('L');	// NLcc
 #endif
       tmp16 = adc.lp1;
       if (tmp16 > adc.lp_otr) {
          tmp16 -= adc.lp_otr;
    425e:	9b 09       	sbc	r25, r11
      adc.rtp = vcc_diff(adc.tp1);	// voltage at Base resistor
 #if DebugOut == 5
       lcd_data('L');	// NLcc
 #endif
       tmp16 = adc.lp1;
       if (tmp16 > adc.lp_otr) {
    4260:	b8 01       	movw	r22, r16
    4262:	0e 94 3c 0a 	call	0x1478	; 0x1478 <unsigned_diff>
          tmp16 -= adc.lp_otr;
    4266:	9c 01       	movw	r18, r24
    4268:	a4 e6       	ldi	r26, 0x64	; 100
       }
       // compute c_hfe with RL Base resistor
       c_hfe = (unsigned long)((unsigned long)unsigned_diff(tmp16, adc.rtp) * 100) / adc.rtp;
    426a:	b0 e0       	ldi	r27, 0x00	; 0
    426c:	0e 94 73 3d 	call	0x7ae6	; 0x7ae6 <__umulhisi3>
    4270:	98 01       	movw	r18, r16
    4272:	40 e0       	ldi	r20, 0x00	; 0
    4274:	50 e0       	ldi	r21, 0x00	; 0
    4276:	0e 94 2f 3d 	call	0x7a5e	; 0x7a5e <__udivmodsi4>
    427a:	29 01       	movw	r4, r18
    427c:	3a 01       	movw	r6, r20
    427e:	4b 81       	ldd	r20, Y+3	; 0x03
    4280:	47 b9       	out	0x07, r20	; 7
    4282:	88 e0       	ldi	r24, 0x08	; 8
    4284:	88 b9       	out	0x08, r24	; 8
    4286:	5e 81       	ldd	r21, Y+6	; 0x06
     lcd_data('=');
     DisplayValue(c_hfe,-2,' ',3);
 #endif
#endif
    //Tristate (can be Base) to VCC, Test if NPN
    ADC_DDR = LoADCm;		//Low-Pin to output 0V
    4288:	54 b9       	out	0x04, r21	; 4
    428a:	55 b9       	out	0x05, r21	; 5
    ADC_PORT = TXD_VAL;			//switch Low-Pin to GND
    428c:	89 2d       	mov	r24, r9
    428e:	0e 94 cf 09 	call	0x139e	; 0x139e <W5msReadADC>
    R_DDR = TriPinRL | HiPinRL;		//RL port for High-Pin and Tristate-Pin to output
    4292:	8c 01       	movw	r16, r24
    // vCEs is already measured correctly with common emitter circuit
    R_PORT = TriPinRL | HiPinRL;	//RL port for High-Pin and Tristate-Pin to Vcc
    4294:	82 2d       	mov	r24, r2
    adc.hp1 = W5msReadADC(HighPin);	//measure voltage at High-Pin  (Collector)
    4296:	0e 94 d3 09 	call	0x13a6	; 0x13a6 <ReadADC>
    429a:	9f 87       	std	Y+15, r25	; 0x0f
    429c:	8e 87       	std	Y+14, r24	; 0x0e
#ifdef WITH_THYRISTOR_GATE_V
    adc.tp2 = ReadADC(TristatePin);	//voltage of gate
    429e:	88 2d       	mov	r24, r8
    42a0:	0e 94 d3 09 	call	0x13a6	; 0x13a6 <ReadADC>
    42a4:	7c 01       	movw	r14, r24
    42a6:	00 33       	cpi	r16, 0x30	; 48
    adc.lp2 = ReadADC(LowPin);		//voltage of Cathode
    42a8:	81 e1       	ldi	r24, 0x11	; 17
    42aa:	18 07       	cpc	r17, r24
    42ac:	08 f0       	brcs	.+2      	; 0x42b0 <CheckPins+0x8b2>
    42ae:	be c1       	rjmp	.+892    	; 0x462c <CheckPins+0xc2e>
#endif
//    if(adc.hp1 < 1600) 
//    if(adc.hp1 < 4500)    /* limit for opto-coupler with low hFE */
    if(adc.hp1 < 4400)    /* limit for opto-coupler with low hFE */
    42b0:	35 b8       	out	0x05, r3	; 5
    42b2:	89 2d       	mov	r24, r9
    42b4:	0e 94 cf 09 	call	0x139e	; 0x139e <W5msReadADC>
    42b8:	9c 01       	movw	r18, r24
       //Gate discharge
//      ChargePin10ms(TriPinRL,0);	//Tristate-Pin (Gate) across R_L 10ms to GND
       // TRIAC's can be triggered with gate and A1 (C) swapped. The current remains after triggering 
       // from gate to A2 (A) instead of A1 to A2. I have found that in this state the current will be lower,
       // if the Tristatepin (A1) is switched to GND.
       R_PORT = HiPinRL;
    42ba:	34 b8       	out	0x04, r3	; 4
       adc.hp4 = W5msReadADC(HighPin);  //read voltage with switched back base
    42bc:	89 2d       	mov	r24, r9
    42be:	2d 8f       	std	Y+29, r18	; 0x1d
    42c0:	3e 8f       	std	Y+30, r19	; 0x1e
    42c2:	0e 94 cf 09 	call	0x139e	; 0x139e <W5msReadADC>
       R_DDR = HiPinRL;			// base to input
       adc.hp3 = W5msReadADC(HighPin);	//read voltage at High-Pin (probably Anode) again
    42c6:	bc 01       	movw	r22, r24
    42c8:	15 b8       	out	0x05, r1	; 5
    42ca:	81 e0       	ldi	r24, 0x01	; 1
    42cc:	69 8f       	std	Y+25, r22	; 0x19
    42ce:	7a 8f       	std	Y+26, r23	; 0x1a
    42d0:	0e 94 9b 09 	call	0x1336	; 0x1336 <sleep_5ms>
					//current should still flow, if not,
					// no Thyristor or holding current to low 
		 	
       R_PORT = 0;			//switch R_L for High-Pin (probably Anode) to GND (turn off)
       wait_about5ms();
    42d4:	35 b8       	out	0x05, r3	; 5
    42d6:	89 2d       	mov	r24, r9
    42d8:	0e 94 cf 09 	call	0x139e	; 0x139e <W5msReadADC>
    42dc:	69 8d       	ldd	r22, Y+25	; 0x19
       R_PORT = HiPinRL;		//switch R_L for High-Pin (probably Anode) again to VCC
    42de:	7a 8d       	ldd	r23, Y+26	; 0x1a
       adc.hp2 = W5msReadADC(HighPin);	//measure voltage at the High-Pin (probably Anode) again
    42e0:	2d 8d       	ldd	r18, Y+29	; 0x1d
    42e2:	3e 8d       	ldd	r19, Y+30	; 0x1e
    42e4:	60 34       	cpi	r22, 0x40	; 64
       lcd_space();
       mVOut(adc.hp3);
       mVOut(adc.hp2);
       mVOut(adc.hp1);
#endif
       if((adc.hp3 < 1600) && (adc.hp2 > 4400)
    42e6:	76 40       	sbci	r23, 0x06	; 6
    42e8:	08 f0       	brcs	.+2      	; 0x42ec <CheckPins+0x8ee>
    42ea:	5b c0       	rjmp	.+182    	; 0x43a2 <CheckPins+0x9a4>
    42ec:	81 33       	cpi	r24, 0x31	; 49
    42ee:	91 41       	sbci	r25, 0x11	; 17
    42f0:	08 f4       	brcc	.+2      	; 0x42f4 <CheckPins+0x8f6>
    42f2:	57 c0       	rjmp	.+174    	; 0x43a2 <CheckPins+0x9a4>
    42f4:	c8 01       	movw	r24, r16
    42f6:	8a 56       	subi	r24, 0x6A	; 106
    42f8:	9f 4f       	sbci	r25, 0xFF	; 255
    42fa:	28 17       	cp	r18, r24
    42fc:	39 07       	cpc	r19, r25
           // additional check the voltage hp4 at A with gate hold at GND level
           && ((adc.hp1+150) > adc.hp4)
    42fe:	08 f0       	brcs	.+2      	; 0x4302 <CheckPins+0x904>
    4300:	50 c0       	rjmp	.+160    	; 0x43a2 <CheckPins+0x9a4>
    4302:	86 e0       	ldi	r24, 0x06	; 6
    4304:	80 93 13 01 	sts	0x0113, r24
    4308:	80 91 48 01 	lds	r24, 0x0148
                                              ) {
          //if the holding current was switched off the thyristor must be switched off too. 
          //if Thyristor was still swiched on, if gate was switched off => Thyristor
          PartFound = PART_THYRISTOR;
    430c:	8f 5f       	subi	r24, 0xFF	; 255
    430e:	80 93 48 01 	sts	0x0148, r24
          lcd_data('Y');
          lcd_testpin(HighPin);
          lcd_space();
#endif
 
          ntrans.count++;		// mark as two N-type transistors
    4312:	b7 01       	movw	r22, r14
    4314:	8e 85       	ldd	r24, Y+14	; 0x0e
    4316:	9f 85       	ldd	r25, Y+15	; 0x0f
    4318:	0e 94 3c 0a 	call	0x1478	; 0x1478 <unsigned_diff>
#ifdef WITH_THYRISTOR_GATE_V
          ntrans.uBE = unsigned_diff(adc.tp2, adc.lp2);	// Gate - Cathode Voltage 
    431c:	90 93 3e 01 	sts	0x013E, r25
    4320:	80 93 3d 01 	sts	0x013D, r24
    4324:	b7 01       	movw	r22, r14
    4326:	c8 01       	movw	r24, r16
    4328:	0e 94 3c 0a 	call	0x1478	; 0x1478 <unsigned_diff>
    432c:	90 93 44 01 	sts	0x0144, r25
          ntrans.gthvoltage = unsigned_diff(adc.hp1, adc.lp2);	// Anode-Cathode Voltage
    4330:	80 93 43 01 	sts	0x0143, r24
    4334:	14 b8       	out	0x04, r1	; 4
    4336:	15 b8       	out	0x05, r1	; 5
    4338:	29 89       	ldd	r18, Y+17	; 0x11
    433a:	28 b9       	out	0x08, r18	; 8
    433c:	81 e0       	ldi	r24, 0x01	; 1
#endif
          //Test if Triac
          R_DDR = 0;
    433e:	0e 94 9b 09 	call	0x1336	; 0x1336 <sleep_5ms>
          R_PORT = 0;
          ADC_PORT = LoADCp;	//Low-Pin fix to VCC
    4342:	34 b8       	out	0x04, r3	; 4
    4344:	89 2d       	mov	r24, r9
          wait_about5ms();
    4346:	0e 94 cf 09 	call	0x139e	; 0x139e <W5msReadADC>
    434a:	85 3f       	cpi	r24, 0xF5	; 245
          R_DDR = HiPinRL;		//switch R_L port HighPin to output (GND)
    434c:	91 05       	cpc	r25, r1
          if(W5msReadADC(HighPin) > 244) {
    434e:	08 f0       	brcs	.+2      	; 0x4352 <CheckPins+0x954>
    4350:	5c c2       	rjmp	.+1208   	; 0x480a <CheckPins+0xe0c>
    4352:	3e 81       	ldd	r19, Y+6	; 0x06
    4354:	34 b9       	out	0x04, r19	; 4
    4356:	82 2d       	mov	r24, r2
    4358:	0e 94 cf 09 	call	0x139e	; 0x139e <W5msReadADC>
             lcd_space();
#endif
             goto saveNresult;		//measure voltage at the  High-Pin (probably A2); if too high:
                                	//component has current => kein Triac
          }
          R_DDR = HiPinRL | TriPinRL;	//switch R_L port for TristatePin (Gate) to output (GND) => Triac should be triggered 
    435c:	81 3d       	cpi	r24, 0xD1	; 209
    435e:	93 40       	sbci	r25, 0x03	; 3
          if(W5msReadADC(TristatePin) < 977) {
    4360:	08 f4       	brcc	.+2      	; 0x4364 <CheckPins+0x966>
    4362:	53 c2       	rjmp	.+1190   	; 0x480a <CheckPins+0xe0c>
    4364:	89 2d       	mov	r24, r9
    4366:	0e 94 d3 09 	call	0x13a6	; 0x13a6 <ReadADC>
    436a:	8d 3d       	cpi	r24, 0xDD	; 221
    436c:	92 40       	sbci	r25, 0x02	; 2
             lcd_space();
#endif
             goto saveNresult; 		//measure voltage at the Tristate-Pin (probably Gate) ;
                              		// if to low, abort 
          }
          if(ReadADC(HighPin) < 733) {
    436e:	08 f4       	brcc	.+2      	; 0x4372 <CheckPins+0x974>
    4370:	4c c2       	rjmp	.+1176   	; 0x480a <CheckPins+0xe0c>
    4372:	34 b8       	out	0x04, r3	; 4
    4374:	89 2d       	mov	r24, r9
    4376:	0e 94 cf 09 	call	0x139e	; 0x139e <W5msReadADC>
    437a:	8d 3d       	cpi	r24, 0xDD	; 221
             lcd_data('7');
             lcd_space();
#endif
             goto saveNresult; 		//component has no current => no Triac => abort
          }
          R_DDR = HiPinRL;		//TristatePin (Gate) to input 
    437c:	92 40       	sbci	r25, 0x02	; 2
          if(W5msReadADC(HighPin) < 733) {
    437e:	08 f4       	brcc	.+2      	; 0x4382 <CheckPins+0x984>
    4380:	44 c2       	rjmp	.+1160   	; 0x480a <CheckPins+0xe0c>
    4382:	35 b8       	out	0x05, r3	; 5
    4384:	81 e0       	ldi	r24, 0x01	; 1
    4386:	0e 94 9b 09 	call	0x1336	; 0x1336 <sleep_5ms>
    438a:	15 b8       	out	0x05, r1	; 5
             lcd_data('3');
             lcd_space();
#endif
             goto saveNresult; 		//component has no current without base current => no Triac => abort
          }
          R_PORT = HiPinRL;		//switch R_L port for HighPin to VCC => switch off holding current 
    438c:	89 2d       	mov	r24, r9
          wait_about5ms();
    438e:	0e 94 cf 09 	call	0x139e	; 0x139e <W5msReadADC>
    4392:	85 3f       	cpi	r24, 0xF5	; 245
          R_PORT = 0;			//switch R_L port for HighPin again to GND; Triac should now switched off
    4394:	91 05       	cpc	r25, r1
          if(W5msReadADC(HighPin) > 244) {
    4396:	08 f0       	brcs	.+2      	; 0x439a <CheckPins+0x99c>
    4398:	38 c2       	rjmp	.+1136   	; 0x480a <CheckPins+0xe0c>
    439a:	87 e0       	ldi	r24, 0x07	; 7
    439c:	80 93 13 01 	sts	0x0113, r24
    43a0:	34 c2       	rjmp	.+1128   	; 0x480a <CheckPins+0xe0c>
    43a2:	fb 81       	ldd	r31, Y+3	; 0x03
             lcd_space();
#endif
             goto saveNresult;		//measure voltage at the High-Pin (probably A2) ;
                                	//if to high, component is not switched off => no Triac, abort
          }
          PartFound = PART_TRIAC;
    43a4:	f7 b9       	out	0x07, r31	; 7
    43a6:	29 81       	ldd	r18, Y+1	; 0x01
    43a8:	24 b9       	out	0x04, r18	; 4
    43aa:	25 b9       	out	0x05, r18	; 5
          goto saveNresult;
        }
      //Test if NPN Transistor or MOSFET
      ADC_DDR = LoADCm;	//Low-Pin to output 0V
    43ac:	81 e0       	ldi	r24, 0x01	; 1
    43ae:	0e 94 9b 09 	call	0x1336	; 0x1336 <sleep_5ms>
 #if FLASHEND > 0x1fff
//      R_DDR = HiPinRL | TriPinRL;	//R_L port of Tristate-Pin (Basis) to output
//      R_PORT = HiPinRL | TriPinRL;	//R_L port of Tristate-Pin (Basis) to VCC
      R_DDR =  TriPinRL;	//R_L port of Tristate-Pin (Basis) to output
    43b2:	3a 85       	ldd	r19, Y+10	; 0x0a
      R_PORT = TriPinRL;	//R_L port of Tristate-Pin (Basis) to VCC
    43b4:	34 b9       	out	0x04, r19	; 4
      wait_about5ms();			// load gate capacitor
    43b6:	35 b9       	out	0x05, r19	; 5
    43b8:	89 2d       	mov	r24, r9
    43ba:	0e 94 cf 09 	call	0x139e	; 0x139e <W5msReadADC>
      R_DDR = HiPinRL | TriPinRH;	//R_H port of Tristate-Pin (Basis) to output
    43be:	9c 01       	movw	r18, r24
      R_PORT = HiPinRL | TriPinRH;	//R_H port of Tristate-Pin (Basis) to VCC
    43c0:	2d 8f       	std	Y+29, r18	; 0x1d
      adc.hp2 = W5msReadADC(HighPin);	//measure the voltage at the collector  
    43c2:	3e 8f       	std	Y+30, r19	; 0x1e
    43c4:	0e 94 37 0a 	call	0x146e	; 0x146e <vcc_diff>
    43c8:	9f 87       	std	Y+15, r25	; 0x0f
 #else
      R_PORT = HiPinRL | TriPinRH;	//R_H port of Tristate-Pin (Basis) to VCC
      adc.hp2 = W20msReadADC(HighPin);	//measure the voltage at the collector  
 #endif
      adc.rhp = vcc_diff(adc.hp2);	// voltage at the collector resistor
    43ca:	8e 87       	std	Y+14, r24	; 0x0e
    43cc:	82 2d       	mov	r24, r2
    43ce:	0e 94 d3 09 	call	0x13a6	; 0x13a6 <ReadADC>
    43d2:	9f 83       	std	Y+7, r25	; 0x07
    43d4:	8e 83       	std	Y+6, r24	; 0x06
      adc.tp2 = ReadADC(TristatePin);	//measure the voltage at the base 
    43d6:	0e 94 37 0a 	call	0x146e	; 0x146e <vcc_diff>
    43da:	8c 01       	movw	r16, r24
    43dc:	88 2d       	mov	r24, r8
    43de:	0e 94 d3 09 	call	0x13a6	; 0x13a6 <ReadADC>
      adc.rtp = vcc_diff(adc.tp2);	// voltage at the base resistor
    43e2:	7c 01       	movw	r14, r24
    43e4:	2d 8d       	ldd	r18, Y+29	; 0x1d
      adc.lp2 = ReadADC(LowPin);
    43e6:	3e 8d       	ldd	r19, Y+30	; 0x1e
    43e8:	0e 3f       	cpi	r16, 0xFE	; 254
    43ea:	49 e0       	ldi	r20, 0x09	; 9
    43ec:	14 07       	cpc	r17, r20
      lcd_data('p');
      lcd_space();
      mVOut(adc.rtp);
 #endif

      if(adc.rtp > 2557) {		// Basis-voltage R_H is low enough
    43ee:	08 f4       	brcc	.+2      	; 0x43f2 <CheckPins+0x9f4>
    43f0:	b2 c0       	rjmp	.+356    	; 0x4556 <CheckPins+0xb58>
    43f2:	84 e0       	ldi	r24, 0x04	; 4
    43f4:	80 93 13 01 	sts	0x0113, r24
    43f8:	8c e0       	ldi	r24, 0x0C	; 12
    43fa:	80 93 12 01 	sts	0x0112, r24
         PartFound = PART_TRANSISTOR;	//NPN-Transistor is found (Base is near GND)
    43fe:	b5 01       	movw	r22, r10
    4400:	8e 85       	ldd	r24, Y+14	; 0x0e
         PartMode = PART_MODE_NPN;
    4402:	9f 85       	ldd	r25, Y+15	; 0x0f
    4404:	0e 94 3c 0a 	call	0x1478	; 0x1478 <unsigned_diff>
         lcd_line4();
         lcd_data('N');
  #endif
         //compute current amplification factor for common Emitter
         //hFE = B = Collector current / Base current
         tmp16 = unsigned_diff(adc.rhp, adc.lp_otr);	// subtract residual current
    4408:	9a 83       	std	Y+2, r25	; 0x02
    440a:	89 83       	std	Y+1, r24	; 0x01
    440c:	20 91 14 01 	lds	r18, 0x0114
    4410:	30 91 15 01 	lds	r19, 0x0115
    4414:	40 e0       	ldi	r20, 0x00	; 0
         // e_hfe with 1% resolution for optocoupler
  #ifdef LONG_HFE
   #if DebugOut == 5
         lcd_data('H');		// NHce
   #endif
         e_hfe = ((unsigned int)tmp16 * (unsigned long)(((unsigned long)R_H_VAL * 10000) / 
    4416:	50 e0       	ldi	r21, 0x00	; 0
    4418:	60 e8       	ldi	r22, 0x80	; 128
    441a:	71 ea       	ldi	r23, 0xA1	; 161
    441c:	83 e0       	ldi	r24, 0x03	; 3
    441e:	9c e1       	ldi	r25, 0x1C	; 28
    4420:	0e 94 2f 3d 	call	0x7a5e	; 0x7a5e <__udivmodsi4>
    4424:	a9 81       	ldd	r26, Y+1	; 0x01
    4426:	ba 81       	ldd	r27, Y+2	; 0x02
    4428:	0e 94 88 3d 	call	0x7b10	; 0x7b10 <__muluhisi3>
    442c:	98 01       	movw	r18, r16
    442e:	40 e0       	ldi	r20, 0x00	; 0
    4430:	50 e0       	ldi	r21, 0x00	; 0
    4432:	0e 94 2f 3d 	call	0x7a5e	; 0x7a5e <__udivmodsi4>
              (unsigned int)RR680PL)) / (unsigned int)adc.rtp;	
    4436:	80 91 48 01 	lds	r24, 0x0148
    443a:	88 23       	and	r24, r24
         // e_hfe with 1% resolution for optocoupler
  #ifdef LONG_HFE
   #if DebugOut == 5
         lcd_data('H');		// NHce
   #endif
         e_hfe = ((unsigned int)tmp16 * (unsigned long)(((unsigned long)R_H_VAL * 10000) / 
    443c:	69 f0       	breq	.+26     	; 0x4458 <CheckPins+0xa5a>
    443e:	80 91 39 01 	lds	r24, 0x0139
         mVOut(adc.rtp);
         lcd_data('B');
         lcd_data('=');
         DisplayValue(e_hfe,-2,' ',3);
 #endif
         if ((ntrans.count == 0) || (e_hfe > ntrans.hfe)){
    4442:	90 91 3a 01 	lds	r25, 0x013A
    4446:	a0 91 3b 01 	lds	r26, 0x013B
    444a:	b0 91 3c 01 	lds	r27, 0x013C
    444e:	82 17       	cp	r24, r18
    4450:	93 07       	cpc	r25, r19
    4452:	a4 07       	cpc	r26, r20
    4454:	b5 07       	cpc	r27, r21
    4456:	28 f5       	brcc	.+74     	; 0x44a2 <CheckPins+0xaa4>
    4458:	20 93 39 01 	sts	0x0139, r18
    445c:	30 93 3a 01 	sts	0x013A, r19
    4460:	40 93 3b 01 	sts	0x013B, r20
            ntrans.hfe = e_hfe;
    4464:	50 93 3c 01 	sts	0x013C, r21
    4468:	b7 01       	movw	r22, r14
    446a:	8e 81       	ldd	r24, Y+6	; 0x06
    446c:	9f 81       	ldd	r25, Y+7	; 0x07
    446e:	0e 94 3c 0a 	call	0x1478	; 0x1478 <unsigned_diff>
            ntrans.uBE = unsigned_diff(adc.tp2, adc.lp2);
    4472:	90 93 3e 01 	sts	0x013E, r25
    4476:	80 93 3d 01 	sts	0x013D, r24
    447a:	2e 85       	ldd	r18, Y+14	; 0x0e
    447c:	3f 85       	ldd	r19, Y+15	; 0x0f
    447e:	a0 e1       	ldi	r26, 0x10	; 16
    4480:	b7 e2       	ldi	r27, 0x27	; 39
    4482:	0e 94 73 3d 	call	0x7ae6	; 0x7ae6 <__umulhisi3>
  #if FLASHEND > 0x1fff  /* at least ATmega16 */
            ntrans.current = (unsigned int)(((unsigned long)adc.rhp * 10000) / RR680PL); // Ic 1uA
    4486:	20 91 14 01 	lds	r18, 0x0114
    448a:	30 91 15 01 	lds	r19, 0x0115
    448e:	40 e0       	ldi	r20, 0x00	; 0
    4490:	50 e0       	ldi	r21, 0x00	; 0
    4492:	0e 94 2f 3d 	call	0x7a5e	; 0x7a5e <__udivmodsi4>
    4496:	30 93 40 01 	sts	0x0140, r19
    449a:	20 93 3f 01 	sts	0x013F, r18
    449e:	81 e0       	ldi	r24, 0x01	; 1
    44a0:	01 c0       	rjmp	.+2      	; 0x44a4 <CheckPins+0xaa6>
    44a2:	80 e0       	ldi	r24, 0x00	; 0
    44a4:	40 91 39 01 	lds	r20, 0x0139
  #endif
            update_pins = 1;
    44a8:	50 91 3a 01 	lds	r21, 0x013A
 #endif

      if(adc.rtp > 2557) {		// Basis-voltage R_H is low enough
         PartFound = PART_TRANSISTOR;	//NPN-Transistor is found (Base is near GND)
         PartMode = PART_MODE_NPN;
         update_pins = 0;		// only update pins, if better hFE
    44ac:	60 91 3b 01 	lds	r22, 0x013B
 #endif
#ifdef COMMON_COLLECTOR
          //compare current amplification factor for common Collector (Emitter follower)
          // hFE = (Emitterstrom - Basisstrom) / Basisstrom
 #ifdef COMMON_EMITTER
          if (c_hfe >  ntrans.hfe)
    44b0:	70 91 3c 01 	lds	r23, 0x013C
    44b4:	44 15       	cp	r20, r4
    44b6:	55 05       	cpc	r21, r5
    44b8:	66 05       	cpc	r22, r6
    44ba:	77 05       	cpc	r23, r7
    44bc:	28 f5       	brcc	.+74     	; 0x4508 <CheckPins+0xb0a>
    44be:	40 92 39 01 	sts	0x0139, r4
    44c2:	50 92 3a 01 	sts	0x013A, r5
    44c6:	60 92 3b 01 	sts	0x013B, r6
 #else
          if ((ntrans.count == 0) || (c_hfe >  ntrans.hfe))
 #endif
          {
            ntrans.hfe = c_hfe;
    44ca:	70 92 3c 01 	sts	0x013C, r7
    44ce:	b6 01       	movw	r22, r12
    44d0:	88 85       	ldd	r24, Y+8	; 0x08
    44d2:	99 85       	ldd	r25, Y+9	; 0x09
    44d4:	0e 94 3c 0a 	call	0x1478	; 0x1478 <unsigned_diff>
            ntrans.uBE = unsigned_diff(adc.tp1, adc.lp1);
    44d8:	90 93 3e 01 	sts	0x013E, r25
    44dc:	80 93 3d 01 	sts	0x013D, r24
    44e0:	96 01       	movw	r18, r12
    44e2:	a0 e1       	ldi	r26, 0x10	; 16
    44e4:	b7 e2       	ldi	r27, 0x27	; 39
    44e6:	0e 94 73 3d 	call	0x7ae6	; 0x7ae6 <__umulhisi3>
 #if FLASHEND > 0x1fff  /* at least ATmega16 */
            ntrans.current = (unsigned int)(((unsigned long)adc.lp1 * 10000) / RR680MI); // Ie 1uA
    44ea:	20 91 0d 01 	lds	r18, 0x010D
    44ee:	30 91 0e 01 	lds	r19, 0x010E
    44f2:	40 e0       	ldi	r20, 0x00	; 0
    44f4:	50 e0       	ldi	r21, 0x00	; 0
    44f6:	0e 94 2f 3d 	call	0x7a5e	; 0x7a5e <__udivmodsi4>
    44fa:	20 5f       	subi	r18, 0xF0	; 240
    44fc:	38 4d       	sbci	r19, 0xD8	; 216
    44fe:	30 93 40 01 	sts	0x0140, r19
    4502:	20 93 3f 01 	sts	0x013F, r18
            ntrans.current += 10000;	// mark current at emitter!
    4506:	03 c0       	rjmp	.+6      	; 0x450e <CheckPins+0xb10>
    4508:	88 23       	and	r24, r24
    450a:	09 f4       	brne	.+2      	; 0x450e <CheckPins+0xb10>
    450c:	7f c1       	rjmp	.+766    	; 0x480c <CheckPins+0xe0e>
    450e:	95 01       	movw	r18, r10
    4510:	a0 e1       	ldi	r26, 0x10	; 16
#endif
#if DebugOut == 5
         lcd_data('B');
#endif
#ifdef SHOW_ICE
         if (update_pins != 0) {
    4512:	b7 e2       	ldi	r27, 0x27	; 39
    4514:	0e 94 73 3d 	call	0x7ae6	; 0x7ae6 <__umulhisi3>
	    // update residual collector (emitter) current without base current
            ntrans.ice0 = (unsigned int)(((unsigned long)adc.lp_otr * 10000) / RR680MI); // ICE0 0.01mA
    4518:	20 91 0d 01 	lds	r18, 0x010D
    451c:	30 91 0e 01 	lds	r19, 0x010E
    4520:	40 e0       	ldi	r20, 0x00	; 0
    4522:	50 e0       	ldi	r21, 0x00	; 0
    4524:	0e 94 2f 3d 	call	0x7a5e	; 0x7a5e <__udivmodsi4>
    4528:	30 93 42 01 	sts	0x0142, r19
    452c:	20 93 41 01 	sts	0x0141, r18
    4530:	2c 85       	ldd	r18, Y+12	; 0x0c
    4532:	3d 85       	ldd	r19, Y+13	; 0x0d
    4534:	a0 e1       	ldi	r26, 0x10	; 16
    4536:	b7 e2       	ldi	r27, 0x27	; 39
    4538:	0e 94 73 3d 	call	0x7ae6	; 0x7ae6 <__umulhisi3>
            ntrans.ices = (unsigned int)(((unsigned long)adc.vCEs * 10000) / RR680PL); // ICEs 0.01mA
    453c:	20 91 14 01 	lds	r18, 0x0114
    4540:	30 91 15 01 	lds	r19, 0x0115
    4544:	40 e0       	ldi	r20, 0x00	; 0
    4546:	50 e0       	ldi	r21, 0x00	; 0
    4548:	0e 94 2f 3d 	call	0x7a5e	; 0x7a5e <__udivmodsi4>
    454c:	30 93 44 01 	sts	0x0144, r19
    4550:	20 93 43 01 	sts	0x0143, r18
    4554:	5a c1       	rjmp	.+692    	; 0x480a <CheckPins+0xe0c>
    4556:	51 e6       	ldi	r21, 0x61	; 97
    4558:	a5 16       	cp	r10, r21
    455a:	b1 04       	cpc	r11, r1
    455c:	08 f0       	brcs	.+2      	; 0x4560 <CheckPins+0xb62>
    455e:	66 c0       	rjmp	.+204    	; 0x462c <CheckPins+0xc2e>
         }
#endif
         goto saveNresult;		// count the found N-Type and exit
      } 
      // Base has low current
      if((adc.lp_otr < 97) && (adc.rhp > 3400)) {
    4560:	8e 85       	ldd	r24, Y+14	; 0x0e
    4562:	9f 85       	ldd	r25, Y+15	; 0x0f
    4564:	89 34       	cpi	r24, 0x49	; 73
    4566:	9d 40       	sbci	r25, 0x0D	; 13
    4568:	08 f4       	brcc	.+2      	; 0x456c <CheckPins+0xb6e>
    456a:	60 c0       	rjmp	.+192    	; 0x462c <CheckPins+0xc2e>
    456c:	85 e0       	ldi	r24, 0x05	; 5
    456e:	80 93 13 01 	sts	0x0113, r24
    4572:	82 e0       	ldi	r24, 0x02	; 2
    4574:	80 93 12 01 	sts	0x0112, r24
         //if flow voltage in switched off mode low enough?
         //(since D-Mode-FET will be detected in error as E-Mode )
         PartFound = PART_FET;	//N-Kanal-MOSFET is found (Basis/Gate will Not be pulled down)
    4578:	c7 01       	movw	r24, r14
    457a:	86 50       	subi	r24, 0x06	; 6
         PartMode = PART_MODE_MOS|N_CHANNEL|E_MODE;
    457c:	9f 4f       	sbci	r25, 0xFF	; 255
    457e:	82 17       	cp	r24, r18
    4580:	93 07       	cpc	r25, r19
         if (adc.hp2 > (250+adc.lp2)) {
    4582:	20 f4       	brcc	.+8      	; 0x458c <CheckPins+0xb8e>
    4584:	83 e0       	ldi	r24, 0x03	; 3
    4586:	80 93 12 01 	sts	0x0112, r24
    458a:	17 c0       	rjmp	.+46     	; 0x45ba <CheckPins+0xbbc>
    458c:	00 91 14 01 	lds	r16, 0x0114
            // Drain-Source Voltage is too high for N_E_MOS
            PartMode = PART_MODE_IGBT|N_CHANNEL|E_MODE;
    4590:	10 91 15 01 	lds	r17, 0x0115
    4594:	b7 01       	movw	r22, r14
#ifdef SHOW_R_DS
         } else {
            ntrans.uBE = RR680PL * (unsigned long)unsigned_diff(adc.hp2, adc.lp2) / adc.rhp; // DS resistance in 0.1 OHm
    4596:	c9 01       	movw	r24, r18
    4598:	0e 94 3c 0a 	call	0x1478	; 0x1478 <unsigned_diff>
    459c:	9c 01       	movw	r18, r24
    459e:	d8 01       	movw	r26, r16
    45a0:	0e 94 73 3d 	call	0x7ae6	; 0x7ae6 <__umulhisi3>
    45a4:	ee 85       	ldd	r30, Y+14	; 0x0e
    45a6:	ff 85       	ldd	r31, Y+15	; 0x0f
    45a8:	9f 01       	movw	r18, r30
    45aa:	40 e0       	ldi	r20, 0x00	; 0
    45ac:	50 e0       	ldi	r21, 0x00	; 0
    45ae:	0e 94 2f 3d 	call	0x7a5e	; 0x7a5e <__udivmodsi4>
    45b2:	30 93 3e 01 	sts	0x013E, r19
    45b6:	20 93 3d 01 	sts	0x013D, r18
    45ba:	0c 81       	ldd	r16, Y+4	; 0x04
    45bc:	07 70       	andi	r16, 0x07	; 7
    45be:	82 2d       	mov	r24, r2
    45c0:	80 64       	ori	r24, 0x40	; 64
    45c2:	80 93 7c 00 	sts	0x007C, r24
         lcd_data('F');
#endif
         //Switching of Drain is monitored with digital input
         // Low level is specified up to 0.3 * VCC
         // High level is specified above 0.6 * VCC
         PinMSK = HiADCm & 7;
    45c6:	1b e0       	ldi	r17, 0x0B	; 11
         // measure Threshold voltage of Gate
         ADMUX = TristatePin | (1<<REFS0);	// measure TristatePin, Ref. VCC
    45c8:	ee 24       	eor	r14, r14
    45ca:	e3 94       	inc	r14
    45cc:	f1 2c       	mov	r15, r1
    45ce:	a8 95       	wdr
    45d0:	60 e0       	ldi	r22, 0x00	; 0
         tmp16 = 1;			// round up ((1*4)/9)
    45d2:	89 81       	ldd	r24, Y+1	; 0x01
    45d4:	3f d3       	rcall	.+1662   	; 0x4c54 <ChargePin10ms>
    45d6:	fa 85       	ldd	r31, Y+10	; 0x0a
         for(ii=0;ii<11;ii++) {
            wdt_reset();
    45d8:	f4 b9       	out	0x04, r31	; 4
            ChargePin10ms(TriPinRL,0);	// discharge Gate 10ms with RL 
    45da:	f5 b9       	out	0x05, r31	; 5
    45dc:	86 b1       	in	r24, 0x06	; 6
    45de:	80 23       	and	r24, r16
    45e0:	e9 f7       	brne	.-6      	; 0x45dc <CheckPins+0xbde>
            R_DDR = HiPinRL | TriPinRH;	// slowly charge Gate 
    45e2:	34 b8       	out	0x04, r3	; 4
    45e4:	80 91 7a 00 	lds	r24, 0x007A
            R_PORT = HiPinRL | TriPinRH;
            while ((ADC_PIN&PinMSK));	// Wait, until the MOSFET switch and Drain moved to low 
    45e8:	80 64       	ori	r24, 0x40	; 64
    45ea:	80 93 7a 00 	sts	0x007A, r24
             		// 0 is detected with input voltage of 2.12V to 2.24V (tested with mega168 & mega328)
            R_DDR = HiPinRL;		// switch off current
    45ee:	80 91 7a 00 	lds	r24, 0x007A
            ADCSRA |= (1<<ADSC);		// start ADC conversion
    45f2:	86 fd       	sbrc	r24, 6
    45f4:	fc cf       	rjmp	.-8      	; 0x45ee <CheckPins+0xbf0>
    45f6:	80 91 78 00 	lds	r24, 0x0078
            while (ADCSRA&(1<<ADSC));	// wait until ADC finished
    45fa:	90 91 79 00 	lds	r25, 0x0079
    45fe:	e8 0e       	add	r14, r24
    4600:	f9 1e       	adc	r15, r25
            tmp16 += ADCW;		// add result of ADC
    4602:	11 50       	subi	r17, 0x01	; 1
    4604:	21 f7       	brne	.-56     	; 0x45ce <CheckPins+0xbd0>
    4606:	c7 01       	movw	r24, r14
    4608:	88 0f       	add	r24, r24
    460a:	99 1f       	adc	r25, r25
    460c:	88 0f       	add	r24, r24
    460e:	99 1f       	adc	r25, r25
         // High level is specified above 0.6 * VCC
         PinMSK = HiADCm & 7;
         // measure Threshold voltage of Gate
         ADMUX = TristatePin | (1<<REFS0);	// measure TristatePin, Ref. VCC
         tmp16 = 1;			// round up ((1*4)/9)
         for(ii=0;ii<11;ii++) {
    4610:	69 e0       	ldi	r22, 0x09	; 9
            R_DDR = HiPinRL;		// switch off current
            ADCSRA |= (1<<ADSC);		// start ADC conversion
            while (ADCSRA&(1<<ADSC));	// wait until ADC finished
            tmp16 += ADCW;		// add result of ADC
         }
         tmp16 *= 4;	//is equal to 44 * ADCW
    4612:	70 e0       	ldi	r23, 0x00	; 0
    4614:	0e 94 08 3d 	call	0x7a10	; 0x7a10 <__udivmodhi4>
    4618:	70 93 44 01 	sts	0x0144, r23
         ntrans.gthvoltage = tmp16/ 9;	//scale to mV
    461c:	60 93 43 01 	sts	0x0143, r22
    4620:	80 91 48 01 	lds	r24, 0x0148
    4624:	8f 5f       	subi	r24, 0xFF	; 255
    4626:	80 93 48 01 	sts	0x0148, r24
    462a:	ef c0       	rjmp	.+478    	; 0x480a <CheckPins+0xe0c>
         ntrans.count++;		// count FET as two to accelerate  searching
    462c:	88 e0       	ldi	r24, 0x08	; 8
    462e:	87 b9       	out	0x07, r24	; 7
    4630:	88 b9       	out	0x08, r24	; 8
    4632:	14 b8       	out	0x04, r1	; 4
    4634:	15 b8       	out	0x05, r1	; 5
    4636:	88 e0       	ldi	r24, 0x08	; 8
         goto saveNresult;
      }
   } // end component conduct => npn
   ADC_DDR = TXD_MSK;		// switch all ADC-Ports to input
    4638:	87 b9       	out	0x07, r24	; 7
    463a:	27 ec       	ldi	r18, 0xC7	; 199
   ADC_PORT = TXD_VAL;		// switch all ADC-Ports to 0 (no Pull up)
    463c:	a2 16       	cp	r10, r18

//##########################################################################################
// Search for diodes
//##########################################################################################
checkDiode:
  R_DDR = 0;			//switch off resistor current
    463e:	21 e0       	ldi	r18, 0x01	; 1
  R_PORT = 0;
    4640:	b2 06       	cpc	r11, r18
  ADC_DDR = TXD_MSK;		// switch ADC ports to input
    4642:	08 f4       	brcc	.+2      	; 0x4646 <CheckPins+0xc48>
    4644:	c5 c0       	rjmp	.+394    	; 0x47d0 <CheckPins+0xdd2>
//  if (adc.lp_otr < 977) 
  if (adc.lp_otr < 455) {
    4646:	88 b9       	out	0x08, r24	; 8
    4648:	38 89       	ldd	r19, Y+16	; 0x10
    464a:	34 b9       	out	0x04, r19	; 4
    464c:	18 ec       	ldi	r17, 0xC8	; 200
    464e:	0b 81       	ldd	r16, Y+3	; 0x03
    4650:	4d 81       	ldd	r20, Y+5	; 0x05
#endif
     goto widmes;
  }
  // component has current
  //Test if Diode
  ADC_PORT = TXD_VAL;
    4652:	04 2b       	or	r16, r20
  R_DDR = HiPinRH;              // enable resistor from HiPin to ground during the upcoming discharge, so if there's some leakage in the circuit (e.g., via protection diodes) this can't upset the discharge test
    4654:	07 b9       	out	0x07, r16	; 7
    4656:	81 e0       	ldi	r24, 0x01	; 1
    4658:	0e 94 9b 09 	call	0x1336	; 0x1336 <sleep_5ms>
  for (ii=0;ii<200;ii++) {
     ADC_DDR = LoADCm | HiADCm; // discharge by short of Low and High side
    465c:	5b 81       	ldd	r21, Y+3	; 0x03
    465e:	57 b9       	out	0x07, r21	; 7
    4660:	89 2d       	mov	r24, r9
     wait_about5ms();		// Low and Highpin to GND for discharge
    4662:	0e 94 d3 09 	call	0x13a6	; 0x13a6 <ReadADC>
    4666:	42 97       	sbiw	r24, 0x12	; 18
     ADC_DDR = LoADCm;		// switch only Low-Pin fix to GND
    4668:	10 f0       	brcs	.+4      	; 0x466e <CheckPins+0xc70>
    466a:	11 50       	subi	r17, 0x01	; 1
     adc.hp1 = ReadADC(HighPin); // read voltage at High-Pin
    466c:	99 f7       	brne	.-26     	; 0x4654 <CheckPins+0xc56>
    466e:	88 89       	ldd	r24, Y+16	; 0x10
    4670:	84 b9       	out	0x04, r24	; 4
     if (adc.hp1 < (150/8)) break;
    4672:	85 b9       	out	0x05, r24	; 5
    4674:	61 e0       	ldi	r22, 0x01	; 1
    4676:	89 81       	ldd	r24, Y+1	; 0x01
  }
  // component has current
  //Test if Diode
  ADC_PORT = TXD_VAL;
  R_DDR = HiPinRH;              // enable resistor from HiPin to ground during the upcoming discharge, so if there's some leakage in the circuit (e.g., via protection diodes) this can't upset the discharge test
  for (ii=0;ii<200;ii++) {
    4678:	ed d2       	rcall	.+1498   	; 0x4c54 <ChargePin10ms>
 #if FLASHEND > 0x1fff
  /* It is difficult to detect the protection diode of D-mode MOSFET . */
  /* We have to generate a negative gate voltage to isolate the diode. */
  /* For P-mode the resistors must reside on the VCC side. */
  /* For N-mode the resistors must be moved to the GND side. */
  R_DDR = HiPinRH;		//switch R_H port for High-Pin output (VCC)
    467a:	89 2d       	mov	r24, r9
    467c:	0e 94 cf 09 	call	0x139e	; 0x139e <W5msReadADC>
  R_PORT = HiPinRH;
  ChargePin10ms(TriPinRL,1);	//discharge of P-Kanal-MOSFET gate
    4680:	6c 01       	movw	r12, r24
    4682:	9c 89       	ldd	r25, Y+20	; 0x14
    4684:	94 b9       	out	0x04, r25	; 4
    4686:	15 b8       	out	0x05, r1	; 5
  adc.hp2 = W5msReadADC(HighPin); 		// GND--|<--HP--R_H--VCC
    4688:	ed 81       	ldd	r30, Y+5	; 0x05
    468a:	e7 b9       	out	0x07, r30	; 7
    468c:	fc 81       	ldd	r31, Y+4	; 0x04
    468e:	f8 b9       	out	0x08, r31	; 8
  // now the resistor is moved to the Low side
  R_DDR = LoPinRH;
    4690:	60 e0       	ldi	r22, 0x00	; 0
    4692:	89 81       	ldd	r24, Y+1	; 0x01
  R_PORT = 0;
    4694:	df d2       	rcall	.+1470   	; 0x4c54 <ChargePin10ms>
  ADC_DDR = HiADCm;		// switch High-Pin fix to VCC
    4696:	88 2d       	mov	r24, r8
    4698:	0e 94 cf 09 	call	0x139e	; 0x139e <W5msReadADC>
  ADC_PORT = HiADCp;
    469c:	0e 94 37 0a 	call	0x146e	; 0x146e <vcc_diff>
  ChargePin10ms(TriPinRL,0);	//discharge for N-Kanal-MOSFET gate
    46a0:	8c 01       	movw	r16, r24
    46a2:	2b 85       	ldd	r18, Y+11	; 0x0b
    46a4:	24 b9       	out	0x04, r18	; 4
  adc.hp3 = vcc_diff(W5msReadADC(LowPin)); // GND--R_H--LP--|<--VCC
    46a6:	88 2d       	mov	r24, r8
    46a8:	0e 94 d3 09 	call	0x13a6	; 0x13a6 <ReadADC>
    46ac:	7c 01       	movw	r14, r24
    46ae:	89 2d       	mov	r24, r9
    46b0:	0e 94 cf 09 	call	0x139e	; 0x139e <W5msReadADC>
  /* check with higher current (R_L=680) */
  R_DDR = LoPinRL;
    46b4:	b7 01       	movw	r22, r14
  adc.hp1 = unsigned_diff(W5msReadADC(HighPin), ReadADC(LowPin)); // GND--R_L--LP--|<--VCC
    46b6:	0e 94 3c 0a 	call	0x1478	; 0x1478 <unsigned_diff>
    46ba:	5c 01       	movw	r10, r24
    46bc:	88 2d       	mov	r24, r8
    46be:	0e 94 d3 09 	call	0x13a6	; 0x13a6 <ReadADC>
    46c2:	7c 01       	movw	r14, r24
    46c4:	89 2d       	mov	r24, r9
    46c6:	0e 94 cf 09 	call	0x139e	; 0x139e <W5msReadADC>
    46ca:	b7 01       	movw	r22, r14
  // test for capacitor behaviour
  adc.lp_otr = unsigned_diff(W5msReadADC(HighPin), ReadADC(LowPin)); // GND--R_L--LP--|<--VCC
    46cc:	0e 94 3c 0a 	call	0x1478	; 0x1478 <unsigned_diff>
    46d0:	95 01       	movw	r18, r10
    46d2:	2c 5e       	subi	r18, 0xEC	; 236
    46d4:	3f 4f       	sbci	r19, 0xFF	; 255
    46d6:	28 17       	cp	r18, r24
    46d8:	39 07       	cpc	r19, r25
    46da:	08 f4       	brcc	.+2      	; 0x46de <CheckPins+0xce0>
    46dc:	7c c0       	rjmp	.+248    	; 0x47d6 <CheckPins+0xdd8>
    46de:	88 e0       	ldi	r24, 0x08	; 8
     lcd_data('c');	// debug
     mVOut(adc.hp1);
     mVOut(adc.lp_otr);
#endif
 // if (adc.lp_otr > (adc.hp1+adc.hp1/8))
  if (adc.lp_otr > (adc.hp1+20))
    46e0:	88 b9       	out	0x08, r24	; 8
    46e2:	3b 81       	ldd	r19, Y+3	; 0x03
    46e4:	37 b9       	out	0x07, r19	; 7
    46e6:	34 b8       	out	0x04, r3	; 4
    46e8:	35 b8       	out	0x05, r3	; 5
    46ea:	61 e0       	ldi	r22, 0x01	; 1
    46ec:	89 81       	ldd	r24, Y+1	; 0x01
     lcd_data('D');	// debug
#endif
     goto clean_ports;
  }
  //  the resistor is moved back to the High side
  ADC_PORT = TXD_VAL;
    46ee:	b2 d2       	rcall	.+1380   	; 0x4c54 <ChargePin10ms>
    46f0:	88 2d       	mov	r24, r8
  ADC_DDR = LoADCm;		// switch only Low-Pin fix to GND
    46f2:	0e 94 d3 09 	call	0x13a6	; 0x13a6 <ReadADC>
  R_DDR = HiPinRL;		//switch R_L port for High-Pin output (VCC)
    46f6:	7c 01       	movw	r14, r24
  R_PORT = HiPinRL;
    46f8:	89 2d       	mov	r24, r9
  ChargePin10ms(TriPinRL,1);	//discharge for P-Kanal-MOSFET gate
    46fa:	0e 94 cf 09 	call	0x139e	; 0x139e <W5msReadADC>
    46fe:	b7 01       	movw	r22, r14
    4700:	0e 94 3c 0a 	call	0x1478	; 0x1478 <unsigned_diff>
  adc.lp_otr = unsigned_diff(W5msReadADC(HighPin), ReadADC(LowPin)); // GND--|<--HP--R_L--VCC
    4704:	7c 01       	movw	r14, r24
    4706:	a8 16       	cp	r10, r24
    4708:	b9 06       	cpc	r11, r25
    470a:	50 f4       	brcc	.+20     	; 0x4720 <CheckPins+0xd22>
    470c:	48 89       	ldd	r20, Y+16	; 0x10
    470e:	44 b9       	out	0x04, r20	; 4
    4710:	45 b9       	out	0x05, r20	; 5
    4712:	89 2d       	mov	r24, r9
    4714:	0e 94 cf 09 	call	0x139e	; 0x139e <W5msReadADC>
  if(adc.lp_otr > adc.hp1) {
    4718:	9c 01       	movw	r18, r24
    471a:	86 01       	movw	r16, r12
    471c:	57 01       	movw	r10, r14
      adc.hp1 = adc.lp_otr;	//the higher value wins
      adc.hp3 = adc.hp2;
      R_DDR = HiPinRH;		//switch R_H port for High-Pin output (VCC)
    471e:	10 c0       	rjmp	.+32     	; 0x4740 <CheckPins+0xd42>
    4720:	5c 89       	ldd	r21, Y+20	; 0x14
      R_PORT = HiPinRH;
    4722:	54 b9       	out	0x04, r21	; 4
      adc.hp2 = W5msReadADC(HighPin); 		// GND--|<--HP--R_H--VCC
    4724:	15 b8       	out	0x05, r1	; 5
    4726:	8d 81       	ldd	r24, Y+5	; 0x05
    4728:	87 b9       	out	0x07, r24	; 7
    472a:	9c 81       	ldd	r25, Y+4	; 0x04
  R_PORT = HiPinRL;
  ChargePin10ms(TriPinRL,1);	//discharge for P-Kanal-MOSFET gate
  adc.lp_otr = unsigned_diff(W5msReadADC(HighPin), ReadADC(LowPin)); // GND--|<--HP--R_L--VCC
  if(adc.lp_otr > adc.hp1) {
      adc.hp1 = adc.lp_otr;	//the higher value wins
      adc.hp3 = adc.hp2;
    472c:	98 b9       	out	0x08, r25	; 8
    472e:	60 e0       	ldi	r22, 0x00	; 0
    4730:	89 81       	ldd	r24, Y+1	; 0x01
      R_DDR = HiPinRH;		//switch R_H port for High-Pin output (VCC)
      R_PORT = HiPinRH;
      adc.hp2 = W5msReadADC(HighPin); 		// GND--|<--HP--R_H--VCC
  } else {
      R_DDR = LoPinRH;
    4732:	90 d2       	rcall	.+1312   	; 0x4c54 <ChargePin10ms>
    4734:	88 2d       	mov	r24, r8
      R_PORT = 0;
    4736:	0e 94 cf 09 	call	0x139e	; 0x139e <W5msReadADC>
      ADC_DDR = HiADCm;		// switch High-Pin fix to VCC
    473a:	0e 94 37 0a 	call	0x146e	; 0x146e <vcc_diff>
      ADC_PORT = HiADCp;
    473e:	9c 01       	movw	r18, r24
      ChargePin10ms(TriPinRL,0);	//discharge for N-Kanal-MOSFET gate
    4740:	e8 ee       	ldi	r30, 0xE8	; 232
    4742:	ae 16       	cp	r10, r30
    4744:	e3 e0       	ldi	r30, 0x03	; 3
    4746:	be 06       	cpc	r11, r30
      adc.hp2 = vcc_diff(W5msReadADC(LowPin)); // GND--R_H--LP--|<--VCC
    4748:	30 f4       	brcc	.+12     	; 0x4756 <CheckPins+0xd58>
    474a:	c5 01       	movw	r24, r10
    474c:	64 e6       	ldi	r22, 0x64	; 100
    474e:	70 e0       	ldi	r23, 0x00	; 0
    4750:	0e 94 08 3d 	call	0x7a10	; 0x7a10 <__udivmodhi4>
  lcd_data('H');	// debug
  mVOut(adc.hp2);
#endif
  volt_dif = adc.hp3/8;
  if (volt_dif > 200) volt_dif = 200;
  if (adc.hp1 < 1000) tmp16 = adc.hp1/100;
    4754:	06 c0       	rjmp	.+12     	; 0x4762 <CheckPins+0xd64>
    4756:	b5 01       	movw	r22, r10
    4758:	54 e0       	ldi	r21, 0x04	; 4
    475a:	76 95       	lsr	r23
    475c:	67 95       	ror	r22
    475e:	5a 95       	dec	r21
    4760:	e1 f7       	brne	.-8      	; 0x475a <CheckPins+0xd5c>
    4762:	c5 01       	movw	r24, r10
    4764:	87 59       	subi	r24, 0x97	; 151
    4766:	91 09       	sbc	r25, r1
    4768:	89 38       	cpi	r24, 0x89	; 137
  else                tmp16 = adc.hp1/16;
    476a:	91 41       	sbci	r25, 0x11	; 17
    476c:	88 f5       	brcc	.+98     	; 0x47d0 <CheckPins+0xdd2>
    476e:	2a 15       	cp	r18, r10
    4770:	3b 05       	cpc	r19, r11
    4772:	70 f5       	brcc	.+92     	; 0x47d0 <CheckPins+0xdd2>
    4774:	c8 01       	movw	r24, r16

  if((adc.hp1 > 150) && (adc.hp1 < 4640) && (adc.hp2 < adc.hp1) && (adc.hp1 > (adc.hp3+volt_dif)) && (adc.hp3 > tmp16))
    4776:	43 e0       	ldi	r20, 0x03	; 3
    4778:	96 95       	lsr	r25
    477a:	87 95       	ror	r24
    477c:	4a 95       	dec	r20
    477e:	e1 f7       	brne	.-8      	; 0x4778 <CheckPins+0xd7a>
    4780:	89 3c       	cpi	r24, 0xC9	; 201
    4782:	91 05       	cpc	r25, r1
    4784:	10 f0       	brcs	.+4      	; 0x478a <CheckPins+0xd8c>
    4786:	88 ec       	ldi	r24, 0xC8	; 200
  lcd_data('L');	// debug
  mVOut(adc.hp1);
  lcd_data('H');	// debug
  mVOut(adc.hp2);
#endif
  volt_dif = adc.hp3/8;
    4788:	90 e0       	ldi	r25, 0x00	; 0
    478a:	80 0f       	add	r24, r16
    478c:	91 1f       	adc	r25, r17
    478e:	8a 15       	cp	r24, r10
    4790:	9b 05       	cpc	r25, r11
    4792:	f0 f4       	brcc	.+60     	; 0x47d0 <CheckPins+0xdd2>
    4794:	60 17       	cp	r22, r16
    4796:	71 07       	cpc	r23, r17
    4798:	d8 f4       	brcc	.+54     	; 0x47d0 <CheckPins+0xdd2>
    479a:	80 91 13 01 	lds	r24, 0x0113
  if (volt_dif > 200) volt_dif = 200;
  if (adc.hp1 < 1000) tmp16 = adc.hp1/100;
  else                tmp16 = adc.hp1/16;

  if((adc.hp1 > 150) && (adc.hp1 < 4640) && (adc.hp2 < adc.hp1) && (adc.hp1 > (adc.hp3+volt_dif)) && (adc.hp3 > tmp16))
    479e:	83 30       	cpi	r24, 0x03	; 3
    47a0:	18 f4       	brcc	.+6      	; 0x47a8 <CheckPins+0xdaa>
    47a2:	83 e0       	ldi	r24, 0x03	; 3
    47a4:	80 93 13 01 	sts	0x0113, r24
    47a8:	20 91 11 01 	lds	r18, 0x0111
    47ac:	82 2f       	mov	r24, r18
     {
     //voltage is above 0,15V and below 4,64V => Ok
     // hp2 >= hp1 is only possible with capacitor, not with a diode, hp2 is measured with 470k
     // (adc.hp3 > adc.hp1/16) was OK for most cases, but not for gate of a TRIAC (where adc.hp1/100 detect the diode)
     // for resistors the expected value is about adc.hp1/670, so adc.hp1/100 should also be OK to differ with resistor
     if(PartFound < PART_DIODE) {
    47ae:	90 e0       	ldi	r25, 0x00	; 0
    47b0:	fc 01       	movw	r30, r24
    47b2:	e7 57       	subi	r30, 0x77	; 119
    47b4:	fe 4f       	sbci	r31, 0xFE	; 254
        PartFound = PART_DIODE;	//mark for diode only, if no other component is found
    47b6:	90 82       	st	Z, r9
    47b8:	86 82       	std	Z+6, r8	; 0x06
    47ba:	88 0f       	add	r24, r24
        lcd_data('D');	// debug  for Diode found
     } else {
        lcd_data('d');  // debug  for Diode, but other part
#endif
     }
     diodes.Anode[NumOfDiodes] = HighPin;
    47bc:	99 1f       	adc	r25, r25
    47be:	fc 01       	movw	r30, r24
    47c0:	eb 56       	subi	r30, 0x6B	; 107
    47c2:	fe 4f       	sbci	r31, 0xFE	; 254
    47c4:	b1 82       	std	Z+1, r11	; 0x01
    47c6:	a0 82       	st	Z, r10
    47c8:	2f 5f       	subi	r18, 0xFF	; 255
    47ca:	20 93 11 01 	sts	0x0111, r18
     diodes.Cathode[NumOfDiodes] = LowPin;
     diodes.Voltage[NumOfDiodes] = adc.hp1;	// voltage in Millivolt 
    47ce:	03 c0       	rjmp	.+6      	; 0x47d6 <CheckPins+0xdd8>
    47d0:	68 2d       	mov	r22, r8
    47d2:	89 2d       	mov	r24, r9
    47d4:	29 d0       	rcall	.+82     	; 0x4828 <GetResistance>
    47d6:	88 e0       	ldi	r24, 0x08	; 8
    47d8:	87 b9       	out	0x07, r24	; 7
    47da:	88 b9       	out	0x08, r24	; 8
     NumOfDiodes++;
    47dc:	14 b8       	out	0x04, r1	; 4
    47de:	15 b8       	out	0x05, r1	; 5
    47e0:	8e e2       	ldi	r24, 0x2E	; 46
#if DebugOut == 5
     lcd_data(NumOfDiodes+'0');	// debug number of Diodes found
#endif
     goto clean_ports;
    47e2:	0e 94 0c 0e 	call	0x1c18	; 0x1c18 <lcd_data>

//##########################################################################################
// Search for resistors
//##########################################################################################
widmes:
  GetResistance(HighPin, LowPin);
    47e6:	6e 96       	adiw	r28, 0x1e	; 30
    47e8:	e2 e1       	ldi	r30, 0x12	; 18
    47ea:	0c 94 39 3e 	jmp	0x7c72	; 0x7c72 <__epilogue_restores__>
#ifdef DebugOut
 #if DebugOut < 10
//  wait_for_key_5s_line2();
 #endif
#endif
  ADC_DDR = TXD_MSK;		// all ADC-Pins Input
    47ee:	90 91 68 01 	lds	r25, 0x0168
  ADC_PORT = TXD_VAL;		// all ADC outputs to Ground, keine Pull up
  R_DDR = 0;			// all resistor-outputs to Input
    47f2:	9f 5f       	subi	r25, 0xFF	; 255
  R_PORT = 0;			// all resistor-outputs to Ground, no Pull up
    47f4:	90 93 68 01 	sts	0x0168, r25
  lcd_data('.');		// report advance (suggested by Pieter-Tjerk)
    47f8:	88 23       	and	r24, r24
    47fa:	69 f3       	breq	.-38     	; 0x47d6 <CheckPins+0xdd8>
    ntrans.c = HighPin;
    ntrans.e = LowPin;
 }
 goto clean_ports;

} // end CheckPins()
    47fc:	20 92 65 01 	sts	0x0165, r2
    4800:	80 92 66 01 	sts	0x0166, r8
//---------------------------------------------------------------------------
savePresult:
#if DebugOut == 5
 lcd_data('P');
#endif
 ptrans.count++;
    4804:	90 92 67 01 	sts	0x0167, r9
    4808:	e6 cf       	rjmp	.-52     	; 0x47d6 <CheckPins+0xdd8>
    480a:	81 e0       	ldi	r24, 0x01	; 1
    480c:	90 91 48 01 	lds	r25, 0x0148
 if (update_pins != 0) {
    4810:	9f 5f       	subi	r25, 0xFF	; 255
    ptrans.b = TristatePin;	// save Pin-constellation
    4812:	90 93 48 01 	sts	0x0148, r25
    ptrans.c = LowPin;
    4816:	88 23       	and	r24, r24
    4818:	f1 f2       	breq	.-68     	; 0x47d6 <CheckPins+0xdd8>
    ptrans.e = HighPin;
    481a:	20 92 45 01 	sts	0x0145, r2
    481e:	90 92 46 01 	sts	0x0146, r9
//---------------------------------------------------------------------------
saveNresult:
#if DebugOut == 5
 lcd_data('N');
#endif
 ntrans.count++;
    4822:	80 92 47 01 	sts	0x0147, r8
    4826:	d7 cf       	rjmp	.-82     	; 0x47d6 <CheckPins+0xdd8>

00004828 <GetResistance>:
#include <stdlib.h>
#include "Transistortester.h"

//******************************************************************
void GetResistance(uint8_t HighPin, uint8_t LowPin)
  {
    4828:	a0 e0       	ldi	r26, 0x00	; 0
    482a:	b0 e0       	ldi	r27, 0x00	; 0
    482c:	ea e1       	ldi	r30, 0x1A	; 26
    482e:	f4 e2       	ldi	r31, 0x24	; 36
    4830:	0c 94 1d 3e 	jmp	0x7c3a	; 0x7c3a <__prologue_saves__>
  /*
    switch HighPin directls to VCC 
    switch R_L port for LowPin to GND 
    TristatePin remains switched to input , no action required 
  */
  wdt_reset();
    4834:	a8 95       	wdr
  addr = &PinRLRHADCtab[LowPin-TP_MIN];		// address of the combined RL / RH / ADC pin table
    4836:	06 2f       	mov	r16, r22
    4838:	10 e0       	ldi	r17, 0x00	; 0
    483a:	f8 01       	movw	r30, r16
    483c:	eb 5a       	subi	r30, 0xAB	; 171
    483e:	fd 4f       	sbci	r31, 0xFD	; 253
  LoPinRL = pgm_read_byte(addr);		// instruction for LowPin R_L
    4840:	b4 90       	lpm	r11, Z
  addr += 3;			// address of PinRHtab[LowPin]
  LoPinRH = pgm_read_byte(addr);		// instruction for LowPin R_H
#else
  LoPinRH = (LoPinRL + LoPinRL);
#endif
  addr += 3;			// address of PinADCtab[LowPin]
    4842:	33 96       	adiw	r30, 0x03	; 3
  LoADCp = pgm_read_byte(addr);		// instruction for ADC Low-Pin, including | TXD_VAL
    4844:	94 91       	lpm	r25, Z

  addr = &PinRLRHADCtab[HighPin-TP_MIN];
    4846:	48 2f       	mov	r20, r24
    4848:	50 e0       	ldi	r21, 0x00	; 0
    484a:	fa 01       	movw	r30, r20
    484c:	eb 5a       	subi	r30, 0xAB	; 171
    484e:	fd 4f       	sbci	r31, 0xFD	; 253
  HiPinRL = pgm_read_byte(addr);		// instruction for HighPin R_L
    4850:	d4 91       	lpm	r29, Z
  addr += 3;			// address of PinRLtab[HighPin]
  HiPinRH = pgm_read_byte(addr);		// instruction for HighPin R_H
#else
  HiPinRH = (HiPinRL + HiPinRL);
#endif
  addr += 3;			// address of PinADCtab[HighPin]
    4852:	33 96       	adiw	r30, 0x03	; 3
  HiADCp = pgm_read_byte(addr);		// instruction for ADC High-Pin, including | TXD_VAL
    4854:	c4 91       	lpm	r28, Z

//##########################################################################################
// Search for resistors
//##########################################################################################
  if ((ptrans.count  + ntrans.count) > 0) {
    4856:	70 91 68 01 	lds	r23, 0x0168
    485a:	20 91 48 01 	lds	r18, 0x0148
    485e:	30 e0       	ldi	r19, 0x00	; 0
    4860:	27 0f       	add	r18, r23
    4862:	31 1d       	adc	r19, r1
    4864:	23 2b       	or	r18, r19
    4866:	09 f0       	breq	.+2      	; 0x486a <GetResistance+0x42>
    4868:	f0 c1       	rjmp	.+992    	; 0x4c4a <GetResistance+0x422>
     return;	// no resistors are searched, if transistors are detected
  }
  resnum = (LowPin - TP_MIN + HighPin - TP_MIN - 1);	// resistor-Number 0:1 = 0, 0:2 = 1, 1:2 = 2
  // resistor measurement
  wdt_reset();
    486a:	a8 95       	wdr
// U_SCALE can be set to 4 for better resolution of ReadADC result
#if U_SCALE != 1
  ADCconfig.U_AVCC = (adc_vcc_reference * U_SCALE);	// scale to higher resolution, mV scale is not required
    486c:	20 91 17 01 	lds	r18, 0x0117
    4870:	30 91 18 01 	lds	r19, 0x0118
    4874:	22 0f       	add	r18, r18
    4876:	33 1f       	adc	r19, r19
    4878:	22 0f       	add	r18, r18
    487a:	33 1f       	adc	r19, r19
    487c:	30 93 2a 01 	sts	0x012A, r19
    4880:	20 93 29 01 	sts	0x0129, r18
  ADCconfig.U_Bandgap = (adc_internal_reference * U_SCALE);
    4884:	20 91 6d 01 	lds	r18, 0x016D
    4888:	30 91 6e 01 	lds	r19, 0x016E
    488c:	22 0f       	add	r18, r18
    488e:	33 1f       	adc	r19, r19
    4890:	22 0f       	add	r18, r18
    4892:	33 1f       	adc	r19, r19
    4894:	30 93 28 01 	sts	0x0128, r19
    4898:	20 93 27 01 	sts	0x0127, r18
#endif
#if R_ANZ_MESS != ANZ_MESS
  ADCconfig.Samples = R_ANZ_MESS;	// switch to special number of repetitions
    489c:	2e eb       	ldi	r18, 0xBE	; 190
    489e:	20 93 25 01 	sts	0x0125, r18
#endif
  #define MAX_REPEAT (700 / (5 + R_ANZ_MESS/8))
#if FLASHEND > 0x1fff
  for (ii=0; ii<NumOfDiodes; ii++) {
    48a2:	70 91 11 01 	lds	r23, 0x0111
    48a6:	f9 e8       	ldi	r31, 0x89	; 137
    48a8:	ef 2e       	mov	r14, r31
    48aa:	f1 e0       	ldi	r31, 0x01	; 1
    48ac:	ff 2e       	mov	r15, r31
    48ae:	af e8       	ldi	r26, 0x8F	; 143
    48b0:	b1 e0       	ldi	r27, 0x01	; 1
    48b2:	f7 01       	movw	r30, r14
     // never search a resistor at the same place, where a diode is detected
     if ((diodes.Anode[ii] + diodes.Cathode[ii]) ==  (HighPin + LowPin)) goto testend;
    48b4:	40 0f       	add	r20, r16
    48b6:	51 1f       	adc	r21, r17
    48b8:	2e 2f       	mov	r18, r30
    48ba:	2e 19       	sub	r18, r14
#if R_ANZ_MESS != ANZ_MESS
  ADCconfig.Samples = R_ANZ_MESS;	// switch to special number of repetitions
#endif
  #define MAX_REPEAT (700 / (5 + R_ANZ_MESS/8))
#if FLASHEND > 0x1fff
  for (ii=0; ii<NumOfDiodes; ii++) {
    48bc:	27 17       	cp	r18, r23
    48be:	48 f4       	brcc	.+18     	; 0x48d2 <GetResistance+0xaa>
     // never search a resistor at the same place, where a diode is detected
     if ((diodes.Anode[ii] + diodes.Cathode[ii]) ==  (HighPin + LowPin)) goto testend;
    48c0:	11 91       	ld	r17, Z+
    48c2:	2d 91       	ld	r18, X+
    48c4:	30 e0       	ldi	r19, 0x00	; 0
    48c6:	21 0f       	add	r18, r17
    48c8:	31 1d       	adc	r19, r1
    48ca:	24 17       	cp	r18, r20
    48cc:	35 07       	cpc	r19, r21
    48ce:	a1 f7       	brne	.-24     	; 0x48b8 <GetResistance+0x90>
    48d0:	52 c0       	rjmp	.+164    	; 0x4976 <GetResistance+0x14e>
    48d2:	66 2e       	mov	r6, r22
    48d4:	78 2e       	mov	r7, r24
  }
#endif
  ADC_PORT = TXD_VAL;
    48d6:	88 e0       	ldi	r24, 0x08	; 8
    48d8:	88 b9       	out	0x08, r24	; 8
  ADC_DDR = LoADCp | TXD_MSK;		//switch Low-Pin to output (GND)
    48da:	98 60       	ori	r25, 0x08	; 8
    48dc:	97 b9       	out	0x07, r25	; 7
  R_DDR = HiPinRL;		//switch R_L port for High-Pin to output (VCC)
    48de:	d4 b9       	out	0x04, r29	; 4
  R_PORT = HiPinRL;	
    48e0:	d5 b9       	out	0x05, r29	; 5
    48e2:	b8 e1       	ldi	r27, 0x18	; 24
    48e4:	fb 2e       	mov	r15, r27
#if FLASHEND > 0x1fff
  adc.hp2 = 0;
    48e6:	c1 2c       	mov	r12, r1
    48e8:	d1 2c       	mov	r13, r1
  for (ii=1;ii<MAX_REPEAT;ii++) {
     // wait until voltage is stable
     adc.tp1 = W5msReadADC(LowPin);	// low-voltage at Rx with load
    48ea:	86 2d       	mov	r24, r6
    48ec:	0e 94 cf 09 	call	0x139e	; 0x139e <W5msReadADC>
    48f0:	98 2e       	mov	r9, r24
    48f2:	89 2e       	mov	r8, r25
     adc.hp1 = ReadADC(HighPin);		// voltage at resistor Rx with R_L
    48f4:	87 2d       	mov	r24, r7
    48f6:	0e 94 d3 09 	call	0x13a6	; 0x13a6 <ReadADC>
    48fa:	8c 01       	movw	r16, r24
    48fc:	8c 19       	sub	r24, r12
    48fe:	9d 09       	sbc	r25, r13
    4900:	97 ff       	sbrs	r25, 7
    4902:	03 c0       	rjmp	.+6      	; 0x490a <GetResistance+0xe2>
    4904:	91 95       	neg	r25
    4906:	81 95       	neg	r24
    4908:	91 09       	sbc	r25, r1
     udiff = adc.hp1 - adc.hp2;
     if (udiff < 0) udiff = -udiff;
     if (udiff < 3) break;
    490a:	03 97       	sbiw	r24, 0x03	; 3
    490c:	34 f0       	brlt	.+12     	; 0x491a <GetResistance+0xf2>
     adc.hp2 = adc.hp1;
     wdt_reset();
    490e:	a8 95       	wdr
    4910:	fa 94       	dec	r15
#if FLASHEND > 0x1fff
  adc.hp2 = 0;
  for (ii=1;ii<MAX_REPEAT;ii++) {
     // wait until voltage is stable
     adc.tp1 = W5msReadADC(LowPin);	// low-voltage at Rx with load
     adc.hp1 = ReadADC(HighPin);		// voltage at resistor Rx with R_L
    4912:	68 01       	movw	r12, r16
  ADC_DDR = LoADCp | TXD_MSK;		//switch Low-Pin to output (GND)
  R_DDR = HiPinRL;		//switch R_L port for High-Pin to output (VCC)
  R_PORT = HiPinRL;	
#if FLASHEND > 0x1fff
  adc.hp2 = 0;
  for (ii=1;ii<MAX_REPEAT;ii++) {
    4914:	f1 10       	cpse	r15, r1
    4916:	e9 cf       	rjmp	.-46     	; 0x48ea <GetResistance+0xc2>
    4918:	2e c0       	rjmp	.+92     	; 0x4976 <GetResistance+0x14e>
  HiPinRL = pgm_read_byte(addr);		// instruction for HighPin R_L
#if (((PIN_RL1 + 1) != PIN_RH1) || ((PIN_RL2 + 1) != PIN_RH2) || ((PIN_RL3 + 1) != PIN_RH3))
  addr += 3;			// address of PinRLtab[HighPin]
  HiPinRH = pgm_read_byte(addr);		// instruction for HighPin R_H
#else
  HiPinRH = (HiPinRL + HiPinRL);
    491a:	dd 0f       	add	r29, r29
  adc.hp1 = ReadADC(HighPin);		// voltage at resistor Rx with R_L
#endif
  if (adc.tp1 > adc.hp1) {
     adc.tp1 = adc.hp1;
  }
  R_PORT = 0;
    491c:	15 b8       	out	0x05, r1	; 5
  R_DDR = HiPinRH;		//switch R_H port for High-Pin to output (GND)
    491e:	d4 b9       	out	0x04, r29	; 4
  adc.hp2 = W5msReadADC(HighPin);	// read voltage, should be down
    4920:	87 2d       	mov	r24, r7
    4922:	0e 94 cf 09 	call	0x139e	; 0x139e <W5msReadADC>
  if (adc.hp2 > (20*U_SCALE)) {
    4926:	81 35       	cpi	r24, 0x51	; 81
    4928:	91 05       	cpc	r25, r1
    492a:	28 f5       	brcc	.+74     	; 0x4976 <GetResistance+0x14e>
 #if (DEBUG_OUT == 1)
     lcd_data('b');
 #endif
     goto testend;
  }
  R_PORT = HiPinRH;		//switch R_H for High-Pin to VCC
    492c:	d5 b9       	out	0x05, r29	; 5
  adc.hp2 = W5msReadADC(HighPin);	// voltage at resistor Rx with R_H
    492e:	87 2d       	mov	r24, r7
    4930:	0e 94 cf 09 	call	0x139e	; 0x139e <W5msReadADC>
    4934:	6c 01       	movw	r12, r24

  ADC_DDR = HiADCp | TXD_MSK;		//switch High-Pin to output
    4936:	8c 2f       	mov	r24, r28
    4938:	88 60       	ori	r24, 0x08	; 8
    493a:	87 b9       	out	0x07, r24	; 7
  ADC_PORT = HiADCp;		//switch High-Pin to VCC
    493c:	c8 b9       	out	0x08, r28	; 8
  R_PORT = 0;
    493e:	15 b8       	out	0x05, r1	; 5
  R_DDR = LoPinRL;			//switch R_L for Low-Pin to GND
    4940:	b4 b8       	out	0x04, r11	; 4
    4942:	a8 e1       	ldi	r26, 0x18	; 24
    4944:	aa 2e       	mov	r10, r26
#if FLASHEND > 0x1fff
  adc.lp2 = 0;
    4946:	41 2c       	mov	r4, r1
    4948:	51 2c       	mov	r5, r1
  for (ii=1;ii<MAX_REPEAT;ii++) {
     // wait until voltage is stable
					// L--RL--RyyX--H
     adc.tp2 = W5msReadADC(HighPin);	//high voltage with load
    494a:	87 2d       	mov	r24, r7
    494c:	0e 94 cf 09 	call	0x139e	; 0x139e <W5msReadADC>
    4950:	7c 01       	movw	r14, r24
     adc.lp1 = ReadADC(LowPin);		//voltage at the other end of Rx
    4952:	86 2d       	mov	r24, r6
    4954:	0e 94 d3 09 	call	0x13a6	; 0x13a6 <ReadADC>
    4958:	ec 01       	movw	r28, r24
    495a:	84 19       	sub	r24, r4
    495c:	95 09       	sbc	r25, r5
    495e:	97 ff       	sbrs	r25, 7
    4960:	03 c0       	rjmp	.+6      	; 0x4968 <GetResistance+0x140>
    4962:	91 95       	neg	r25
    4964:	81 95       	neg	r24
    4966:	91 09       	sbc	r25, r1
     udiff = adc.lp1 - adc.lp2;
     if (udiff < 0) udiff = -udiff;
     if (udiff < 3) break;
    4968:	03 97       	sbiw	r24, 0x03	; 3
    496a:	cc f0       	brlt	.+50     	; 0x499e <GetResistance+0x176>
     adc.lp2 = adc.lp1;
     wdt_reset();
    496c:	a8 95       	wdr
    496e:	aa 94       	dec	r10
  adc.lp2 = 0;
  for (ii=1;ii<MAX_REPEAT;ii++) {
     // wait until voltage is stable
					// L--RL--RyyX--H
     adc.tp2 = W5msReadADC(HighPin);	//high voltage with load
     adc.lp1 = ReadADC(LowPin);		//voltage at the other end of Rx
    4970:	2e 01       	movw	r4, r28
  ADC_PORT = HiADCp;		//switch High-Pin to VCC
  R_PORT = 0;
  R_DDR = LoPinRL;			//switch R_L for Low-Pin to GND
#if FLASHEND > 0x1fff
  adc.lp2 = 0;
  for (ii=1;ii<MAX_REPEAT;ii++) {
    4972:	a1 10       	cpse	r10, r1
    4974:	ea cf       	rjmp	.-44     	; 0x494a <GetResistance+0x122>
        } // end  ResistorChecked[] != 0
     }	/* end if (PartFound < PART_TRANSISTOR) */
  }
  testend:			// end of resistor measurement
#if U_SCALE != 1
  ADCconfig.U_AVCC = adc_vcc_reference;	// scale to higher resolution, mV scale is not required
    4976:	80 91 17 01 	lds	r24, 0x0117
    497a:	90 91 18 01 	lds	r25, 0x0118
    497e:	90 93 2a 01 	sts	0x012A, r25
    4982:	80 93 29 01 	sts	0x0129, r24
  ADCconfig.U_Bandgap = adc_internal_reference;	// set back to normal resolution
    4986:	80 91 6d 01 	lds	r24, 0x016D
    498a:	90 91 6e 01 	lds	r25, 0x016E
    498e:	90 93 28 01 	sts	0x0128, r25
    4992:	80 93 27 01 	sts	0x0127, r24
#endif
#if R_ANZ_MESS != ANZ_MESS
  ADCconfig.Samples = ANZ_MESS;		// switch back to standard number of repetition
    4996:	89 e1       	ldi	r24, 0x19	; 25
    4998:	80 93 25 01 	sts	0x0125, r24
#endif

  return;
    499c:	56 c1       	rjmp	.+684    	; 0x4c4a <GetResistance+0x422>
  LoPinRL = pgm_read_byte(addr);		// instruction for LowPin R_L
#if (((PIN_RL1 + 1) != PIN_RH1) || ((PIN_RL2 + 1) != PIN_RH2) || ((PIN_RL3 + 1) != PIN_RH3))
  addr += 3;			// address of PinRHtab[LowPin]
  LoPinRH = pgm_read_byte(addr);		// instruction for LowPin R_H
#else
  LoPinRH = (LoPinRL + LoPinRL);
    499e:	bb 0c       	add	r11, r11
#endif
  if (adc.tp2 < adc.lp1) {
     adc.tp2 = adc.lp1;
  }
					// L--RH--RX--H
  R_DDR = LoPinRH;			//switch R_H for Low-Pin to GND
    49a0:	b4 b8       	out	0x04, r11	; 4
  adc.lp2 = W5msReadADC(LowPin);
    49a2:	86 2d       	mov	r24, r6
    49a4:	0e 94 cf 09 	call	0x139e	; 0x139e <W5msReadADC>
    49a8:	5c 01       	movw	r10, r24
		
  if((adc.hp1 < (4400*U_SCALE)) && (adc.hp2 > (97*U_SCALE))) {
    49aa:	00 3c       	cpi	r16, 0xC0	; 192
    49ac:	84 e4       	ldi	r24, 0x44	; 68
    49ae:	18 07       	cpc	r17, r24
    49b0:	30 f4       	brcc	.+12     	; 0x49be <GetResistance+0x196>
    49b2:	25 e8       	ldi	r18, 0x85	; 133
    49b4:	c2 16       	cp	r12, r18
    49b6:	21 e0       	ldi	r18, 0x01	; 1
    49b8:	d2 06       	cpc	r13, r18
    49ba:	e8 f6       	brcc	.-70     	; 0x4976 <GetResistance+0x14e>
    49bc:	05 c0       	rjmp	.+10     	; 0x49c8 <GetResistance+0x1a0>
     lcd_data('d');
 #endif
     goto testend; 
  }
//    if((adc.hp2 + (adc.hp2 / 61)) < adc.hp1)
  if (adc.hp2 < (4972*U_SCALE)) { 
    49be:	80 eb       	ldi	r24, 0xB0	; 176
    49c0:	c8 16       	cp	r12, r24
    49c2:	8d e4       	ldi	r24, 0x4D	; 77
    49c4:	d8 06       	cpc	r13, r24
    49c6:	b8 f6       	brcc	.-82     	; 0x4976 <GetResistance+0x14e>
     // voltage breaks down with low test current and it is not nearly shorted  => resistor
//     if (adc.lp1 < 120)  // take measurement with R_H 
     if (adc.lp1 < (169*U_SCALE)) { // take measurement with R_H 
    49c8:	c4 3a       	cpi	r28, 0xA4	; 164
    49ca:	22 e0       	ldi	r18, 0x02	; 2
    49cc:	d2 07       	cpc	r29, r18
    49ce:	08 f0       	brcs	.+2      	; 0x49d2 <GetResistance+0x1aa>
    49d0:	6c c0       	rjmp	.+216    	; 0x4aaa <GetResistance+0x282>
        if (adc.lp2 < (38*U_SCALE)) {
    49d2:	88 e9       	ldi	r24, 0x98	; 152
    49d4:	a8 16       	cp	r10, r24
    49d6:	b1 04       	cpc	r11, r1
    49d8:	70 f2       	brcs	.-100    	; 0x4976 <GetResistance+0x14e>
 #endif
           goto testend;
        }
        // two measurements with R_H resistors (470k) are made:
        // lirx1 (measurement at HighPin)
        lirx1 = (unsigned long)((unsigned int)R_H_VAL) * (unsigned long)adc.hp2 / vcc_diff(adc.hp2);
    49da:	c6 01       	movw	r24, r12
    49dc:	0e 94 37 0a 	call	0x146e	; 0x146e <vcc_diff>
    49e0:	ac 01       	movw	r20, r24
    49e2:	96 01       	movw	r18, r12
    49e4:	a8 e9       	ldi	r26, 0x98	; 152
    49e6:	b7 eb       	ldi	r27, 0xB7	; 183
    49e8:	0e 94 73 3d 	call	0x7ae6	; 0x7ae6 <__umulhisi3>
    49ec:	9a 01       	movw	r18, r20
    49ee:	40 e0       	ldi	r20, 0x00	; 0
    49f0:	50 e0       	ldi	r21, 0x00	; 0
    49f2:	0e 94 2f 3d 	call	0x7a5e	; 0x7a5e <__udivmodsi4>
    49f6:	19 01       	movw	r2, r18
    49f8:	2a 01       	movw	r4, r20
        // lirx2 (measurement at LowPin)
        lirx2 = (unsigned long)((unsigned int)R_H_VAL) * (unsigned long)vcc_diff(adc.lp2) / adc.lp2;
    49fa:	c5 01       	movw	r24, r10
    49fc:	0e 94 37 0a 	call	0x146e	; 0x146e <vcc_diff>
    4a00:	9c 01       	movw	r18, r24
    4a02:	a8 e9       	ldi	r26, 0x98	; 152
    4a04:	b7 eb       	ldi	r27, 0xB7	; 183
    4a06:	0e 94 73 3d 	call	0x7ae6	; 0x7ae6 <__umulhisi3>
    4a0a:	85 01       	movw	r16, r10
    4a0c:	20 e0       	ldi	r18, 0x00	; 0
    4a0e:	30 e0       	ldi	r19, 0x00	; 0
    4a10:	a9 01       	movw	r20, r18
    4a12:	98 01       	movw	r18, r16
    4a14:	0e 94 2f 3d 	call	0x7a5e	; 0x7a5e <__udivmodsi4>
#define FAKT_LOW 2		//resolution is about twice as good
#else
#define FAKT_LOW 4		//resolution is about four times better
#endif
#ifdef AUTOSCALE_ADC
        if (adc.hp2 < U_INT_LIMIT) {
    4a18:	88 e7       	ldi	r24, 0x78	; 120
    4a1a:	c8 16       	cp	r12, r24
    4a1c:	8f e0       	ldi	r24, 0x0F	; 15
    4a1e:	d8 06       	cpc	r13, r24
    4a20:	80 f4       	brcc	.+32     	; 0x4a42 <GetResistance+0x21a>
           lrx1 = (lirx1*FAKT_LOW + lirx2) / (FAKT_LOW+1);	//weighted average of both R_H measurements
    4a22:	d2 01       	movw	r26, r4
    4a24:	c1 01       	movw	r24, r2
    4a26:	f2 e0       	ldi	r31, 0x02	; 2
    4a28:	88 0f       	add	r24, r24
    4a2a:	99 1f       	adc	r25, r25
    4a2c:	aa 1f       	adc	r26, r26
    4a2e:	bb 1f       	adc	r27, r27
    4a30:	fa 95       	dec	r31
    4a32:	d1 f7       	brne	.-12     	; 0x4a28 <GetResistance+0x200>
    4a34:	bc 01       	movw	r22, r24
    4a36:	cd 01       	movw	r24, r26
    4a38:	62 0f       	add	r22, r18
    4a3a:	73 1f       	adc	r23, r19
    4a3c:	84 1f       	adc	r24, r20
    4a3e:	95 1f       	adc	r25, r21
    4a40:	14 c0       	rjmp	.+40     	; 0x4a6a <GetResistance+0x242>
        } else if (adc.lp2 < U_INT_LIMIT){
    4a42:	88 e7       	ldi	r24, 0x78	; 120
    4a44:	a8 16       	cp	r10, r24
    4a46:	8f e0       	ldi	r24, 0x0F	; 15
    4a48:	b8 06       	cpc	r11, r24
    4a4a:	b0 f4       	brcc	.+44     	; 0x4a78 <GetResistance+0x250>
           lrx1 = (lirx2*FAKT_LOW + lirx1) / (FAKT_LOW+1);	//weighted average of both R_H measurements
    4a4c:	da 01       	movw	r26, r20
    4a4e:	c9 01       	movw	r24, r18
    4a50:	e2 e0       	ldi	r30, 0x02	; 2
    4a52:	88 0f       	add	r24, r24
    4a54:	99 1f       	adc	r25, r25
    4a56:	aa 1f       	adc	r26, r26
    4a58:	bb 1f       	adc	r27, r27
    4a5a:	ea 95       	dec	r30
    4a5c:	d1 f7       	brne	.-12     	; 0x4a52 <GetResistance+0x22a>
    4a5e:	bc 01       	movw	r22, r24
    4a60:	cd 01       	movw	r24, r26
    4a62:	62 0d       	add	r22, r2
    4a64:	73 1d       	adc	r23, r3
    4a66:	84 1d       	adc	r24, r4
    4a68:	95 1d       	adc	r25, r5
    4a6a:	25 e0       	ldi	r18, 0x05	; 5
    4a6c:	30 e0       	ldi	r19, 0x00	; 0
    4a6e:	40 e0       	ldi	r20, 0x00	; 0
    4a70:	50 e0       	ldi	r21, 0x00	; 0
    4a72:	0e 94 2f 3d 	call	0x7a5e	; 0x7a5e <__udivmodsi4>
    4a76:	0c c0       	rjmp	.+24     	; 0x4a90 <GetResistance+0x268>
        } else 
#endif
        {
           lrx1 = (lirx1 + lirx2) / 2;		//average of both R_H measurements
    4a78:	da 01       	movw	r26, r20
    4a7a:	c9 01       	movw	r24, r18
    4a7c:	82 0d       	add	r24, r2
    4a7e:	93 1d       	adc	r25, r3
    4a80:	a4 1d       	adc	r26, r4
    4a82:	b5 1d       	adc	r27, r5
    4a84:	9c 01       	movw	r18, r24
    4a86:	ad 01       	movw	r20, r26
    4a88:	56 95       	lsr	r21
    4a8a:	47 95       	ror	r20
    4a8c:	37 95       	ror	r19
    4a8e:	27 95       	ror	r18
        }
        lrx1 *= 100;
    4a90:	a4 e6       	ldi	r26, 0x64	; 100
    4a92:	b0 e0       	ldi	r27, 0x00	; 0
    4a94:	0e 94 88 3d 	call	0x7b10	; 0x7b10 <__muluhisi3>
        lrx1 += RH_OFFSET;			// add constant for correction of systematic error
    4a98:	4b 01       	movw	r8, r22
    4a9a:	5c 01       	movw	r10, r24
    4a9c:	2c ea       	ldi	r18, 0xAC	; 172
    4a9e:	82 0e       	add	r8, r18
    4aa0:	2d e0       	ldi	r18, 0x0D	; 13
    4aa2:	92 1e       	adc	r9, r18
    4aa4:	a1 1c       	adc	r10, r1
    4aa6:	b1 1c       	adc	r11, r1
    4aa8:	78 c0       	rjmp	.+240    	; 0x4b9a <GetResistance+0x372>
    4aaa:	69 2d       	mov	r22, r9
    4aac:	78 2d       	mov	r23, r8
    4aae:	06 17       	cp	r16, r22
    4ab0:	17 07       	cpc	r17, r23
    4ab2:	08 f4       	brcc	.+2      	; 0x4ab6 <GetResistance+0x28e>
    4ab4:	b8 01       	movw	r22, r16
    4ab6:	6e 01       	movw	r12, r28
    4ab8:	ce 15       	cp	r28, r14
    4aba:	df 05       	cpc	r29, r15
    4abc:	08 f4       	brcc	.+2      	; 0x4ac0 <GetResistance+0x298>
    4abe:	67 01       	movw	r12, r14
    4ac0:	7b 01       	movw	r14, r22
    4ac2:	60 17       	cp	r22, r16
    4ac4:	71 07       	cpc	r23, r17
    4ac6:	08 f4       	brcc	.+2      	; 0x4aca <GetResistance+0x2a2>
    4ac8:	78 01       	movw	r14, r16
        // two measurements with R_L resistors (680) are made:
        // lirx1 (measurement at HighPin)
        if (adc.tp1 > adc.hp1) {
           adc.hp1 = adc.tp1;		//diff negativ is illegal
        }
        lirx1 =(unsigned long)RR680PL * (unsigned long)unsigned_diff(adc.hp1, adc.tp1) / vcc_diff(adc.hp1);
    4aca:	00 91 14 01 	lds	r16, 0x0114
    4ace:	10 91 15 01 	lds	r17, 0x0115
    4ad2:	c7 01       	movw	r24, r14
    4ad4:	0e 94 3c 0a 	call	0x1478	; 0x1478 <unsigned_diff>
    4ad8:	9c 01       	movw	r18, r24
    4ada:	d8 01       	movw	r26, r16
    4adc:	0e 94 73 3d 	call	0x7ae6	; 0x7ae6 <__umulhisi3>
    4ae0:	4b 01       	movw	r8, r22
    4ae2:	5c 01       	movw	r10, r24
    4ae4:	c7 01       	movw	r24, r14
    4ae6:	0e 94 37 0a 	call	0x146e	; 0x146e <vcc_diff>
    4aea:	9c 01       	movw	r18, r24
    4aec:	40 e0       	ldi	r20, 0x00	; 0
    4aee:	50 e0       	ldi	r21, 0x00	; 0
    4af0:	c5 01       	movw	r24, r10
    4af2:	b4 01       	movw	r22, r8
    4af4:	0e 94 2f 3d 	call	0x7a5e	; 0x7a5e <__udivmodsi4>
    4af8:	49 01       	movw	r8, r18
    4afa:	5a 01       	movw	r10, r20
    4afc:	86 01       	movw	r16, r12
    4afe:	cc 15       	cp	r28, r12
    4b00:	dd 05       	cpc	r29, r13
    4b02:	08 f4       	brcc	.+2      	; 0x4b06 <GetResistance+0x2de>
    4b04:	8e 01       	movw	r16, r28
        if (adc.tp2 < adc.lp1) {
           adc.lp1 = adc.tp2;		//diff negativ is illegal
        }
        // lirx2 (Measurement at LowPin)
        lirx2 =(unsigned long)RR680MI * (unsigned long)unsigned_diff(adc.tp2, adc.lp1) / adc.lp1;
    4b06:	c0 91 0d 01 	lds	r28, 0x010D
    4b0a:	d0 91 0e 01 	lds	r29, 0x010E
    4b0e:	b8 01       	movw	r22, r16
    4b10:	c6 01       	movw	r24, r12
    4b12:	0e 94 3c 0a 	call	0x1478	; 0x1478 <unsigned_diff>
    4b16:	9c 01       	movw	r18, r24
    4b18:	de 01       	movw	r26, r28
    4b1a:	0e 94 73 3d 	call	0x7ae6	; 0x7ae6 <__umulhisi3>
    4b1e:	98 01       	movw	r18, r16
    4b20:	40 e0       	ldi	r20, 0x00	; 0
    4b22:	50 e0       	ldi	r21, 0x00	; 0
    4b24:	0e 94 2f 3d 	call	0x7a5e	; 0x7a5e <__udivmodsi4>

#ifdef AUTOSCALE_ADC
        if (adc.hp1 < U_INT_LIMIT) {
    4b28:	88 e7       	ldi	r24, 0x78	; 120
    4b2a:	e8 16       	cp	r14, r24
    4b2c:	8f e0       	ldi	r24, 0x0F	; 15
    4b2e:	f8 06       	cpc	r15, r24
    4b30:	80 f4       	brcc	.+32     	; 0x4b52 <GetResistance+0x32a>
           lrx1 = (lirx1*FAKT_LOW + lirx2) / (FAKT_LOW+1);	//weighted average of both R_L measurements
    4b32:	d5 01       	movw	r26, r10
    4b34:	c4 01       	movw	r24, r8
    4b36:	62 e0       	ldi	r22, 0x02	; 2
    4b38:	88 0f       	add	r24, r24
    4b3a:	99 1f       	adc	r25, r25
    4b3c:	aa 1f       	adc	r26, r26
    4b3e:	bb 1f       	adc	r27, r27
    4b40:	6a 95       	dec	r22
    4b42:	d1 f7       	brne	.-12     	; 0x4b38 <GetResistance+0x310>
    4b44:	bc 01       	movw	r22, r24
    4b46:	cd 01       	movw	r24, r26
    4b48:	62 0f       	add	r22, r18
    4b4a:	73 1f       	adc	r23, r19
    4b4c:	84 1f       	adc	r24, r20
    4b4e:	95 1f       	adc	r25, r21
    4b50:	13 c0       	rjmp	.+38     	; 0x4b78 <GetResistance+0x350>
        } else if (adc.lp1 < U_INT_LIMIT) {
    4b52:	08 37       	cpi	r16, 0x78	; 120
    4b54:	8f e0       	ldi	r24, 0x0F	; 15
    4b56:	18 07       	cpc	r17, r24
    4b58:	c0 f4       	brcc	.+48     	; 0x4b8a <GetResistance+0x362>
           lrx1 = (lirx2*FAKT_LOW + lirx1) / (FAKT_LOW+1);	//weighted average of both R_L measurements
    4b5a:	da 01       	movw	r26, r20
    4b5c:	c9 01       	movw	r24, r18
    4b5e:	32 e0       	ldi	r19, 0x02	; 2
    4b60:	88 0f       	add	r24, r24
    4b62:	99 1f       	adc	r25, r25
    4b64:	aa 1f       	adc	r26, r26
    4b66:	bb 1f       	adc	r27, r27
    4b68:	3a 95       	dec	r19
    4b6a:	d1 f7       	brne	.-12     	; 0x4b60 <GetResistance+0x338>
    4b6c:	bc 01       	movw	r22, r24
    4b6e:	cd 01       	movw	r24, r26
    4b70:	68 0d       	add	r22, r8
    4b72:	79 1d       	adc	r23, r9
    4b74:	8a 1d       	adc	r24, r10
    4b76:	9b 1d       	adc	r25, r11
    4b78:	25 e0       	ldi	r18, 0x05	; 5
    4b7a:	30 e0       	ldi	r19, 0x00	; 0
    4b7c:	40 e0       	ldi	r20, 0x00	; 0
    4b7e:	50 e0       	ldi	r21, 0x00	; 0
    4b80:	0e 94 2f 3d 	call	0x7a5e	; 0x7a5e <__udivmodsi4>
    4b84:	49 01       	movw	r8, r18
    4b86:	5a 01       	movw	r10, r20
    4b88:	08 c0       	rjmp	.+16     	; 0x4b9a <GetResistance+0x372>
        } else
#endif
        {
           lrx1 = (lirx1 + lirx2) / 2;		//average of both R_L measurements
    4b8a:	82 0e       	add	r8, r18
    4b8c:	93 1e       	adc	r9, r19
    4b8e:	a4 1e       	adc	r10, r20
    4b90:	b5 1e       	adc	r11, r21
    4b92:	b6 94       	lsr	r11
    4b94:	a7 94       	ror	r10
    4b96:	97 94       	ror	r9
    4b98:	87 94       	ror	r8
        }
     }
     // measurement is finished, lrx1 is the resistance value of one direction
     if(PartFound < PART_TRANSISTOR) {
    4b9a:	10 91 13 01 	lds	r17, 0x0113
    4b9e:	14 30       	cpi	r17, 0x04	; 4
    4ba0:	08 f0       	brcs	.+2      	; 0x4ba4 <GetResistance+0x37c>
    4ba2:	e9 ce       	rjmp	.-558    	; 0x4976 <GetResistance+0x14e>
    4ba4:	7a 94       	dec	r7
// Search for resistors
//##########################################################################################
  if ((ptrans.count  + ntrans.count) > 0) {
     return;	// no resistors are searched, if transistors are detected
  }
  resnum = (LowPin - TP_MIN + HighPin - TP_MIN - 1);	// resistor-Number 0:1 = 0, 0:2 = 1, 1:2 = 2
    4ba6:	67 0c       	add	r6, r7
           lrx1 = (lirx1 + lirx2) / 2;		//average of both R_L measurements
        }
     }
     // measurement is finished, lrx1 is the resistance value of one direction
     if(PartFound < PART_TRANSISTOR) {
        if (ResistorChecked[resnum] != 0) {
    4ba8:	26 2d       	mov	r18, r6
    4baa:	30 e0       	ldi	r19, 0x00	; 0
    4bac:	e9 01       	movw	r28, r18
    4bae:	cd 5a       	subi	r28, 0xAD	; 173
    4bb0:	de 4f       	sbci	r29, 0xFE	; 254
    4bb2:	88 81       	ld	r24, Y
    4bb4:	22 0f       	add	r18, r18
    4bb6:	33 1f       	adc	r19, r19
    4bb8:	22 0f       	add	r18, r18
    4bba:	33 1f       	adc	r19, r19
           // must be measurement with inverse polarity 
           // resolution is 0.1 Ohm, 1 Ohm = 10 !
           lirx1 = (labs((long)lrx1 - (long)ResistorVal[resnum]) * 10) / (lrx1 + ResistorVal[resnum] + 100);
    4bbc:	f9 01       	movw	r30, r18
    4bbe:	ea 55       	subi	r30, 0x5A	; 90
    4bc0:	fe 4f       	sbci	r31, 0xFE	; 254
           lrx1 = (lirx1 + lirx2) / 2;		//average of both R_L measurements
        }
     }
     // measurement is finished, lrx1 is the resistance value of one direction
     if(PartFound < PART_TRANSISTOR) {
        if (ResistorChecked[resnum] != 0) {
    4bc2:	88 23       	and	r24, r24
    4bc4:	d9 f1       	breq	.+118    	; 0x4c3c <GetResistance+0x414>
           // must be measurement with inverse polarity 
           // resolution is 0.1 Ohm, 1 Ohm = 10 !
           lirx1 = (labs((long)lrx1 - (long)ResistorVal[resnum]) * 10) / (lrx1 + ResistorVal[resnum] + 100);
    4bc6:	c0 80       	ld	r12, Z
    4bc8:	d1 80       	ldd	r13, Z+1	; 0x01
    4bca:	e2 80       	ldd	r14, Z+2	; 0x02
    4bcc:	f3 80       	ldd	r15, Z+3	; 0x03
    4bce:	a5 01       	movw	r20, r10
    4bd0:	94 01       	movw	r18, r8
    4bd2:	2c 19       	sub	r18, r12
    4bd4:	3d 09       	sbc	r19, r13
    4bd6:	4e 09       	sbc	r20, r14
    4bd8:	5f 09       	sbc	r21, r15
    4bda:	57 ff       	sbrs	r21, 7
    4bdc:	07 c0       	rjmp	.+14     	; 0x4bec <GetResistance+0x3c4>
    4bde:	50 95       	com	r21
    4be0:	40 95       	com	r20
    4be2:	30 95       	com	r19
    4be4:	21 95       	neg	r18
    4be6:	3f 4f       	sbci	r19, 0xFF	; 255
    4be8:	4f 4f       	sbci	r20, 0xFF	; 255
    4bea:	5f 4f       	sbci	r21, 0xFF	; 255
    4bec:	aa e0       	ldi	r26, 0x0A	; 10
    4bee:	b0 e0       	ldi	r27, 0x00	; 0
    4bf0:	0e 94 88 3d 	call	0x7b10	; 0x7b10 <__muluhisi3>
    4bf4:	24 e6       	ldi	r18, 0x64	; 100
    4bf6:	c2 0e       	add	r12, r18
    4bf8:	d1 1c       	adc	r13, r1
    4bfa:	e1 1c       	adc	r14, r1
    4bfc:	f1 1c       	adc	r15, r1
    4bfe:	a7 01       	movw	r20, r14
    4c00:	96 01       	movw	r18, r12
    4c02:	28 0d       	add	r18, r8
    4c04:	39 1d       	adc	r19, r9
    4c06:	4a 1d       	adc	r20, r10
    4c08:	5b 1d       	adc	r21, r11
    4c0a:	0e 94 2f 3d 	call	0x7a5e	; 0x7a5e <__udivmodsi4>
           if (lirx1  > 0) {
    4c0e:	23 2b       	or	r18, r19
    4c10:	24 2b       	or	r18, r20
    4c12:	25 2b       	or	r18, r21
    4c14:	09 f0       	breq	.+2      	; 0x4c18 <GetResistance+0x3f0>
    4c16:	af ce       	rjmp	.-674    	; 0x4976 <GetResistance+0x14e>
     DisplayValue(lrx1,-1,' ',4);
     DisplayValue(ResistorVal[resnum],-1,' ',4);
 #endif
           } else {
              // resistor has the same value in both directions
              if (PartFound < PART_DIODE) {
    4c18:	13 30       	cpi	r17, 0x03	; 3
    4c1a:	19 f0       	breq	.+6      	; 0x4c22 <GetResistance+0x3fa>
                 PartFound = PART_RESISTOR;	// only mark as resistor, if no other part found
    4c1c:	81 e0       	ldi	r24, 0x01	; 1
    4c1e:	80 93 13 01 	sts	0x0113, r24
              }
              ResistorChecked[resnum] = 2;		// mark as checked in both direction
    4c22:	82 e0       	ldi	r24, 0x02	; 2
    4c24:	88 83       	st	Y, r24
              ResistorList[ResistorsFound] = resnum;	// save number of this resistor
    4c26:	80 91 6f 01 	lds	r24, 0x016F
    4c2a:	e8 2f       	mov	r30, r24
    4c2c:	f0 e0       	ldi	r31, 0x00	; 0
    4c2e:	ea 5a       	subi	r30, 0xAA	; 170
    4c30:	fe 4f       	sbci	r31, 0xFE	; 254
    4c32:	60 82       	st	Z, r6
              ResistorsFound++;			// 1 more resistor found
    4c34:	8f 5f       	subi	r24, 0xFF	; 255
    4c36:	80 93 6f 01 	sts	0x016F, r24
    4c3a:	9d ce       	rjmp	.-710    	; 0x4976 <GetResistance+0x14e>
           }
           goto testend;
        } else {		// resistor is never checked before
           // must be a new one with other pins
           ResistorVal[resnum] = lrx1;	// save register value
    4c3c:	80 82       	st	Z, r8
    4c3e:	91 82       	std	Z+1, r9	; 0x01
    4c40:	a2 82       	std	Z+2, r10	; 0x02
    4c42:	b3 82       	std	Z+3, r11	; 0x03
           ResistorChecked[resnum] = 1;		// is checked in one direction
    4c44:	81 e0       	ldi	r24, 0x01	; 1
    4c46:	88 83       	st	Y, r24
    4c48:	96 ce       	rjmp	.-724    	; 0x4976 <GetResistance+0x14e>
#if R_ANZ_MESS != ANZ_MESS
  ADCconfig.Samples = ANZ_MESS;		// switch back to standard number of repetition
#endif

  return;
} // end GetResistance()
    4c4a:	cd b7       	in	r28, 0x3d	; 61
    4c4c:	de b7       	in	r29, 0x3e	; 62
    4c4e:	e2 e1       	ldi	r30, 0x12	; 18
    4c50:	0c 94 39 3e 	jmp	0x7c72	; 0x7c72 <__epilogue_restores__>

00004c54 <ChargePin10ms>:
#include "Transistortester.h"


//******************************************************************

void ChargePin10ms(uint8_t PinToCharge, uint8_t ChargeDirection) {
    4c54:	cf 93       	push	r28
    4c56:	c8 2f       	mov	r28, r24
    4c58:	c0 95       	com	r28
   //Parameters:
   //PinToCharge: specifies the pin as mask for R-Port
   //ChargeDirection: 0 = switch to GND (N-Kanal-FET), 1= switch to VCC(P-Kanal-FET)

   if(ChargeDirection&1) {
      R_PORT |= PinToCharge;	//R_PORT to 1 (VCC) 
    4c5a:	95 b1       	in	r25, 0x05	; 5
   //Will be used by discharge of MOSFET Gates or to load big capacities.
   //Parameters:
   //PinToCharge: specifies the pin as mask for R-Port
   //ChargeDirection: 0 = switch to GND (N-Kanal-FET), 1= switch to VCC(P-Kanal-FET)

   if(ChargeDirection&1) {
    4c5c:	60 ff       	sbrs	r22, 0
    4c5e:	02 c0       	rjmp	.+4      	; 0x4c64 <ChargePin10ms+0x10>
      R_PORT |= PinToCharge;	//R_PORT to 1 (VCC) 
    4c60:	98 2b       	or	r25, r24
    4c62:	01 c0       	rjmp	.+2      	; 0x4c66 <ChargePin10ms+0x12>
   } else {
      R_PORT &= ~PinToCharge; // or 0 (GND)
    4c64:	9c 23       	and	r25, r28
    4c66:	95 b9       	out	0x05, r25	; 5
   }
   R_DDR |= PinToCharge;		//switch Pin to output, across R to GND or VCC
    4c68:	94 b1       	in	r25, 0x04	; 4
    4c6a:	89 2b       	or	r24, r25
    4c6c:	84 b9       	out	0x04, r24	; 4
   wait_about10ms();			// wait about 10ms
    4c6e:	82 e0       	ldi	r24, 0x02	; 2
    4c70:	0e 94 9b 09 	call	0x1336	; 0x1336 <sleep_5ms>
   // switch back Input, no current
   R_DDR &= ~PinToCharge;	// switch back to input
    4c74:	84 b1       	in	r24, 0x04	; 4
    4c76:	8c 23       	and	r24, r28
    4c78:	84 b9       	out	0x04, r24	; 4
   R_PORT &= ~PinToCharge;	// no Pull up
    4c7a:	85 b1       	in	r24, 0x05	; 5
    4c7c:	8c 23       	and	r24, r28
    4c7e:	85 b9       	out	0x05, r24	; 5
}
    4c80:	cf 91       	pop	r28
    4c82:	08 95       	ret

00004c84 <EntladePins>:
#include <avr/pgmspace.h>
#include "Transistortester.h"


// first discharge any charge of capacitors
void EntladePins() {
    4c84:	a0 e0       	ldi	r26, 0x00	; 0
    4c86:	b0 e0       	ldi	r27, 0x00	; 0
    4c88:	e8 e4       	ldi	r30, 0x48	; 72
    4c8a:	f6 e2       	ldi	r31, 0x26	; 38
    4c8c:	0c 94 25 3e 	jmp	0x7c4a	; 0x7c4a <__prologue_saves__+0x10>
    4c90:	1a e0       	ldi	r17, 0x0A	; 10
#if DebugOut == 99
  uart_putc('L');		//Debug
#endif
  for(lop_cnt=0;lop_cnt<10;lop_cnt++) {
     adc_gnd = TXD_MSK;		// put all ADC to Input
     ADC_DDR = adc_gnd;
    4c92:	08 e0       	ldi	r16, 0x08	; 8
     ADC_PORT = TXD_VAL;		// ADC-outputs auf 0
     R_PORT = 0;			// R-outputs auf 0
//     R_DDR = (1<<PIN_RH3) | (1<<PIN_RH2) | (1<<PIN_RH1); // R_H for all Pins to GND
     R_DDR = (1<<PIN_RH3) | (1<<PIN_RL3) | (1<<PIN_RH2) | (1<<PIN_RL2) | (1<<PIN_RH1) | (1<<PIN_RL1); // R_H and R_L for all Pins to GND
    4c94:	8f e3       	ldi	r24, 0x3F	; 63
    4c96:	c8 2e       	mov	r12, r24
#endif
        return;			// all is discharged
     }
     // all Pins with voltage lower than 1V can be connected directly to GND (ADC-Port)
     if (adcmv[0] < 1000) {
        adc_gnd |= (1<<TP1);	//Pin 1 directly to GND
    4c98:	99 e0       	ldi	r25, 0x09	; 9
    4c9a:	d9 2e       	mov	r13, r25
#if DebugOut == 99
  uart_putc('L');		//Debug
#endif
  for(lop_cnt=0;lop_cnt<10;lop_cnt++) {
     adc_gnd = TXD_MSK;		// put all ADC to Input
     ADC_DDR = adc_gnd;
    4c9c:	07 b9       	out	0x07, r16	; 7
     ADC_PORT = TXD_VAL;		// ADC-outputs auf 0
    4c9e:	08 b9       	out	0x08, r16	; 8
     R_PORT = 0;			// R-outputs auf 0
    4ca0:	15 b8       	out	0x05, r1	; 5
//     R_DDR = (1<<PIN_RH3) | (1<<PIN_RH2) | (1<<PIN_RH1); // R_H for all Pins to GND
     R_DDR = (1<<PIN_RH3) | (1<<PIN_RL3) | (1<<PIN_RH2) | (1<<PIN_RL2) | (1<<PIN_RH1) | (1<<PIN_RL1); // R_H and R_L for all Pins to GND
    4ca2:	c4 b8       	out	0x04, r12	; 4
     adcmv[0] = W5msReadADC(TP1);	// which voltage has Pin 1?
    4ca4:	80 e0       	ldi	r24, 0x00	; 0
    4ca6:	0e 94 cf 09 	call	0x139e	; 0x139e <W5msReadADC>
    4caa:	7c 01       	movw	r14, r24
     adcmv[1] = ReadADC(TP2);	// which voltage has Pin 2?
    4cac:	81 e0       	ldi	r24, 0x01	; 1
    4cae:	0e 94 d3 09 	call	0x13a6	; 0x13a6 <ReadADC>
    4cb2:	ec 01       	movw	r28, r24
     adcmv[2] = ReadADC(TP3);	// which voltage has Pin 3?
    4cb4:	82 e0       	ldi	r24, 0x02	; 2
    4cb6:	0e 94 d3 09 	call	0x13a6	; 0x13a6 <ReadADC>
    4cba:	9c 01       	movw	r18, r24
        u2lcd_space(adcmv[0]);	// lcd_string(utoa(adcmv[0], outval, 10)); lcd_space();
        u2lcd_space(adcmv[1]);	// lcd_string(utoa(adcmv[1], outval, 10)); lcd_space();
        u2lcd(adcmv[2]);		// lcd_string(utoa(adcmv[2], outval, 10));
        wait2s();
#endif
     if ((PartFound == PART_CELL) || ((adcmv[0] < CAP_EMPTY_LEVEL) && (adcmv[1] < CAP_EMPTY_LEVEL) && (adcmv[2] < CAP_EMPTY_LEVEL))) {
    4cbc:	80 91 13 01 	lds	r24, 0x0113
    4cc0:	89 30       	cpi	r24, 0x09	; 9
    4cc2:	81 f4       	brne	.+32     	; 0x4ce4 <EntladePins+0x60>
        ADC_DDR = TXD_MSK;		// switch all ADC-Pins to input
    4cc4:	88 e0       	ldi	r24, 0x08	; 8
    4cc6:	87 b9       	out	0x07, r24	; 7
        R_DDR = 0;			// switch all R_L Ports (and R_H) to input
    4cc8:	14 b8       	out	0x04, r1	; 4
#if FLASHEND > 0x3fff
        cell_mv[0] = adcmv[0];		// save the voltage of pin 1
    4cca:	f0 92 4e 01 	sts	0x014E, r15
    4cce:	e0 92 4d 01 	sts	0x014D, r14
        cell_mv[1] = adcmv[1];		// save the voltage of pin 2
    4cd2:	d0 93 50 01 	sts	0x0150, r29
    4cd6:	c0 93 4f 01 	sts	0x014F, r28
        cell_mv[2] = adcmv[2];		// save the voltage of pin 3
    4cda:	30 93 52 01 	sts	0x0152, r19
    4cde:	20 93 51 01 	sts	0x0151, r18
    4ce2:	5b c0       	rjmp	.+182    	; 0x4d9a <EntladePins+0x116>
        u2lcd_space(adcmv[0]);	// lcd_string(utoa(adcmv[0], outval, 10)); lcd_space();
        u2lcd_space(adcmv[1]);	// lcd_string(utoa(adcmv[1], outval, 10)); lcd_space();
        u2lcd(adcmv[2]);		// lcd_string(utoa(adcmv[2], outval, 10));
        wait2s();
#endif
     if ((PartFound == PART_CELL) || ((adcmv[0] < CAP_EMPTY_LEVEL) && (adcmv[1] < CAP_EMPTY_LEVEL) && (adcmv[2] < CAP_EMPTY_LEVEL))) {
    4ce4:	84 e0       	ldi	r24, 0x04	; 4
    4ce6:	e8 16       	cp	r14, r24
    4ce8:	f1 04       	cpc	r15, r1
    4cea:	40 f4       	brcc	.+16     	; 0x4cfc <EntladePins+0x78>
    4cec:	c4 30       	cpi	r28, 0x04	; 4
    4cee:	d1 05       	cpc	r29, r1
    4cf0:	50 f4       	brcc	.+20     	; 0x4d06 <EntladePins+0x82>
    4cf2:	24 30       	cpi	r18, 0x04	; 4
    4cf4:	31 05       	cpc	r19, r1
    4cf6:	30 f3       	brcs	.-52     	; 0x4cc4 <EntladePins+0x40>
#endif
        return;			// all is discharged
     }
     // all Pins with voltage lower than 1V can be connected directly to GND (ADC-Port)
     if (adcmv[0] < 1000) {
        adc_gnd |= (1<<TP1);	//Pin 1 directly to GND
    4cf8:	99 e0       	ldi	r25, 0x09	; 9
    4cfa:	0b c0       	rjmp	.+22     	; 0x4d12 <EntladePins+0x8e>
        uart_putc('l');		//Debug
#endif
        return;			// all is discharged
     }
     // all Pins with voltage lower than 1V can be connected directly to GND (ADC-Port)
     if (adcmv[0] < 1000) {
    4cfc:	88 ee       	ldi	r24, 0xE8	; 232
    4cfe:	e8 16       	cp	r14, r24
    4d00:	83 e0       	ldi	r24, 0x03	; 3
    4d02:	f8 06       	cpc	r15, r24
    4d04:	10 f4       	brcc	.+4      	; 0x4d0a <EntladePins+0x86>
        adc_gnd |= (1<<TP1);	//Pin 1 directly to GND
    4d06:	99 e0       	ldi	r25, 0x09	; 9
    4d08:	01 c0       	rjmp	.+2      	; 0x4d0c <EntladePins+0x88>
#define MAX_ENTLADE_ZEIT  (10000/20)
#if DebugOut == 99
  uart_putc('L');		//Debug
#endif
  for(lop_cnt=0;lop_cnt<10;lop_cnt++) {
     adc_gnd = TXD_MSK;		// put all ADC to Input
    4d0a:	98 e0       	ldi	r25, 0x08	; 8
     }
     // all Pins with voltage lower than 1V can be connected directly to GND (ADC-Port)
     if (adcmv[0] < 1000) {
        adc_gnd |= (1<<TP1);	//Pin 1 directly to GND
     }
     if (adcmv[1] < 1000) {
    4d0c:	c8 3e       	cpi	r28, 0xE8	; 232
    4d0e:	d3 40       	sbci	r29, 0x03	; 3
    4d10:	08 f4       	brcc	.+2      	; 0x4d14 <EntladePins+0x90>
        adc_gnd |= (1<<TP2);	//Pin 2 directly to GND
    4d12:	92 60       	ori	r25, 0x02	; 2
     }
     if (adcmv[2] < 1000) {
    4d14:	28 3e       	cpi	r18, 0xE8	; 232
    4d16:	33 40       	sbci	r19, 0x03	; 3
    4d18:	08 f4       	brcc	.+2      	; 0x4d1c <EntladePins+0x98>
        adc_gnd |= (1<<TP3);	//Pin 3 directly to  GND
    4d1a:	94 60       	ori	r25, 0x04	; 4
     }
     ADC_DDR = adc_gnd;		// switch all selected ADC-Ports at the same time
    4d1c:	97 b9       	out	0x07, r25	; 7

     // additionally switch the leaving Ports with R_L to GND.
     // since there is no disadvantage for the already directly switched pins, we can
     // simply switch all  R_L resistors to GND
//     R_DDR = (1<<PIN_RL3) | (1<<PIN_RL2) | (1<<PIN_RL1);	// Pins across R_L resistors to GND
     for(clr_cnt=0;clr_cnt<MAX_ENTLADE_ZEIT;clr_cnt++) {
    4d1e:	c0 e0       	ldi	r28, 0x00	; 0
    4d20:	d0 e0       	ldi	r29, 0x00	; 0
        wdt_reset();
    4d22:	a8 95       	wdr
        adcmv[0] = W20msReadADC(TP1);	// which voltage has Pin 1?
    4d24:	80 e0       	ldi	r24, 0x00	; 0
    4d26:	0e 94 c7 09 	call	0x138e	; 0x138e <W20msReadADC>
    4d2a:	5c 01       	movw	r10, r24
        adcmv[1] = ReadADC(TP2);	// which voltage has Pin 2?
    4d2c:	81 e0       	ldi	r24, 0x01	; 1
    4d2e:	0e 94 d3 09 	call	0x13a6	; 0x13a6 <ReadADC>
    4d32:	7c 01       	movw	r14, r24
        adcmv[2] = ReadADC(TP3);	// which voltage has Pin 3?
    4d34:	82 e0       	ldi	r24, 0x02	; 2
    4d36:	0e 94 d3 09 	call	0x13a6	; 0x13a6 <ReadADC>
        if (adcmv[0] < 1300) {
    4d3a:	24 e1       	ldi	r18, 0x14	; 20
    4d3c:	a2 16       	cp	r10, r18
    4d3e:	25 e0       	ldi	r18, 0x05	; 5
    4d40:	b2 06       	cpc	r11, r18
    4d42:	08 f4       	brcc	.+2      	; 0x4d46 <EntladePins+0xc2>
           ADC_DDR |= (1<<TP1);	// below 1.3V , switch directly with ADC-Port to GND
    4d44:	38 9a       	sbi	0x07, 0	; 7
        }
        if (adcmv[1] < 1300) {
    4d46:	24 e1       	ldi	r18, 0x14	; 20
    4d48:	e2 16       	cp	r14, r18
    4d4a:	25 e0       	ldi	r18, 0x05	; 5
    4d4c:	f2 06       	cpc	r15, r18
    4d4e:	08 f4       	brcc	.+2      	; 0x4d52 <EntladePins+0xce>
           ADC_DDR |= (1<<TP2);	// below 1.3V, switch directly with ADC-Port to GND
    4d50:	39 9a       	sbi	0x07, 1	; 7
        }
        if (adcmv[2] < 1300) {
    4d52:	84 31       	cpi	r24, 0x14	; 20
    4d54:	25 e0       	ldi	r18, 0x05	; 5
    4d56:	92 07       	cpc	r25, r18
    4d58:	08 f4       	brcc	.+2      	; 0x4d5c <EntladePins+0xd8>
           ADC_DDR |= (1<<TP3);	// below 1.3V, switch directly with ADC-Port to GND
    4d5a:	3a 9a       	sbi	0x07, 2	; 7
        }
        if ((adcmv[0] < (CAP_EMPTY_LEVEL+2)) && (adcmv[1] < (CAP_EMPTY_LEVEL+2)) && (adcmv[2] < (CAP_EMPTY_LEVEL+2))) {
    4d5c:	26 e0       	ldi	r18, 0x06	; 6
    4d5e:	a2 16       	cp	r10, r18
    4d60:	b1 04       	cpc	r11, r1
    4d62:	30 f4       	brcc	.+12     	; 0x4d70 <EntladePins+0xec>
    4d64:	26 e0       	ldi	r18, 0x06	; 6
    4d66:	e2 16       	cp	r14, r18
    4d68:	f1 04       	cpc	r15, r1
    4d6a:	10 f4       	brcc	.+4      	; 0x4d70 <EntladePins+0xec>
    4d6c:	06 97       	sbiw	r24, 0x06	; 6
    4d6e:	38 f0       	brcs	.+14     	; 0x4d7e <EntladePins+0xfa>

     // additionally switch the leaving Ports with R_L to GND.
     // since there is no disadvantage for the already directly switched pins, we can
     // simply switch all  R_L resistors to GND
//     R_DDR = (1<<PIN_RL3) | (1<<PIN_RL2) | (1<<PIN_RL1);	// Pins across R_L resistors to GND
     for(clr_cnt=0;clr_cnt<MAX_ENTLADE_ZEIT;clr_cnt++) {
    4d70:	21 96       	adiw	r28, 0x01	; 1
    4d72:	c4 3f       	cpi	r28, 0xF4	; 244
    4d74:	81 e0       	ldi	r24, 0x01	; 1
    4d76:	d8 07       	cpc	r29, r24
    4d78:	a1 f6       	brne	.-88     	; 0x4d22 <EntladePins+0x9e>
        if ((adcmv[0] < (CAP_EMPTY_LEVEL+2)) && (adcmv[1] < (CAP_EMPTY_LEVEL+2)) && (adcmv[2] < (CAP_EMPTY_LEVEL+2))) {
           break;
        }
     }
     if (clr_cnt == MAX_ENTLADE_ZEIT) {
        PartFound = PART_CELL;	// mark as Battery
    4d7a:	d0 92 13 01 	sts	0x0113, r13

     // additionally switch the leaving Ports with R_L to GND.
     // since there is no disadvantage for the already directly switched pins, we can
     // simply switch all  R_L resistors to GND
//     R_DDR = (1<<PIN_RL3) | (1<<PIN_RL2) | (1<<PIN_RL1);	// Pins across R_L resistors to GND
     for(clr_cnt=0;clr_cnt<MAX_ENTLADE_ZEIT;clr_cnt++) {
    4d7e:	e1 2c       	mov	r14, r1
    4d80:	f1 2c       	mov	r15, r1
        lcd_line4();
        u2lcd_space(adcmv[0]);	// lcd_string(utoa(adcmv[0], outval, 10)); lcd_space();
        u2lcd_space(adcmv[1]);	// lcd_string(utoa(adcmv[1], outval, 10)); lcd_space();
        u2lcd(adcmv[2]);		// lcd_string(utoa(adcmv[2], outval, 10));
#endif
     for(adcmv[0]=0;adcmv[0]<clr_cnt;adcmv[0]++) {
    4d82:	ec 16       	cp	r14, r28
    4d84:	fd 06       	cpc	r15, r29
    4d86:	31 f0       	breq	.+12     	; 0x4d94 <EntladePins+0x110>
        // for safety, discharge 5% of discharge  time
        wait1ms();
    4d88:	0e 94 89 09 	call	0x1312	; 0x1312 <wait1ms>
    4d8c:	2f ef       	ldi	r18, 0xFF	; 255
    4d8e:	e2 1a       	sub	r14, r18
    4d90:	f2 0a       	sbc	r15, r18
    4d92:	f7 cf       	rjmp	.-18     	; 0x4d82 <EntladePins+0xfe>
    4d94:	11 50       	subi	r17, 0x01	; 1
// max. time of discharge in ms  (10000/20) == 10s
#define MAX_ENTLADE_ZEIT  (10000/20)
#if DebugOut == 99
  uart_putc('L');		//Debug
#endif
  for(lop_cnt=0;lop_cnt<10;lop_cnt++) {
    4d96:	09 f0       	breq	.+2      	; 0x4d9a <EntladePins+0x116>
    4d98:	81 cf       	rjmp	.-254    	; 0x4c9c <EntladePins+0x18>
     }
  } // end for lop_cnt
#if DebugOut == 99
  uart_putc('x');		//Debug
#endif
 }
    4d9a:	cd b7       	in	r28, 0x3d	; 61
    4d9c:	de b7       	in	r29, 0x3e	; 62
    4d9e:	ea e0       	ldi	r30, 0x0A	; 10
    4da0:	0c 94 41 3e 	jmp	0x7c82	; 0x7c82 <__epilogue_restores__+0x10>

00004da4 <Scale_C_with_vcc>:
  R_PORT = 0; 			// switch all resistor outputs to GND, no pull up
  return;
 } // end ReadCapacity()


void Scale_C_with_vcc(void) {
    4da4:	cf 92       	push	r12
    4da6:	df 92       	push	r13
    4da8:	ef 92       	push	r14
    4daa:	ff 92       	push	r15
    4dac:	cf 93       	push	r28
    4dae:	20 91 73 01 	lds	r18, 0x0173
    4db2:	30 91 74 01 	lds	r19, 0x0174
    4db6:	40 91 75 01 	lds	r20, 0x0175
    4dba:	50 91 76 01 	lds	r21, 0x0176
    4dbe:	c0 91 85 01 	lds	r28, 0x0185
   while (cap.cval > 100000) {
      cap.cval /= 10;
    4dc2:	8a e0       	ldi	r24, 0x0A	; 10
    4dc4:	c8 2e       	mov	r12, r24
    4dc6:	d1 2c       	mov	r13, r1
    4dc8:	e1 2c       	mov	r14, r1
    4dca:	f1 2c       	mov	r15, r1
    4dcc:	8c 2f       	mov	r24, r28
    4dce:	cf 5f       	subi	r28, 0xFF	; 255
  return;
 } // end ReadCapacity()


void Scale_C_with_vcc(void) {
   while (cap.cval > 100000) {
    4dd0:	21 3a       	cpi	r18, 0xA1	; 161
    4dd2:	96 e8       	ldi	r25, 0x86	; 134
    4dd4:	39 07       	cpc	r19, r25
    4dd6:	91 e0       	ldi	r25, 0x01	; 1
    4dd8:	49 07       	cpc	r20, r25
    4dda:	51 05       	cpc	r21, r1
    4ddc:	38 f0       	brcs	.+14     	; 0x4dec <Scale_C_with_vcc+0x48>
      cap.cval /= 10;
    4dde:	ca 01       	movw	r24, r20
    4de0:	b9 01       	movw	r22, r18
    4de2:	a7 01       	movw	r20, r14
    4de4:	96 01       	movw	r18, r12
    4de6:	0e 94 2f 3d 	call	0x7a5e	; 0x7a5e <__udivmodsi4>
    4dea:	f0 cf       	rjmp	.-32     	; 0x4dcc <Scale_C_with_vcc+0x28>
    4dec:	80 93 85 01 	sts	0x0185, r24
      cap.cpre ++;			// prevent overflow
   }
   cap.cval *= ADCconfig.U_AVCC;	// scale with measured voltage
    4df0:	a0 91 29 01 	lds	r26, 0x0129
    4df4:	b0 91 2a 01 	lds	r27, 0x012A
    4df8:	0e 94 88 3d 	call	0x7b10	; 0x7b10 <__muluhisi3>
   cap.cval /= U_VCC;			// Factors are computed for U_VCC
    4dfc:	28 e8       	ldi	r18, 0x88	; 136
    4dfe:	33 e1       	ldi	r19, 0x13	; 19
    4e00:	40 e0       	ldi	r20, 0x00	; 0
    4e02:	50 e0       	ldi	r21, 0x00	; 0
    4e04:	0e 94 2f 3d 	call	0x7a5e	; 0x7a5e <__udivmodsi4>
    4e08:	20 93 73 01 	sts	0x0173, r18
    4e0c:	30 93 74 01 	sts	0x0174, r19
    4e10:	40 93 75 01 	sts	0x0175, r20
    4e14:	50 93 76 01 	sts	0x0176, r21
}
    4e18:	cf 91       	pop	r28
    4e1a:	ff 90       	pop	r15
    4e1c:	ef 90       	pop	r14
    4e1e:	df 90       	pop	r13
    4e20:	cf 90       	pop	r12
    4e22:	08 95       	ret

00004e24 <ReadCapacity>:
#include <stdlib.h>
#include "Transistortester.h"


//=================================================================
void ReadCapacity(uint8_t HighPin, uint8_t LowPin) {
    4e24:	a4 e0       	ldi	r26, 0x04	; 4
    4e26:	b0 e0       	ldi	r27, 0x00	; 0
    4e28:	e8 e1       	ldi	r30, 0x18	; 24
    4e2a:	f7 e2       	ldi	r31, 0x27	; 39
    4e2c:	0c 94 22 3e 	jmp	0x7c44	; 0x7c44 <__prologue_saves__+0xa>
    4e30:	2f ef       	ldi	r18, 0xFF	; 255
    4e32:	26 0f       	add	r18, r22
     residual_voltage = ReadADC(HighPin);		// voltage before any load 
  }
#endif

#ifdef AUTO_CAL
  pin_combination = ((HighPin - TP_MIN) * 3) + LowPin - TP_MIN - 1;	// coded Pin combination for capacity zero offset
    4e34:	98 2f       	mov	r25, r24
    4e36:	99 0f       	add	r25, r25
    4e38:	98 0f       	add	r25, r24
    4e3a:	92 0f       	add	r25, r18
    4e3c:	90 93 4a 01 	sts	0x014A, r25
#endif

  HiPinR_L = pgm_read_byte(&PinRLRHADCtab[HighPin - TP_MIN]);	//R_L mask for HighPin R_L load
    4e40:	e8 2f       	mov	r30, r24
    4e42:	f0 e0       	ldi	r31, 0x00	; 0
    4e44:	eb 5a       	subi	r30, 0xAB	; 171
    4e46:	fd 4f       	sbci	r31, 0xFD	; 253
    4e48:	b4 90       	lpm	r11, Z
  LoPinR_L = pgm_read_byte(&PinRLRHADCtab[LowPin - TP_MIN]);	//R_L mask for LowPin R_L load
    4e4a:	26 2f       	mov	r18, r22
    4e4c:	30 e0       	ldi	r19, 0x00	; 0
    4e4e:	f9 01       	movw	r30, r18
    4e50:	eb 5a       	subi	r30, 0xAB	; 171
    4e52:	fd 4f       	sbci	r31, 0xFD	; 253
    4e54:	f4 90       	lpm	r15, Z
#if (((PIN_RL1 + 1) != PIN_RH1) || ((PIN_RL2 + 1) != PIN_RH2) || ((PIN_RL3 + 1) != PIN_RH3))
  HiPinR_H = pgm_read_byte((&PinRLRHADCtab[3])+HighPin-TP_MIN);	//R_H mask for HighPin R_H load
  LoADC = pgm_read_byte((&PinRLRHADCtab[6])+LowPin-TP_MIN) | TXD_MSK;
#else
  HiPinR_H = HiPinR_L + HiPinR_L;	//double for HighPin R_H load
  LoADC = pgm_read_byte((&PinRLRHADCtab[3])+LowPin-TP_MIN) | TXD_MSK;
    4e56:	f9 01       	movw	r30, r18
    4e58:	e8 5a       	subi	r30, 0xA8	; 168
    4e5a:	fd 4f       	sbci	r31, 0xFD	; 253
    4e5c:	04 91       	lpm	r16, Z
  lcd_testpin(LowPin);
  lcd_data('C');
  lcd_testpin(HighPin);
  lcd_space();
#endif
  if(PartFound == PART_RESISTOR) {
    4e5e:	90 91 13 01 	lds	r25, 0x0113
    4e62:	91 30       	cpi	r25, 0x01	; 1
    4e64:	09 f4       	brne	.+2      	; 0x4e68 <ReadCapacity+0x44>
    4e66:	b5 c2       	rjmp	.+1386   	; 0x53d2 <ReadCapacity+0x5ae>
     lcd_data('R');
     wait_about2s();	/* debug delay */
#endif
     return;	//We have found a resistor already 
  }
  for (ii=0;ii<NumOfDiodes;ii++) {
    4e68:	90 91 11 01 	lds	r25, 0x0111
    4e6c:	4f e8       	ldi	r20, 0x8F	; 143
    4e6e:	51 e0       	ldi	r21, 0x01	; 1
    4e70:	29 e8       	ldi	r18, 0x89	; 137
    4e72:	c2 2e       	mov	r12, r18
    4e74:	21 e0       	ldi	r18, 0x01	; 1
    4e76:	d2 2e       	mov	r13, r18
    4e78:	fa 01       	movw	r30, r20
    4e7a:	2e 2f       	mov	r18, r30
    4e7c:	24 1b       	sub	r18, r20
    4e7e:	29 17       	cp	r18, r25
    4e80:	b8 f4       	brcc	.+46     	; 0x4eb0 <ReadCapacity+0x8c>
     if ((diodes.Cathode[ii] == LowPin) && (diodes.Anode[ii] == HighPin) && (diodes.Voltage[ii] < 1500)) {
    4e82:	21 91       	ld	r18, Z+
    4e84:	26 13       	cpse	r18, r22
    4e86:	10 c0       	rjmp	.+32     	; 0x4ea8 <ReadCapacity+0x84>
    4e88:	9f 01       	movw	r18, r30
    4e8a:	27 50       	subi	r18, 0x07	; 7
    4e8c:	31 09       	sbc	r19, r1
    4e8e:	d9 01       	movw	r26, r18
    4e90:	2c 91       	ld	r18, X
    4e92:	28 13       	cpse	r18, r24
    4e94:	09 c0       	rjmp	.+18     	; 0x4ea8 <ReadCapacity+0x84>
    4e96:	d6 01       	movw	r26, r12
    4e98:	1c 96       	adiw	r26, 0x0c	; 12
    4e9a:	2d 91       	ld	r18, X+
    4e9c:	3c 91       	ld	r19, X
    4e9e:	1d 97       	sbiw	r26, 0x0d	; 13
    4ea0:	2c 3d       	cpi	r18, 0xDC	; 220
    4ea2:	35 40       	sbci	r19, 0x05	; 5
    4ea4:	08 f4       	brcc	.+2      	; 0x4ea8 <ReadCapacity+0x84>
    4ea6:	95 c2       	rjmp	.+1322   	; 0x53d2 <ReadCapacity+0x5ae>
    4ea8:	22 e0       	ldi	r18, 0x02	; 2
    4eaa:	c2 0e       	add	r12, r18
    4eac:	d1 1c       	adc	r13, r1
    4eae:	e5 cf       	rjmp	.-54     	; 0x4e7a <ReadCapacity+0x56>
    4eb0:	16 2f       	mov	r17, r22
    4eb2:	78 2e       	mov	r7, r24
#if (((PIN_RL1 + 1) != PIN_RH1) || ((PIN_RL2 + 1) != PIN_RH2) || ((PIN_RL3 + 1) != PIN_RH3))
  HiPinR_H = pgm_read_byte((&PinRLRHADCtab[3])+HighPin-TP_MIN);	//R_H mask for HighPin R_H load
  LoADC = pgm_read_byte((&PinRLRHADCtab[6])+LowPin-TP_MIN) | TXD_MSK;
#else
  HiPinR_H = HiPinR_L + HiPinR_L;	//double for HighPin R_H load
  LoADC = pgm_read_byte((&PinRLRHADCtab[3])+LowPin-TP_MIN) | TXD_MSK;
    4eb4:	08 60       	ori	r16, 0x08	; 8
     }
  }
  
#if FLASHEND > 0x1fff
  unsigned int vloss;	// lost voltage after load pulse in 0.1% 
  cap.esr = 0;				// set ESR of capacitor to zero
    4eb6:	10 92 80 01 	sts	0x0180, r1
    4eba:	10 92 7f 01 	sts	0x017F, r1
  vloss = 0;				// set lost voltage to zero
#endif
  cap.cpre = -15;			// mark for no cap
    4ebe:	81 ef       	ldi	r24, 0xF1	; 241
    4ec0:	80 93 85 01 	sts	0x0185, r24
  cap.cval = 0;				// set capacity value to zero
    4ec4:	10 92 73 01 	sts	0x0173, r1
    4ec8:	10 92 74 01 	sts	0x0174, r1
    4ecc:	10 92 75 01 	sts	0x0175, r1
    4ed0:	10 92 76 01 	sts	0x0176, r1
  EntladePins();			// discharge capacitor
    4ed4:	d7 de       	rcall	.-594    	; 0x4c84 <EntladePins>
    4ed6:	88 e0       	ldi	r24, 0x08	; 8
  ADC_PORT = TXD_VAL;			// switch ADC-Port to GND
    4ed8:	88 b9       	out	0x08, r24	; 8
    4eda:	07 b9       	out	0x07, r16	; 7
// The polarity of residual voltage of the capacitor depends on the measurement
// history. For the normal test cycle the residual voltage is negative
// at the HighPin. Because the ADC can not measure a negative Voltage,
// the LowPin voltage is shifted to 139mV with the R_L resistor.
// The voltage of the capacitor is build as difference between HighPin and LowPin voltage.
  ADC_DDR = LoADC;			// switch Low-Pin to output (GND)
    4edc:	f4 b8       	out	0x04, r15	; 4
  R_DDR = LoPinR_L;			// switch R_L Port of LoPin to VCC
    4ede:	f5 b8       	out	0x05, r15	; 5
  R_PORT = LoPinR_L;			// switch R_L Port of LoPin to VCC
    4ee0:	87 2d       	mov	r24, r7
  residual_voltage = ReadADC(HighPin) - ReadADC(LowPin); // voltage at HighPin before any load 
    4ee2:	0e 94 d3 09 	call	0x13a6	; 0x13a6 <ReadADC>
    4ee6:	6c 01       	movw	r12, r24
    4ee8:	81 2f       	mov	r24, r17
    4eea:	0e 94 d3 09 	call	0x13a6	; 0x13a6 <ReadADC>
    4eee:	c8 1a       	sub	r12, r24
    4ef0:	d9 0a       	sbc	r13, r25
    4ef2:	14 b8       	out	0x04, r1	; 4
  R_DDR = 0;				// switch all R_L ports to input
    4ef4:	10 92 4c 01 	sts	0x014C, r1
  cap_voltage1 = 0;			// preset to prevent compiler warning
#define MAX_LOAD_TIME 500
#define MIN_VOLTAGE 300
  for (ovcnt16=0;ovcnt16<MAX_LOAD_TIME;ovcnt16++) {
    4ef8:	10 92 4b 01 	sts	0x014B, r1
    4efc:	80 91 4b 01 	lds	r24, 0x014B
    4f00:	90 91 4c 01 	lds	r25, 0x014C
    4f04:	84 3f       	cpi	r24, 0xF4	; 244
    4f06:	91 40       	sbci	r25, 0x01	; 1
    4f08:	08 f0       	brcs	.+2      	; 0x4f0c <ReadCapacity+0xe8>
    4f0a:	af c0       	rjmp	.+350    	; 0x506a <ReadCapacity+0x246>
    4f0c:	b5 b8       	out	0x05, r11	; 5
     R_PORT = HiPinR_L;			//R_L to 1 (VCC) 
    4f0e:	b4 b8       	out	0x04, r11	; 4
     R_DDR = HiPinR_L;			//switch Pin to output, across R to GND or VCC
    4f10:	0e 94 83 09 	call	0x1306	; 0x1306 <wait10ms>
     wait10ms();			// wait exactly 10ms, do not sleep
    4f14:	14 b8       	out	0x04, r1	; 4
     R_DDR = 0;				// switch back to input
    4f16:	15 b8       	out	0x05, r1	; 5
     R_PORT = 0;			// no Pull up
    4f18:	0e 94 8a 09 	call	0x1314	; 0x1314 <wait500us>
     wait500us();			//wait a little time
    4f1c:	a8 95       	wdr
     wdt_reset();
    4f1e:	87 2d       	mov	r24, r7
        // apparently very small capacitance, if it charges so quickly
        goto messe_mit_rh;
     }
     cap_voltage1 -= residual_voltage; // voltage across capacitor
#else
     cap_voltage1 = ReadADC(HighPin) - residual_voltage; // voltage of capacitor
    4f20:	0e 94 d3 09 	call	0x13a6	; 0x13a6 <ReadADC>
    4f24:	7c 01       	movw	r14, r24
    4f26:	ec 18       	sub	r14, r12
    4f28:	fd 08       	sbc	r15, r13
    4f2a:	80 91 4b 01 	lds	r24, 0x014B
#endif
     if ((ovcnt16 > (MAX_LOAD_TIME/4)) && (cap_voltage1 < (MIN_VOLTAGE/4))) {
    4f2e:	90 91 4c 01 	lds	r25, 0x014C
    4f32:	8e 37       	cpi	r24, 0x7E	; 126
    4f34:	91 05       	cpc	r25, r1
    4f36:	28 f0       	brcs	.+10     	; 0x4f42 <ReadCapacity+0x11e>
    4f38:	7b e4       	ldi	r23, 0x4B	; 75
    4f3a:	e7 16       	cp	r14, r23
    4f3c:	f1 04       	cpc	r15, r1
    4f3e:	0c f4       	brge	.+2      	; 0x4f42 <ReadCapacity+0x11e>
    4f40:	94 c0       	rjmp	.+296    	; 0x506a <ReadCapacity+0x246>
    4f42:	8d e2       	ldi	r24, 0x2D	; 45
        // 300mV can not be reached well-timed 
        break;		// don't try to load any more
     }
     // probably 100mF can be charged well-timed 
     if (cap_voltage1 > MIN_VOLTAGE) {
    4f44:	e8 16       	cp	r14, r24
    4f46:	81 e0       	ldi	r24, 0x01	; 1
    4f48:	f8 06       	cpc	r15, r24
    4f4a:	54 f4       	brge	.+20     	; 0x4f60 <ReadCapacity+0x13c>
    4f4c:	80 91 4b 01 	lds	r24, 0x014B
  residual_voltage = ReadADC(HighPin) - ReadADC(LowPin); // voltage at HighPin before any load 
  R_DDR = 0;				// switch all R_L ports to input
  cap_voltage1 = 0;			// preset to prevent compiler warning
#define MAX_LOAD_TIME 500
#define MIN_VOLTAGE 300
  for (ovcnt16=0;ovcnt16<MAX_LOAD_TIME;ovcnt16++) {
    4f50:	90 91 4c 01 	lds	r25, 0x014C
    4f54:	01 96       	adiw	r24, 0x01	; 1
    4f56:	90 93 4c 01 	sts	0x014C, r25
    4f5a:	80 93 4b 01 	sts	0x014B, r24
    4f5e:	ce cf       	rjmp	.-100    	; 0x4efc <ReadCapacity+0xd8>
    4f60:	c7 01       	movw	r24, r14
    4f62:	20 91 4b 01 	lds	r18, 0x014B
#endif
//     if (NumOfDiodes != 0) goto messe_mit_rh; /* ****************************** */
     goto keinC;		// was never charged enough, >100mF or shorted
  }
  //voltage is rised properly and keeps the voltage enough
  if ((ovcnt16 == 0 ) && (cap_voltage1 > 1300)) {
    4f66:	30 91 4c 01 	lds	r19, 0x014C
    4f6a:	23 2b       	or	r18, r19
    4f6c:	09 f0       	breq	.+2      	; 0x4f70 <ReadCapacity+0x14c>
    4f6e:	a3 c1       	rjmp	.+838    	; 0x52b6 <ReadCapacity+0x492>
    4f70:	b5 e1       	ldi	r27, 0x15	; 21
    4f72:	eb 16       	cp	r14, r27
    4f74:	b5 e0       	ldi	r27, 0x05	; 5
    4f76:	fb 06       	cpc	r15, r27
    4f78:	0c f4       	brge	.+2      	; 0x4f7c <ReadCapacity+0x158>
    4f7a:	9d c1       	rjmp	.+826    	; 0x52b6 <ReadCapacity+0x492>
    4f7c:	83 de       	rcall	.-762    	; 0x4c84 <EntladePins>

//==================================================================================
// Measurement of little capacity values
messe_mit_rh:
  //little capacity value, about  < 50 F
  EntladePins();			// discharge capacitor
    4f7e:	15 b8       	out	0x05, r1	; 5
    4f80:	8f e0       	ldi	r24, 0x0F	; 15
  //measure with the R_H (470kOhm) resistor 
  R_PORT = 0;		// R_DDR ist HiPinR_L
    4f82:	87 b9       	out	0x07, r24	; 7
  ADC_DDR = (1<<TP1) | (1<<TP2) | (1<<TP3) | TXD_MSK;	//switch all Pins to output
    4f84:	88 e0       	ldi	r24, 0x08	; 8
    4f86:	88 b9       	out	0x08, r24	; 8
  ADC_PORT = TXD_VAL;		//switch all ADC Pins to GND
    4f88:	fb 2c       	mov	r15, r11
    4f8a:	ff 0c       	add	r15, r15
  R_DDR = HiPinR_H;   		// switch R_H resistor port for HighPin to output (GND)
    4f8c:	f4 b8       	out	0x04, r15	; 4
    4f8e:	80 e4       	ldi	r24, 0x40	; 64
    4f90:	80 93 7b 00 	sts	0x007B, r24
// setup Analog Comparator
  ADC_COMP_CONTROL = (1<<ACME);			//enable Analog Comparator Multiplexer
    4f94:	84 e5       	ldi	r24, 0x54	; 84
    4f96:	80 bf       	out	0x30, r24	; 48
  ACSR =  (1<<ACBG) | (1<<ACI)  | (1<<ACIC);	// enable, 1.3V, no Interrupt, Connect to Timer1 
    4f98:	87 2d       	mov	r24, r7
    4f9a:	80 64       	ori	r24, 0x40	; 64
  ADMUX = (1<<REFS0) | HighPin;			// switch Mux to High-Pin
    4f9c:	80 93 7c 00 	sts	0x007C, r24
    4fa0:	87 e1       	ldi	r24, 0x17	; 23
    4fa2:	80 93 7a 00 	sts	0x007A, r24
  ADCSRA = (1<<ADIF) | AUTO_CLOCK_DIV; //disable ADC
    4fa6:	0e 94 8d 09 	call	0x131a	; 0x131a <wait200us>
  wait200us();			//wait for bandgap to start up
    4faa:	10 92 4c 01 	sts	0x014C, r1

// setup Counter1
  ovcnt16 = 0;
    4fae:	10 92 4b 01 	sts	0x014B, r1
    4fb2:	10 92 80 00 	sts	0x0080, r1
  TCCR1A = 0;			// set Counter1 to normal Mode
    4fb6:	10 92 85 00 	sts	0x0085, r1
  TCNT1 = 0;			//set Counter to 0
    4fba:	10 92 84 00 	sts	0x0084, r1
    4fbe:	87 e2       	ldi	r24, 0x27	; 39
    4fc0:	86 bb       	out	0x16, r24	; 22
  TI1_INT_FLAGS = (1<<ICF1) | (1<<OCF1B) | (1<<OCF1A) | (1<<TOV1);	// clear interrupt flags
    4fc2:	81 e2       	ldi	r24, 0x21	; 33
    4fc4:	80 93 6f 00 	sts	0x006F, r24
#ifndef INHIBIT_SLEEP_MODE
  TIMSK1 = (1<<TOIE1) | (1<<ICIE1);	// enable Timer overflow interrupt and input capture interrupt
    4fc8:	81 e0       	ldi	r24, 0x01	; 1
    4fca:	80 93 70 01 	sts	0x0170, r24
  unfinished = 1;
    4fce:	f5 b8       	out	0x05, r15	; 5
    4fd0:	90 91 13 01 	lds	r25, 0x0113
#endif
  R_PORT = HiPinR_H;           	// switch R_H resistor port for HighPin to VCC
  if(PartFound == PART_FET) {
    4fd4:	80 93 81 00 	sts	0x0081, r24
     // charge capacitor with R_H resistor
     TCCR1B = (0<<ICNC1) | (1<<CS10);	//Start counter 1MHz or 8MHz without Noise Canceler
    4fd8:	95 30       	cpi	r25, 0x05	; 5
    4fda:	09 f0       	breq	.+2      	; 0x4fde <ReadCapacity+0x1ba>
#ifndef INHIBIT_SLEEP_MODE
  TIMSK1 = (1<<TOIE1) | (1<<ICIE1);	// enable Timer overflow interrupt and input capture interrupt
  unfinished = 1;
#endif
  R_PORT = HiPinR_H;           	// switch R_H resistor port for HighPin to VCC
  if(PartFound == PART_FET) {
    4fdc:	4c c0       	rjmp	.+152    	; 0x5076 <ReadCapacity+0x252>
    4fde:	81 e0       	ldi	r24, 0x01	; 1
    4fe0:	90 e0       	ldi	r25, 0x00	; 0
     // charge capacitor with R_H resistor
     TCCR1B = (0<<ICNC1) | (1<<CS10);	//Start counter 1MHz or 8MHz without Noise Canceler
     ADC_DDR = (((1<<TP1) | (1<<TP2) | (1<<TP3) | TXD_MSK) & ~(1<<HighPin));	// release only HighPin ADC port
    4fe2:	07 2c       	mov	r0, r7
    4fe4:	01 c0       	rjmp	.+2      	; 0x4fe8 <ReadCapacity+0x1c4>
    4fe6:	88 0f       	add	r24, r24
    4fe8:	0a 94       	dec	r0
    4fea:	ea f7       	brpl	.-6      	; 0x4fe6 <ReadCapacity+0x1c2>
    4fec:	80 95       	com	r24
    4fee:	8f 70       	andi	r24, 0x0F	; 15
    4ff0:	87 b9       	out	0x07, r24	; 7
    4ff2:	f8 94       	cli
    4ff4:	83 b7       	in	r24, 0x33	; 51
     // this OV was not counted, but was before the Input Capture
     TI1_INT_FLAGS = (1<<TOV1);		// Reset OV Flag
     ovcnt16++;
  }
#else
  cli();		// disable interrupts to prevent wakeup Interrupts before sleeping
    4ff6:	81 7f       	andi	r24, 0xF1	; 241
  set_sleep_mode(SLEEP_MODE_IDLE);
    4ff8:	83 bf       	out	0x33, r24	; 51
    4ffa:	80 91 70 01 	lds	r24, 0x0170
  while(unfinished) {
    4ffe:	88 23       	and	r24, r24
    5000:	89 f0       	breq	.+34     	; 0x5024 <ReadCapacity+0x200>
    5002:	83 b7       	in	r24, 0x33	; 51
    5004:	81 60       	ori	r24, 0x01	; 1
    sleep_enable();
    5006:	83 bf       	out	0x33, r24	; 51
    5008:	78 94       	sei
    500a:	88 95       	sleep
    sei();		// enable interrupts after next instruction
    500c:	83 b7       	in	r24, 0x33	; 51
    sleep_cpu();	// only enable interrupts during sleeping
    500e:	8e 7f       	andi	r24, 0xFE	; 254
    sleep_disable();
    5010:	83 bf       	out	0x33, r24	; 51
    5012:	f8 94       	cli
    5014:	a8 95       	wdr
    cli();		// disable interrupts again
    5016:	80 91 4b 01 	lds	r24, 0x014B
    wdt_reset();	// reset watch dog during waiting
    if(ovcnt16 == (F_CPU/5000)) {
    501a:	90 91 4c 01 	lds	r25, 0x014C
    501e:	80 38       	cpi	r24, 0x80	; 128
    5020:	9c 40       	sbci	r25, 0x0C	; 12
    5022:	59 f7       	brne	.-42     	; 0x4ffa <ReadCapacity+0x1d6>
    5024:	78 94       	sei
    5026:	10 92 81 00 	sts	0x0081, r1
       break; 		//Timeout for Charging, above 12 s
    }
  }
  sei();		// enable interrupts again
  TCCR1B = (0<<ICNC1) | (0<<ICES1) | (0<<CS10);  // stop counter
    502a:	e0 90 86 00 	lds	r14, 0x0086
  tmpint = ICR1;		// get previous Input Capture Counter flag
    502e:	f0 90 87 00 	lds	r15, 0x0087
    5032:	10 92 6f 00 	sts	0x006F, r1
  TIMSK1 = (0<<TOIE1) | (0<<ICIE1);	// disable Timer overflow interrupt and input capture interrupt
    5036:	87 e9       	ldi	r24, 0x97	; 151
    5038:	80 93 7a 00 	sts	0x007A, r24
    u2lcd(tmpint);
  }
#endif

//############################################################
  ADCSRA = (1<<ADEN) | (1<<ADIF) | AUTO_CLOCK_DIV; //enable ADC
    503c:	14 b8       	out	0x04, r1	; 4
    503e:	15 b8       	out	0x05, r1	; 5
  R_DDR = 0;			// switch R_H resistor port for input
    5040:	87 2d       	mov	r24, r7
  R_PORT = 0;			// switch R_H resistor port pull up for HighPin off
    5042:	0e 94 d3 09 	call	0x13a6	; 0x13a6 <ReadADC>
  load_diff = ReadADC(HighPin) + REF_C_KORR - ref_mv;	// build difference of capacitor voltage to Reference Voltage
    5046:	20 91 2d 01 	lds	r18, 0x012D
    504a:	30 91 2e 01 	lds	r19, 0x012E
    504e:	82 1b       	sub	r24, r18
    5050:	93 0b       	sbc	r25, r19
    5052:	0c 96       	adiw	r24, 0x0c	; 12
    5054:	90 93 88 01 	sts	0x0188, r25
    5058:	80 93 87 01 	sts	0x0187, r24
    505c:	80 91 4b 01 	lds	r24, 0x014B
//############################################################
  if (ovcnt16 >= (F_CPU/10000)) {
    5060:	90 91 4c 01 	lds	r25, 0x014C
    5064:	80 34       	cpi	r24, 0x40	; 64
    5066:	96 40       	sbci	r25, 0x06	; 6
    5068:	40 f0       	brcs	.+16     	; 0x507a <ReadCapacity+0x256>
    506a:	88 e0       	ldi	r24, 0x08	; 8
    506c:	87 b9       	out	0x07, r24	; 7
keinC:
  // discharge capacitor again
//  EntladePins();		// discharge capacitors
  //ready
  // switch all ports to input
  ADC_DDR =  TXD_MSK;		// switch all ADC ports to input
    506e:	88 b9       	out	0x08, r24	; 8
    5070:	14 b8       	out	0x04, r1	; 4
  ADC_PORT = TXD_VAL;		// switch all ADC outputs to GND, no pull up
    5072:	15 b8       	out	0x05, r1	; 5
  R_DDR = 0;			// switch all resistor ports to input
    5074:	ae c1       	rjmp	.+860    	; 0x53d2 <ReadCapacity+0x5ae>
  R_PORT = 0; 			// switch all resistor outputs to GND, no pull up
    5076:	07 b9       	out	0x07, r16	; 7
  return;
    5078:	bc cf       	rjmp	.-136    	; 0x4ff2 <ReadCapacity+0x1ce>
     // charge capacitor with R_H resistor
     TCCR1B = (0<<ICNC1) | (1<<CS10);	//Start counter 1MHz or 8MHz without Noise Canceler
     ADC_DDR = (((1<<TP1) | (1<<TP2) | (1<<TP3) | TXD_MSK) & ~(1<<HighPin));	// release only HighPin ADC port
  } else {
     TCCR1B =  (0<<ICNC1) | (1<<CS10);	//start counter 1MHz or 8MHz without Noise Canceler
     ADC_DDR = LoADC;		// stay LoADC Pin switched to GND, charge capacitor with R_H slowly
    507a:	80 91 4b 01 	lds	r24, 0x014B
     wait_about1s();	/* debug delay */
#endif
     goto keinC;	// no normal end
  }
//  cap.cval_uncorrected = CombineII2Long(ovcnt16, tmpint);
  cap.cval_uncorrected.w[1] = ovcnt16;
    507e:	90 91 4c 01 	lds	r25, 0x014C
    5082:	90 93 7e 01 	sts	0x017E, r25
    5086:	80 93 7d 01 	sts	0x017D, r24
    508a:	f0 92 7c 01 	sts	0x017C, r15
  cap.cval_uncorrected.w[0] = tmpint;
    508e:	e0 92 7b 01 	sts	0x017B, r14
    5092:	84 ef       	ldi	r24, 0xF4	; 244
    5094:	80 93 85 01 	sts	0x0185, r24

  cap.cpre = -12;			// cap.cval unit is pF 
    5098:	80 91 4b 01 	lds	r24, 0x014B
  if (ovcnt16 > 65) {
    509c:	90 91 4c 01 	lds	r25, 0x014C
    50a0:	82 34       	cpi	r24, 0x42	; 66
    50a2:	91 05       	cpc	r25, r1
    50a4:	c8 f0       	brcs	.+50     	; 0x50d8 <ReadCapacity+0x2b4>
    50a6:	60 91 7b 01 	lds	r22, 0x017B
     cap.cval_uncorrected.dw /= 100;	// switch to next unit
    50aa:	70 91 7c 01 	lds	r23, 0x017C
    50ae:	80 91 7d 01 	lds	r24, 0x017D
    50b2:	90 91 7e 01 	lds	r25, 0x017E
    50b6:	24 e6       	ldi	r18, 0x64	; 100
    50b8:	30 e0       	ldi	r19, 0x00	; 0
    50ba:	40 e0       	ldi	r20, 0x00	; 0
    50bc:	50 e0       	ldi	r21, 0x00	; 0
    50be:	0e 94 2f 3d 	call	0x7a5e	; 0x7a5e <__udivmodsi4>
    50c2:	20 93 7b 01 	sts	0x017B, r18
    50c6:	30 93 7c 01 	sts	0x017C, r19
    50ca:	40 93 7d 01 	sts	0x017D, r20
    50ce:	50 93 7e 01 	sts	0x017E, r21
    50d2:	86 ef       	ldi	r24, 0xF6	; 246
    50d4:	80 93 85 01 	sts	0x0185, r24
     cap.cpre += 2;			// set unit, prevent overflow
    50d8:	a0 91 71 01 	lds	r26, 0x0171
  }
  cap.cval_uncorrected.dw *= RHmultip;		// 708
    50dc:	b0 91 72 01 	lds	r27, 0x0172
    50e0:	20 91 7b 01 	lds	r18, 0x017B
    50e4:	30 91 7c 01 	lds	r19, 0x017C
    50e8:	40 91 7d 01 	lds	r20, 0x017D
    50ec:	50 91 7e 01 	lds	r21, 0x017E
    50f0:	0e 94 88 3d 	call	0x7b10	; 0x7b10 <__muluhisi3>
    50f4:	20 e4       	ldi	r18, 0x40	; 64
    50f6:	36 e0       	ldi	r19, 0x06	; 6
  cap.cval_uncorrected.dw /= (F_CPU / 10000);	// divide by 100 (@ 1MHz clock), 800 (@ 8MHz clock)
    50f8:	40 e0       	ldi	r20, 0x00	; 0
    50fa:	50 e0       	ldi	r21, 0x00	; 0
    50fc:	0e 94 2f 3d 	call	0x7a5e	; 0x7a5e <__udivmodsi4>
    5100:	20 93 7b 01 	sts	0x017B, r18
    5104:	30 93 7c 01 	sts	0x017C, r19
    5108:	40 93 7d 01 	sts	0x017D, r20
    510c:	50 93 7e 01 	sts	0x017E, r21
    5110:	20 93 73 01 	sts	0x0173, r18
  cap.cval = cap.cval_uncorrected.dw;		// set the corrected cap.cval
    5114:	30 93 74 01 	sts	0x0174, r19
    5118:	40 93 75 01 	sts	0x0175, r20
    511c:	50 93 76 01 	sts	0x0176, r21
    5120:	41 de       	rcall	.-894    	; 0x4da4 <Scale_C_with_vcc>
    5122:	80 91 85 01 	lds	r24, 0x0185
  Scale_C_with_vcc();
    5126:	84 3f       	cpi	r24, 0xF4	; 244
  if (cap.cpre == -12) {
    5128:	09 f0       	breq	.+2      	; 0x512c <ReadCapacity+0x308>
    512a:	70 c0       	rjmp	.+224    	; 0x520c <ReadCapacity+0x3e8>
    512c:	c0 90 73 01 	lds	r12, 0x0173
    5130:	d0 90 74 01 	lds	r13, 0x0174
#if COMP_SLEW1 > COMP_SLEW2
     if (cap.cval < COMP_SLEW1) {
    5134:	e0 90 75 01 	lds	r14, 0x0175
    5138:	f0 90 76 01 	lds	r15, 0x0176
    513c:	20 ea       	ldi	r18, 0xA0	; 160
    513e:	c2 16       	cp	r12, r18
    5140:	2f e0       	ldi	r18, 0x0F	; 15
    5142:	d2 06       	cpc	r13, r18
    5144:	e1 04       	cpc	r14, r1
    5146:	f1 04       	cpc	r15, r1
    5148:	c0 f4       	brcc	.+48     	; 0x517a <ReadCapacity+0x356>
    514a:	a7 01       	movw	r20, r14
    514c:	96 01       	movw	r18, r12
    514e:	2c 54       	subi	r18, 0x4C	; 76
        // add slew rate dependent offset
        cap.cval += (COMP_SLEW1 / (cap.cval+COMP_SLEW2 ));
    5150:	3f 4f       	sbci	r19, 0xFF	; 255
    5152:	4f 4f       	sbci	r20, 0xFF	; 255
    5154:	5f 4f       	sbci	r21, 0xFF	; 255
    5156:	60 ea       	ldi	r22, 0xA0	; 160
    5158:	7f e0       	ldi	r23, 0x0F	; 15
    515a:	80 e0       	ldi	r24, 0x00	; 0
    515c:	90 e0       	ldi	r25, 0x00	; 0
    515e:	0e 94 2f 3d 	call	0x7a5e	; 0x7a5e <__udivmodsi4>
    5162:	c2 0e       	add	r12, r18
    5164:	d3 1e       	adc	r13, r19
    5166:	e4 1e       	adc	r14, r20
    5168:	f5 1e       	adc	r15, r21
    516a:	c0 92 73 01 	sts	0x0173, r12
    516e:	d0 92 74 01 	sts	0x0174, r13
    5172:	e0 92 75 01 	sts	0x0175, r14
    5176:	f0 92 76 01 	sts	0x0176, r15
    517a:	c0 90 73 01 	lds	r12, 0x0173
    517e:	d0 90 74 01 	lds	r13, 0x0174
     }
#endif
#ifdef SamplingADC
     // store as reference for inductance measurement
     // note that we store this before subtracting cap_null, since for inductance measurement that cap. also contributes
     if ( cap.cval < 65536) lc_cpartmp=cap.cval; /* prevent wrong value */
    5182:	e0 90 75 01 	lds	r14, 0x0175
    5186:	f0 90 76 01 	lds	r15, 0x0176
    518a:	c1 14       	cp	r12, r1
    518c:	d1 04       	cpc	r13, r1
    518e:	71 e0       	ldi	r23, 0x01	; 1
    5190:	e7 06       	cpc	r14, r23
    5192:	f1 04       	cpc	r15, r1
    5194:	28 f4       	brcc	.+10     	; 0x51a0 <ReadCapacity+0x37c>
    5196:	d0 92 b7 01 	sts	0x01B7, r13
    519a:	c0 92 b6 01 	sts	0x01B6, r12
    519e:	06 c0       	rjmp	.+12     	; 0x51ac <ReadCapacity+0x388>
    51a0:	81 e0       	ldi	r24, 0x01	; 1
    51a2:	90 e0       	ldi	r25, 0x00	; 0
    51a4:	90 93 b7 01 	sts	0x01B7, r25
     else                   lc_cpartmp = 1;	/* set to 1pF, if too big */
    51a8:	80 93 b6 01 	sts	0x01B6, r24
    51ac:	80 91 4a 01 	lds	r24, 0x014A
    51b0:	90 e0       	ldi	r25, 0x00	; 0
#endif /* SamplingADC */
#ifdef AUTO_CAL
     // auto calibration mode, cap_null can be updated in selftest section
     tmpint = eeprom_read_byte(&c_zero_tab[pin_combination]);	// read zero offset
    51b2:	86 59       	subi	r24, 0x96	; 150
    51b4:	9c 4f       	sbci	r25, 0xFC	; 252
    51b6:	0e 94 b0 3e 	call	0x7d60	; 0x7d60 <eeprom_read_byte>
    51ba:	90 e0       	ldi	r25, 0x00	; 0
    51bc:	a0 e0       	ldi	r26, 0x00	; 0
    51be:	b0 e0       	ldi	r27, 0x00	; 0
     if (cap.cval > tmpint) {
    51c0:	8c 15       	cp	r24, r12
    51c2:	9d 05       	cpc	r25, r13
    51c4:	ae 05       	cpc	r26, r14
    51c6:	bf 05       	cpc	r27, r15
    51c8:	68 f4       	brcc	.+26     	; 0x51e4 <ReadCapacity+0x3c0>
    51ca:	c8 1a       	sub	r12, r24
    51cc:	d9 0a       	sbc	r13, r25
    51ce:	ea 0a       	sbc	r14, r26
         cap.cval -= tmpint;		//subtract zero offset (pF)
    51d0:	fb 0a       	sbc	r15, r27
    51d2:	c0 92 73 01 	sts	0x0173, r12
    51d6:	d0 92 74 01 	sts	0x0174, r13
    51da:	e0 92 75 01 	sts	0x0175, r14
    51de:	f0 92 76 01 	sts	0x0176, r15
    51e2:	14 c0       	rjmp	.+40     	; 0x520c <ReadCapacity+0x3e8>
    51e4:	24 e1       	ldi	r18, 0x14	; 20
    51e6:	c2 0e       	add	r12, r18
    51e8:	d1 1c       	adc	r13, r1
     } else {
 #if FLASHEND > 0x3fff
       if ((cap.cval+C_LIMIT_TO_UNCALIBRATED) < tmpint) {
    51ea:	e1 1c       	adc	r14, r1
    51ec:	f1 1c       	adc	r15, r1
    51ee:	c8 16       	cp	r12, r24
    51f0:	d9 06       	cpc	r13, r25
    51f2:	ea 06       	cpc	r14, r26
    51f4:	fb 06       	cpc	r15, r27
    51f6:	10 f4       	brcc	.+4      	; 0x51fc <ReadCapacity+0x3d8>
    51f8:	0e 94 4b 16 	call	0x2c96	; 0x2c96 <mark_as_uncalibrated>
    51fc:	10 92 73 01 	sts	0x0173, r1
         mark_as_uncalibrated();	// set in EEprom to uncalibrated
    5200:	10 92 74 01 	sts	0x0174, r1
         lcd_testpin(HighPin);
         lcd_space();
  #endif
       }
 #endif
         cap.cval = 0;			//unsigned long may not reach negativ value
    5204:	10 92 75 01 	sts	0x0175, r1
    5208:	10 92 76 01 	sts	0x0176, r1
    520c:	b4 b8       	out	0x04, r11	; 4
    520e:	80 91 73 01 	lds	r24, 0x0173
  lcd_testpin(HighPin);
  lcd_space();
  DisplayValue(cap.cval,cap.cpre,'F',4);
  wait_about3s();	/* debug delay */
#endif
  R_DDR = HiPinR_L; 		//switch R_L for High-Pin to GND
    5212:	90 91 74 01 	lds	r25, 0x0174
#if F_CPU < 2000001
   if(cap.cval < 50)
#else 
   if(cap.cval < 25)
    5216:	a0 91 75 01 	lds	r26, 0x0175
    521a:	b0 91 76 01 	lds	r27, 0x0176
    521e:	49 97       	sbiw	r24, 0x19	; 25
    5220:	a1 05       	cpc	r26, r1
    5222:	b1 05       	cpc	r27, r1
    5224:	08 f4       	brcc	.+2      	; 0x5228 <ReadCapacity+0x404>
    5226:	21 cf       	rjmp	.-446    	; 0x506a <ReadCapacity+0x246>
    5228:	c1 2c       	mov	r12, r1
    522a:	d1 2c       	mov	r13, r1
    522c:	80 91 11 01 	lds	r24, 0x0111
  }
  
#if FLASHEND > 0x1fff
  unsigned int vloss;	// lost voltage after load pulse in 0.1% 
  cap.esr = 0;				// set ESR of capacitor to zero
  vloss = 0;				// set lost voltage to zero
    5230:	88 23       	and	r24, r24
#endif
      goto keinC;	//capacity to low, < 50pF @1MHz (25pF @8MHz)
   }
   // end low capacity 
checkDiodes:
   if((NumOfDiodes > 0)  && (PartFound != PART_FET)) {
    5232:	29 f0       	breq	.+10     	; 0x523e <ReadCapacity+0x41a>
    5234:	80 91 13 01 	lds	r24, 0x0113
    5238:	85 30       	cpi	r24, 0x05	; 5
    523a:	09 f0       	breq	.+2      	; 0x523e <ReadCapacity+0x41a>
    523c:	16 cf       	rjmp	.-468    	; 0x506a <ReadCapacity+0x246>
    523e:	88 e0       	ldi	r24, 0x08	; 8
    5240:	80 93 13 01 	sts	0x0113, r24
      wait_about1s();	/* debug delay */
#endif
      // nearly sure, that there is one or more diodes in reverse direction,
      // which would be wrongly detected as capacitor 
   } else {
      PartFound = PART_CAPACITOR;	//capacitor is found
    5244:	80 91 85 01 	lds	r24, 0x0185
    5248:	90 91 86 01 	lds	r25, 0x0186
      if ((cap.cpre > cap.cpre_max) || ((cap.cpre == cap.cpre_max) && (cap.cval > cap.cval_max))) {
    524c:	98 17       	cp	r25, r24
    524e:	c4 f0       	brlt	.+48     	; 0x5280 <ReadCapacity+0x45c>
    5250:	89 13       	cpse	r24, r25
    5252:	0b cf       	rjmp	.-490    	; 0x506a <ReadCapacity+0x246>
    5254:	80 90 73 01 	lds	r8, 0x0173
    5258:	90 90 74 01 	lds	r9, 0x0174
    525c:	a0 90 75 01 	lds	r10, 0x0175
    5260:	b0 90 76 01 	lds	r11, 0x0176
    5264:	40 91 77 01 	lds	r20, 0x0177
    5268:	50 91 78 01 	lds	r21, 0x0178
    526c:	60 91 79 01 	lds	r22, 0x0179
    5270:	70 91 7a 01 	lds	r23, 0x017A
    5274:	48 15       	cp	r20, r8
    5276:	59 05       	cpc	r21, r9
    5278:	6a 05       	cpc	r22, r10
    527a:	7b 05       	cpc	r23, r11
    527c:	08 f0       	brcs	.+2      	; 0x5280 <ReadCapacity+0x45c>
    527e:	f5 ce       	rjmp	.-534    	; 0x506a <ReadCapacity+0x246>
    5280:	40 91 73 01 	lds	r20, 0x0173
    5284:	50 91 74 01 	lds	r21, 0x0174
         // we have found a greater one, overwrite the old values
         cap.cval_max = cap.cval;
    5288:	60 91 75 01 	lds	r22, 0x0175
    528c:	70 91 76 01 	lds	r23, 0x0176
    5290:	40 93 77 01 	sts	0x0177, r20
    5294:	50 93 78 01 	sts	0x0178, r21
    5298:	60 93 79 01 	sts	0x0179, r22
    529c:	70 93 7a 01 	sts	0x017A, r23
    52a0:	80 93 86 01 	sts	0x0186, r24
    52a4:	d0 92 82 01 	sts	0x0182, r13
         cap.cpre_max = cap.cpre;
    52a8:	c0 92 81 01 	sts	0x0181, r12
#if FLASHEND > 0x1fff
         cap.v_loss = vloss;		// lost voltage in 0.01%
    52ac:	10 93 83 01 	sts	0x0183, r17
    52b0:	70 92 84 01 	sts	0x0184, r7
#endif
         cap.ca = LowPin;		// save LowPin
    52b4:	da ce       	rjmp	.-588    	; 0x506a <ReadCapacity+0x246>
         cap.cb = HighPin;		// save HighPin
    52b6:	a1 2c       	mov	r10, r1
    52b8:	b1 2c       	mov	r11, r1
    52ba:	20 91 4b 01 	lds	r18, 0x014B
     lcd_data('R');
     wait_about2s();	/* debug delay */
#endif
     return;	//We have found a resistor already 
  }
  for (ii=0;ii<NumOfDiodes;ii++) {
    52be:	30 91 4c 01 	lds	r19, 0x014C
  cap.cval_uncorrected.dw = ovcnt16 + 1;
  cap.cval_uncorrected.dw *= GetRLmultip(cap_voltage1);		// get factor to convert time to capacity from table
#else
  // wait the half the time which was required for loading
  cap_voltage2 = cap_voltage1;			// preset to prevent compiler warning
  for (tmpint=0;tmpint<=ovcnt16;tmpint++) {
    52c2:	2a 15       	cp	r18, r10
    52c4:	3b 05       	cpc	r19, r11
    52c6:	60 f0       	brcs	.+24     	; 0x52e0 <ReadCapacity+0x4bc>
    52c8:	0e 94 84 09 	call	0x1308	; 0x1308 <wait5ms>
    52cc:	87 2d       	mov	r24, r7
     wait5ms();
    52ce:	0e 94 d3 09 	call	0x13a6	; 0x13a6 <ReadADC>
     cap_voltage2 = ReadADC(HighPin) - residual_voltage;	// read voltage again, is discharged only a little bit ?
    52d2:	8c 19       	sub	r24, r12
    52d4:	9d 09       	sbc	r25, r13
    52d6:	a8 95       	wdr
    52d8:	2f ef       	ldi	r18, 0xFF	; 255
    52da:	a2 1a       	sub	r10, r18
     wdt_reset();
    52dc:	b2 0a       	sbc	r11, r18
  cap.cval_uncorrected.dw = ovcnt16 + 1;
  cap.cval_uncorrected.dw *= GetRLmultip(cap_voltage1);		// get factor to convert time to capacity from table
#else
  // wait the half the time which was required for loading
  cap_voltage2 = cap_voltage1;			// preset to prevent compiler warning
  for (tmpint=0;tmpint<=ovcnt16;tmpint++) {
    52de:	ed cf       	rjmp	.-38     	; 0x52ba <ReadCapacity+0x496>
    52e0:	57 01       	movw	r10, r14
    52e2:	a8 1a       	sub	r10, r24
    52e4:	b9 0a       	sbc	r11, r25
     wait5ms();
     cap_voltage2 = ReadADC(HighPin) - residual_voltage;	// read voltage again, is discharged only a little bit ?
     wdt_reset();
  }
     cap_voltage2 = cap_voltage1 - cap_voltage2; 	// lost voltage during load time wait
    52e6:	1a 14       	cp	r1, r10
    52e8:	1b 04       	cpc	r1, r11
    52ea:	9c f4       	brge	.+38     	; 0x5312 <ReadCapacity+0x4ee>
#if FLASHEND > 0x1fff
  // compute equivalent parallel resistance from voltage drop
  if (cap_voltage2 > 0) {
    52ec:	79 ec       	ldi	r23, 0xC9	; 201
    52ee:	a7 16       	cp	r10, r23
    52f0:	b1 04       	cpc	r11, r1
     // there is any voltage drop !
     // cap_voltage1 is the loaded voltage.
     vloss = (unsigned long)(cap_voltage2 * 1000UL) / cap_voltage1;
  }
#endif
  if (cap_voltage2 > 200) {
    52f2:	0c f0       	brlt	.+2      	; 0x52f6 <ReadCapacity+0x4d2>
    52f4:	ba ce       	rjmp	.-652    	; 0x506a <ReadCapacity+0x246>
    52f6:	28 ee       	ldi	r18, 0xE8	; 232
    52f8:	33 e0       	ldi	r19, 0x03	; 3
    52fa:	d5 01       	movw	r26, r10
#if FLASHEND > 0x1fff
  // compute equivalent parallel resistance from voltage drop
  if (cap_voltage2 > 0) {
     // there is any voltage drop !
     // cap_voltage1 is the loaded voltage.
     vloss = (unsigned long)(cap_voltage2 * 1000UL) / cap_voltage1;
    52fc:	0e 94 82 3d 	call	0x7b04	; 0x7b04 <__usmulhisi3>
    5300:	97 01       	movw	r18, r14
    5302:	0f 2c       	mov	r0, r15
    5304:	00 0c       	add	r0, r0
    5306:	44 0b       	sbc	r20, r20
    5308:	55 0b       	sbc	r21, r21
    530a:	0e 94 2f 3d 	call	0x7a5e	; 0x7a5e <__udivmodsi4>
    530e:	69 01       	movw	r12, r18
    5310:	02 c0       	rjmp	.+4      	; 0x5316 <ReadCapacity+0x4f2>
    5312:	c1 2c       	mov	r12, r1
    5314:	d1 2c       	mov	r13, r1
    5316:	80 91 4b 01 	lds	r24, 0x014B
  }
  
#if FLASHEND > 0x1fff
  unsigned int vloss;	// lost voltage after load pulse in 0.1% 
  cap.esr = 0;				// set ESR of capacitor to zero
  vloss = 0;				// set lost voltage to zero
    531a:	90 91 4c 01 	lds	r25, 0x014C
//     if (ovcnt16 == 0 )  {
//        goto messe_mit_rh;		// Voltage of more than 300mV is reached in one pulse, but not hold
//     }
     goto keinC;			// capacitor does not keep the voltage about 5ms
  }
  cap.cval_uncorrected.dw = ovcnt16 + 1;
    531e:	01 96       	adiw	r24, 0x01	; 1
    5320:	a0 e0       	ldi	r26, 0x00	; 0
    5322:	b0 e0       	ldi	r27, 0x00	; 0
    5324:	80 93 7b 01 	sts	0x017B, r24
    5328:	90 93 7c 01 	sts	0x017C, r25
    532c:	a0 93 7d 01 	sts	0x017D, r26
    5330:	b0 93 7e 01 	sts	0x017E, r27
    5334:	c7 01       	movw	r24, r14
    5336:	8a 0d       	add	r24, r10
    5338:	9b 1d       	adc	r25, r11
  // compute factor with load voltage + lost voltage during the voltage load time
  cap.cval_uncorrected.dw *= GetRLmultip(cap_voltage1+cap_voltage2);	// get factor to convert time to capacity from table
    533a:	0e 94 c1 0a 	call	0x1582	; 0x1582 <GetRLmultip>
    533e:	20 91 7b 01 	lds	r18, 0x017B
    5342:	30 91 7c 01 	lds	r19, 0x017C
    5346:	40 91 7d 01 	lds	r20, 0x017D
    534a:	50 91 7e 01 	lds	r21, 0x017E
    534e:	dc 01       	movw	r26, r24
    5350:	0e 94 88 3d 	call	0x7b10	; 0x7b10 <__muluhisi3>
    5354:	60 93 7b 01 	sts	0x017B, r22
    5358:	70 93 7c 01 	sts	0x017C, r23
    535c:	80 93 7d 01 	sts	0x017D, r24
    5360:	90 93 7e 01 	sts	0x017E, r25
    5364:	60 93 73 01 	sts	0x0173, r22
    5368:	70 93 74 01 	sts	0x0174, r23
#endif
   cap.cval = cap.cval_uncorrected.dw;	// set result to uncorrected
    536c:	80 93 75 01 	sts	0x0175, r24
    5370:	90 93 76 01 	sts	0x0176, r25
    5374:	87 ef       	ldi	r24, 0xF7	; 247
    5376:	80 93 85 01 	sts	0x0185, r24
   cap.cpre = -9;		// switch units to nF 
    537a:	14 dd       	rcall	.-1496   	; 0x4da4 <Scale_C_with_vcc>
    537c:	20 91 73 01 	lds	r18, 0x0173
   Scale_C_with_vcc();		// value is below 100000 after this call, cpre is changed
    5380:	30 91 74 01 	lds	r19, 0x0174
   // cap.cval for this type is at least 40000nF, so the last digit will be never shown
#if WITH_MENU
   cap.cval *= (1000 - (int8_t)eeprom_read_byte((uint8_t *)&big_cap_corr));	// correct with C_H_KORR with 0.1% resolution, but prevent overflow
    5384:	40 91 75 01 	lds	r20, 0x0175
    5388:	50 91 76 01 	lds	r21, 0x0176
    538c:	8d e4       	ldi	r24, 0x4D	; 77
    538e:	93 e0       	ldi	r25, 0x03	; 3
    5390:	29 83       	std	Y+1, r18	; 0x01
    5392:	3a 83       	std	Y+2, r19	; 0x02
    5394:	4b 83       	std	Y+3, r20	; 0x03
    5396:	5c 83       	std	Y+4, r21	; 0x04
    5398:	0e 94 b0 3e 	call	0x7d60	; 0x7d60 <eeprom_read_byte>
    539c:	a8 ee       	ldi	r26, 0xE8	; 232
    539e:	b3 e0       	ldi	r27, 0x03	; 3
    53a0:	a8 1b       	sub	r26, r24
    53a2:	b1 09       	sbc	r27, r1
    53a4:	87 fd       	sbrc	r24, 7
    53a6:	b3 95       	inc	r27
    53a8:	29 81       	ldd	r18, Y+1	; 0x01
    53aa:	3a 81       	ldd	r19, Y+2	; 0x02
    53ac:	4b 81       	ldd	r20, Y+3	; 0x03
    53ae:	5c 81       	ldd	r21, Y+4	; 0x04
    53b0:	0e 94 92 3d 	call	0x7b24	; 0x7b24 <__mulshisi3>
    53b4:	24 e6       	ldi	r18, 0x64	; 100
    53b6:	30 e0       	ldi	r19, 0x00	; 0
    53b8:	40 e0       	ldi	r20, 0x00	; 0
    53ba:	50 e0       	ldi	r21, 0x00	; 0
#else
   cap.cval *= (1000 - C_H_KORR);	// correct with C_H_KORR with 0.1% resolution, but prevent overflow
#endif
   cap.cval /= 100;		// was multiplied with 1000, now divided by 100
    53bc:	0e 94 2f 3d 	call	0x7a5e	; 0x7a5e <__udivmodsi4>
    53c0:	20 93 73 01 	sts	0x0173, r18
    53c4:	30 93 74 01 	sts	0x0174, r19
    53c8:	40 93 75 01 	sts	0x0175, r20
    53cc:	50 93 76 01 	sts	0x0176, r21
    53d0:	2d cf       	rjmp	.-422    	; 0x522c <ReadCapacity+0x408>
    53d2:	24 96       	adiw	r28, 0x04	; 4
    53d4:	ed e0       	ldi	r30, 0x0D	; 13
    53d6:	0c 94 3e 3e 	jmp	0x7c7c	; 0x7c7c <__epilogue_restores__+0xa>

000053da <__vector_13>:
  ADC_DDR =  TXD_MSK;		// switch all ADC ports to input
  ADC_PORT = TXD_VAL;		// switch all ADC outputs to GND, no pull up
  R_DDR = 0;			// switch all resistor ports to input
  R_PORT = 0; 			// switch all resistor outputs to GND, no pull up
  return;
 } // end ReadCapacity()
    53da:	1f 92       	push	r1
    53dc:	0f 92       	push	r0
    53de:	0f b6       	in	r0, 0x3f	; 63
    53e0:	0f 92       	push	r0
   cap.cval /= U_VCC;			// Factors are computed for U_VCC
}
#ifndef INHIBIT_SLEEP_MODE
/* Interrupt Service Routine for timer1 Overflow */
 ISR(TIMER1_OVF_vect, ISR_BLOCK)
{
    53e2:	11 24       	eor	r1, r1
    53e4:	8f 93       	push	r24
    53e6:	9f 93       	push	r25
 if ((!(TI1_INT_FLAGS & (1<<ICF1)) && (unfinished !=0)) || ((TI1_INT_FLAGS & (1<<ICF1)) && (ICR1 < 250))) {
    53e8:	b5 99       	sbic	0x16, 5	; 22
    53ea:	04 c0       	rjmp	.+8      	; 0x53f4 <__vector_13+0x1a>
    53ec:	80 91 70 01 	lds	r24, 0x0170
    53f0:	81 11       	cpse	r24, r1
    53f2:	09 c0       	rjmp	.+18     	; 0x5406 <__vector_13+0x2c>
    53f4:	b5 9b       	sbis	0x16, 5	; 22
    53f6:	10 c0       	rjmp	.+32     	; 0x5418 <__vector_13+0x3e>
    53f8:	80 91 86 00 	lds	r24, 0x0086
    53fc:	90 91 87 00 	lds	r25, 0x0087
    5400:	8a 3f       	cpi	r24, 0xFA	; 250
    5402:	91 05       	cpc	r25, r1
    5404:	48 f4       	brcc	.+18     	; 0x5418 <__vector_13+0x3e>
    // Capture Event not pending or (Capture Event pending and ICR1 < 250
    // the ICR1H is buffered and can not examined alone, we must read the ICR1L first (with ICR1 access) !
   ovcnt16++;				// count Overflow
    5406:	80 91 4b 01 	lds	r24, 0x014B
    540a:	90 91 4c 01 	lds	r25, 0x014C
    540e:	01 96       	adiw	r24, 0x01	; 1
    5410:	90 93 4c 01 	sts	0x014C, r25
    5414:	80 93 4b 01 	sts	0x014B, r24
 }
}
    5418:	9f 91       	pop	r25
    541a:	8f 91       	pop	r24
    541c:	0f 90       	pop	r0
    541e:	0f be       	out	0x3f, r0	; 63
    5420:	0f 90       	pop	r0
    5422:	1f 90       	pop	r1
    5424:	18 95       	reti

00005426 <__vector_10>:
/* Interrupt Service Routine for timer1 capture event (Comparator) */
 ISR(TIMER1_CAPT_vect, ISR_BLOCK)
{
    5426:	1f 92       	push	r1
    5428:	0f 92       	push	r0
    542a:	0f b6       	in	r0, 0x3f	; 63
    542c:	0f 92       	push	r0
    542e:	11 24       	eor	r1, r1
    5430:	8f 93       	push	r24
    5432:	9f 93       	push	r25
 unfinished = 0;			// clear unfinished flag
    5434:	10 92 70 01 	sts	0x0170, r1
 // With unfinished set to 0, we prevent further counting the Overflow.s
 // Is already a Overflow detected?
 if((TI1_INT_FLAGS & (1<<TOV1))) {	// counter overflow, 65.536 ms @ 1MHz, 8.192ms @ 8MHz
    5438:	b0 9b       	sbis	0x16, 0	; 22
    543a:	10 c0       	rjmp	.+32     	; 0x545c <__vector_10+0x36>
   //there is already a Overflow detected, before or after the capture event?
   // ICR1H is buffered and can not examined alone, we must read the ICR1L first (with ICR1 access) !
   if (ICR1 < 250) {
    543c:	80 91 86 00 	lds	r24, 0x0086
    5440:	90 91 87 00 	lds	r25, 0x0087
    5444:	8a 3f       	cpi	r24, 0xFA	; 250
    5446:	91 05       	cpc	r25, r1
    5448:	48 f4       	brcc	.+18     	; 0x545c <__vector_10+0x36>
     //  Yes, Input Capture Counter is low, Overflow has occured before the capture event
     ovcnt16++;				// count Overflow
    544a:	80 91 4b 01 	lds	r24, 0x014B
    544e:	90 91 4c 01 	lds	r25, 0x014C
    5452:	01 96       	adiw	r24, 0x01	; 1
    5454:	90 93 4c 01 	sts	0x014C, r25
    5458:	80 93 4b 01 	sts	0x014B, r24
   }
 }
}
    545c:	9f 91       	pop	r25
    545e:	8f 91       	pop	r24
    5460:	0f 90       	pop	r0
    5462:	0f be       	out	0x3f, r0	; 63
    5464:	0f 90       	pop	r0
    5466:	1f 90       	pop	r1
    5468:	18 95       	reti

0000546a <Calibrate_UR>:
#include "Transistortester.h"
void Calibrate_UR(void) {
    546a:	a0 e0       	ldi	r26, 0x00	; 0
    546c:	b0 e0       	ldi	r27, 0x00	; 0
    546e:	eb e3       	ldi	r30, 0x3B	; 59
    5470:	fa e2       	ldi	r31, 0x2A	; 42
    5472:	0c 94 23 3e 	jmp	0x7c46	; 0x7c46 <__prologue_saves__+0xc>
  uint16_t sum_rp;	// sum of 3 Pin voltages with 680 Ohm load
  uint16_t u680;	// 3 * (Voltage at 680 Ohm)
#endif


  adc_vcc_reference = U_VCC;     // set initial VCC Voltage to 5000mV
    5476:	88 e8       	ldi	r24, 0x88	; 136
    5478:	93 e1       	ldi	r25, 0x13	; 19
    547a:	90 93 18 01 	sts	0x0118, r25
    547e:	80 93 17 01 	sts	0x0117, r24
  ADCconfig.U_AVCC = adc_vcc_reference;	// set ADC to normal VCC value
    5482:	90 93 2a 01 	sts	0x012A, r25
    5486:	80 93 29 01 	sts	0x0129, r24
  ADCconfig.Samples = R_ANZ_MESS;	// set number of ADC reads near to maximum
    548a:	8e eb       	ldi	r24, 0xBE	; 190
    548c:	80 93 25 01 	sts	0x0125, r24
                                        //############################################
#if FLASHEND > 0x1fff
  uint16_t mv2500;
  ADC_PORT = TXD_VAL;                   // switch to 0V
    5490:	c8 e0       	ldi	r28, 0x08	; 8
    5492:	c8 b9       	out	0x08, r28	; 8
  ADC_DDR = (1<<TPRELAY) | TXD_MSK;       // switch pin with 2.5V reference to GND
    5494:	88 e1       	ldi	r24, 0x18	; 24
    5496:	87 b9       	out	0x07, r24	; 7
  wait20us();			// switch only short time, so that the relais do not really switch
    5498:	0e 94 92 09 	call	0x1324	; 0x1324 <wait20us>
  ADC_DDR =  TXD_MSK;		// switch pin with reference back to input
    549c:	c7 b9       	out	0x07, r28	; 7
  mv2500 = W5msReadADC(TPREF); // read voltage of 2.5V precision reference
    549e:	84 e0       	ldi	r24, 0x04	; 4
    54a0:	0e 94 cf 09 	call	0x139e	; 0x139e <W5msReadADC>
    54a4:	ac 01       	movw	r20, r24
  if ((mv2500 > 2250) && (mv2500 < 2750)) {
    54a6:	8b 5c       	subi	r24, 0xCB	; 203
    54a8:	98 40       	sbci	r25, 0x08	; 8
    54aa:	83 3f       	cpi	r24, 0xF3	; 243
    54ac:	91 40       	sbci	r25, 0x01	; 1
    54ae:	a0 f4       	brcc	.+40     	; 0x54d8 <Calibrate_UR+0x6e>
     // precision voltage reference connected, update U_AVCC
     WithReference = 1;
    54b0:	81 e0       	ldi	r24, 0x01	; 1
    54b2:	80 93 34 01 	sts	0x0134, r24
     adc_vcc_reference = (unsigned long)((unsigned long)ADCconfig.U_AVCC * 2495) / mv2500;
    54b6:	20 91 29 01 	lds	r18, 0x0129
    54ba:	30 91 2a 01 	lds	r19, 0x012A
    54be:	af eb       	ldi	r26, 0xBF	; 191
    54c0:	b9 e0       	ldi	r27, 0x09	; 9
    54c2:	0e 94 73 3d 	call	0x7ae6	; 0x7ae6 <__umulhisi3>
    54c6:	9a 01       	movw	r18, r20
    54c8:	40 e0       	ldi	r20, 0x00	; 0
    54ca:	50 e0       	ldi	r21, 0x00	; 0
    54cc:	0e 94 2f 3d 	call	0x7a5e	; 0x7a5e <__udivmodsi4>
    54d0:	30 93 18 01 	sts	0x0118, r19
    54d4:	20 93 17 01 	sts	0x0117, r18
  }
  ADCconfig.U_AVCC = adc_vcc_reference;	// set ADC to normal VCC value
    54d8:	80 91 17 01 	lds	r24, 0x0117
    54dc:	90 91 18 01 	lds	r25, 0x0118
    54e0:	90 93 2a 01 	sts	0x012A, r25
    54e4:	80 93 29 01 	sts	0x0129, r24
#endif
#ifdef WITH_AUTO_REF
  (void) ReadADC(MUX_INT_REF);	// read reference voltage 
    54e8:	8e e0       	ldi	r24, 0x0E	; 14
    54ea:	0e 94 d3 09 	call	0x13a6	; 0x13a6 <ReadADC>
  ref_mv = W5msReadADC(MUX_INT_REF);	// read reference voltage 
    54ee:	8e e0       	ldi	r24, 0x0E	; 14
    54f0:	0e 94 cf 09 	call	0x139e	; 0x139e <W5msReadADC>
    54f4:	90 93 2e 01 	sts	0x012E, r25
    54f8:	80 93 2d 01 	sts	0x012D, r24
#else
  ref_mv = DEFAULT_BAND_GAP;    // set to default Reference Voltage
#endif
  (void) RefVoltage();			//compute RHmultip = f(reference voltage)
    54fc:	0e 94 45 0a 	call	0x148a	; 0x148a <RefVoltage>
                                        // ref_mv_offs, ADCconfig.U_Bandgap
                                        //############################################

  EntladePins();	// make sure, that no voltage is left from capacitors
    5500:	c1 db       	rcall	.-2174   	; 0x4c84 <EntladePins>
    5502:	88 e0       	ldi	r24, 0x08	; 8
#ifdef AUTO_CAL
  // measurement of internal resistance of the ADC port outputs switched to GND
  ADC_PORT =  TXD_VAL;	//ADC-Ports to GND
    5504:	f8 2e       	mov	r15, r24
    5506:	f8 b8       	out	0x08, r15	; 8
    5508:	c9 e0       	ldi	r28, 0x09	; 9
  ADC_DDR = 1<<TP1 | TXD_MSK;	//ADC-Pin  1 to output 0V
    550a:	c7 b9       	out	0x07, r28	; 7
    550c:	85 e1       	ldi	r24, 0x15	; 21
 #ifdef PULLUP_DISABLE
  R_PORT = (1<<PIN_RL1) | (1<<PIN_RL2) | (1<<PIN_RL3);		//R_L-PORTs to VCC
    550e:	85 b9       	out	0x05, r24	; 5
    5510:	d1 e0       	ldi	r29, 0x01	; 1
 #else
  R_PORT = 1<<PIN_RL1;		//R_L-PORT 1 to VCC
 #endif
  R_DDR = 1<<PIN_RL1;		//Pin 1 to output and over R_L to VCC
    5512:	d4 b9       	out	0x04, r29	; 4
    5514:	80 e0       	ldi	r24, 0x00	; 0
  sum_rm = W5msReadADC(TP1);
    5516:	0e 94 cf 09 	call	0x139e	; 0x139e <W5msReadADC>
    551a:	8c 01       	movw	r16, r24
    551c:	9a e0       	ldi	r25, 0x0A	; 10
// - - - - - - - 
  ADC_DDR = 1<<TP2 | TXD_MSK;	//ADC-Pin 2 to output 0V
    551e:	d9 2e       	mov	r13, r25
    5520:	d7 b8       	out	0x07, r13	; 7
    5522:	24 e0       	ldi	r18, 0x04	; 4
 #ifndef PULLUP_DISABLE
  R_PORT =  1<<PIN_RL2;		//R_L-PORT 2 to VCC
 #endif
  R_DDR = 1<<PIN_RL2;		//Pin 2 to output and over R_L to VCC
    5524:	b2 2e       	mov	r11, r18
    5526:	b4 b8       	out	0x04, r11	; 4
    5528:	81 e0       	ldi	r24, 0x01	; 1
  sum_rm += W5msReadADC(TP2);
    552a:	0e 94 cf 09 	call	0x139e	; 0x139e <W5msReadADC>
    552e:	08 0f       	add	r16, r24
    5530:	19 1f       	adc	r17, r25
    5532:	3c e0       	ldi	r19, 0x0C	; 12
// - - - - - - - 
  ADC_DDR = 1<<TP3 | TXD_MSK;	//ADC-Pin 3 to output 0V
    5534:	e3 2e       	mov	r14, r19
    5536:	e7 b8       	out	0x07, r14	; 7
    5538:	40 e1       	ldi	r20, 0x10	; 16
 #ifndef PULLUP_DISABLE
  R_PORT =  1<<PIN_RL3;		//R_L-PORT 3 to VCC
 #endif
  R_DDR = 1<<PIN_RL3;		//Pin 3 to output and over R_L to VCC
    553a:	c4 2e       	mov	r12, r20
    553c:	c4 b8       	out	0x04, r12	; 4
    553e:	82 e0       	ldi	r24, 0x02	; 2
  sum_rm += W5msReadADC(TP3);	//add all three values
    5540:	0e 94 cf 09 	call	0x139e	; 0x139e <W5msReadADC>
    5544:	08 0f       	add	r16, r24
    5546:	19 1f       	adc	r17, r25
    5548:	15 b8       	out	0x05, r1	; 5
// - - - - - - - 

  // measurement of internal resistance of the ADC port output switched to VCC
  R_PORT = 0;			// R-Ports to GND
    554a:	c8 b9       	out	0x08, r28	; 8
  ADC_PORT = 1<<TP1 | TXD_VAL;	//ADC-Port 1 to VCC
    554c:	c7 b9       	out	0x07, r28	; 7
  ADC_DDR = 1<<TP1 | TXD_MSK;	//ADC-Pin  1 to output 0V
    554e:	d4 b9       	out	0x04, r29	; 4
  R_DDR = 1<<PIN_RL1;		//Pin 1 to output and over R_L to GND
    5550:	80 e0       	ldi	r24, 0x00	; 0
  sum_rp = vcc_diff(W5msReadADC(TP1));
    5552:	0e 94 cf 09 	call	0x139e	; 0x139e <W5msReadADC>
    5556:	0e 94 37 0a 	call	0x146e	; 0x146e <vcc_diff>
    555a:	ec 01       	movw	r28, r24
    555c:	d8 b8       	out	0x08, r13	; 8
// - - - - - - - 
      
  ADC_PORT = 1<<TP2 | TXD_VAL;	//ADC-Port 2 to VCC
    555e:	d7 b8       	out	0x07, r13	; 7
  ADC_DDR = 1<<TP2 | TXD_MSK;	//ADC-Pin  2 to output 0V
    5560:	b4 b8       	out	0x04, r11	; 4
  R_DDR = 1<<PIN_RL2;		//Pin 2 to output and over R_L to GND
    5562:	81 e0       	ldi	r24, 0x01	; 1
  sum_rp += vcc_diff(W5msReadADC(TP2));
    5564:	0e 94 cf 09 	call	0x139e	; 0x139e <W5msReadADC>
    5568:	0e 94 37 0a 	call	0x146e	; 0x146e <vcc_diff>
    556c:	c8 0f       	add	r28, r24
    556e:	d9 1f       	adc	r29, r25
    5570:	e8 b8       	out	0x08, r14	; 8
// - - - - - - - 

  ADC_PORT = 1<<TP3 | TXD_VAL;	//ADC-Port 3 to VCC
    5572:	e7 b8       	out	0x07, r14	; 7
  ADC_DDR = 1<<TP3 | TXD_MSK;	//ADC-Pin  3 to output 0V
    5574:	c4 b8       	out	0x04, r12	; 4
  R_DDR = 1<<PIN_RL3;		//Pin 3 to output and over R_L to GND
    5576:	82 e0       	ldi	r24, 0x02	; 2
  sum_rp += vcc_diff(W5msReadADC(TP3));
    5578:	0e 94 cf 09 	call	0x139e	; 0x139e <W5msReadADC>
    557c:	0e 94 37 0a 	call	0x146e	; 0x146e <vcc_diff>
    5580:	c8 0f       	add	r28, r24
    5582:	d9 1f       	adc	r29, r25
    5584:	f7 b8       	out	0x07, r15	; 7
// - - - - - - - 
  ADC_DDR =  TXD_MSK;	//ADC-Pins to input
    5586:	f8 b8       	out	0x08, r15	; 8
  ADC_PORT =  TXD_VAL;	//ADC-Ports to GND
    5588:	14 b8       	out	0x04, r1	; 4
  R_DDR   = 0;
    558a:	40 91 29 01 	lds	r20, 0x0129

  u680 = ((ADCconfig.U_AVCC * 3) - sum_rm - sum_rp);	//three times the voltage at the 680 Ohm
    558e:	50 91 2a 01 	lds	r21, 0x012A
    5592:	6a 01       	movw	r12, r20
    5594:	cc 0c       	add	r12, r12
    5596:	dd 1c       	adc	r13, r13
    5598:	c4 0e       	add	r12, r20
    559a:	d5 1e       	adc	r13, r21
    559c:	c0 1a       	sub	r12, r16
    559e:	d1 0a       	sbc	r13, r17
    55a0:	cc 1a       	sub	r12, r28
    55a2:	dd 0a       	sbc	r13, r29
    55a4:	e1 2c       	mov	r14, r1
  pin_rmi = (unsigned long)((unsigned long)sum_rm * (unsigned long)R_L_VAL) / (unsigned long)u680;
    55a6:	f1 2c       	mov	r15, r1
    55a8:	98 01       	movw	r18, r16
    55aa:	a0 e9       	ldi	r26, 0x90	; 144
    55ac:	ba e1       	ldi	r27, 0x1A	; 26
    55ae:	0e 94 73 3d 	call	0x7ae6	; 0x7ae6 <__umulhisi3>
    55b2:	a7 01       	movw	r20, r14
    55b4:	96 01       	movw	r18, r12
    55b6:	0e 94 2f 3d 	call	0x7a5e	; 0x7a5e <__udivmodsi4>
    55ba:	49 01       	movw	r8, r18
    55bc:	5a 01       	movw	r10, r20
    55be:	30 93 33 01 	sts	0x0133, r19
    55c2:	20 93 32 01 	sts	0x0132, r18
    55c6:	9e 01       	movw	r18, r28
//  adcmv[2] = pin_rm;	// for last output in row 2
  pin_rpl = (unsigned long)((unsigned long)sum_rp * (unsigned long)R_L_VAL) / (unsigned long)u680;
    55c8:	a0 e9       	ldi	r26, 0x90	; 144
    55ca:	ba e1       	ldi	r27, 0x1A	; 26
    55cc:	0e 94 73 3d 	call	0x7ae6	; 0x7ae6 <__umulhisi3>
    55d0:	a7 01       	movw	r20, r14
    55d2:	96 01       	movw	r18, r12
    55d4:	0e 94 2f 3d 	call	0x7a5e	; 0x7a5e <__udivmodsi4>
    55d8:	30 93 2c 01 	sts	0x012C, r19
    55dc:	20 93 2b 01 	sts	0x012B, r18
    55e0:	20 57       	subi	r18, 0x70	; 112
  resis680pl = pin_rpl + R_L_VAL;
    55e2:	35 4e       	sbci	r19, 0xE5	; 229
    55e4:	30 93 15 01 	sts	0x0115, r19
    55e8:	20 93 14 01 	sts	0x0114, r18
    55ec:	80 e7       	ldi	r24, 0x70	; 112
  resis680mi = pin_rmi + R_L_VAL;
    55ee:	88 1a       	sub	r8, r24
    55f0:	85 ee       	ldi	r24, 0xE5	; 229
    55f2:	98 0a       	sbc	r9, r24
    55f4:	90 92 0e 01 	sts	0x010E, r9
    55f8:	80 92 0d 01 	sts	0x010D, r8
    55fc:	89 e1       	ldi	r24, 0x19	; 25
#endif

  ADCconfig.Samples = ANZ_MESS;	// set to configured number of ADC samples
    55fe:	80 93 25 01 	sts	0x0125, r24
    5602:	cd b7       	in	r28, 0x3d	; 61
 } 
    5604:	de b7       	in	r29, 0x3e	; 62
    5606:	ec e0       	ldi	r30, 0x0C	; 12
    5608:	0c 94 3f 3e 	jmp	0x7c7e	; 0x7c7e <__epilogue_restores__+0xc>

0000560c <show_resis>:
void show_resis(byte pin1, byte pin2, byte how)
// can be invoked both from main() and from show_Resis13()
// pin1 and pin2 are resistor's pin numbers, but ResistorList[0] should also be correctly filled
// assumes resistance has already been measured, but will do inductance measurements as appropriate
// "how" flag tells how to show the results: if set [R] or [RL] will be shown in top right corner
{
    560c:	0f 93       	push	r16
    560e:	1f 93       	push	r17
    5610:	cf 93       	push	r28
    5612:	df 93       	push	r29
    5614:	c8 2f       	mov	r28, r24
    5616:	d6 2f       	mov	r29, r22
    5618:	14 2f       	mov	r17, r20
 #ifdef RMETER_WITH_L
           lcd_testpin(pin1);
    561a:	0e 94 56 0e 	call	0x1cac	; 0x1cac <lcd_testpin>
           lcd_MEM_string(Resistor_str);	// -[==]-
    561e:	88 e1       	ldi	r24, 0x18	; 24
    5620:	91 e0       	ldi	r25, 0x01	; 1
    5622:	0e 94 b5 0e 	call	0x1d6a	; 0x1d6a <lcd_fix_string>
           lcd_refresh();
	   ReadInductance();	// measure inductance, possible only with R<2.1k
    5626:	ee d1       	rcall	.+988    	; 0x5a04 <ReadInductance>
    5628:	6d 2f       	mov	r22, r29

  #ifdef SamplingADC
           sampling_lc(pin1,pin2);    // measure inductance using resonance method
    562a:	8c 2f       	mov	r24, r28
    562c:	0e 94 25 3b 	call	0x764a	; 0x764a <sampling_lc>
    5630:	c1 e0       	ldi	r28, 0x01	; 1

           // draw first line: the pin numbers, RR and possibly LL symbol, and possibly [R] or [RL]
           byte lclx0=(lc_lx==0);
    5632:	80 91 ba 01 	lds	r24, 0x01BA
    5636:	90 91 bb 01 	lds	r25, 0x01BB
    563a:	a0 91 bc 01 	lds	r26, 0x01BC
    563e:	b0 91 bd 01 	lds	r27, 0x01BD
    5642:	89 2b       	or	r24, r25
    5644:	8a 2b       	or	r24, r26
    5646:	8b 2b       	or	r24, r27
    5648:	09 f0       	breq	.+2      	; 0x564c <show_resis+0x40>
    564a:	c0 e0       	ldi	r28, 0x00	; 0
    564c:	80 91 19 01 	lds	r24, 0x0119
           if (inductor_lpre < 0 || !lclx0) 
    5650:	87 fd       	sbrc	r24, 7
    5652:	02 c0       	rjmp	.+4      	; 0x5658 <show_resis+0x4c>
    5654:	c1 11       	cpse	r28, r1
    5656:	04 c0       	rjmp	.+8      	; 0x5660 <show_resis+0x54>
    5658:	84 e1       	ldi	r24, 0x14	; 20
  #else 
           if (inductor_lpre < 0)
  #endif

           {
              lcd_MEM_string(Inductor_str+1);            // "LL-"
    565a:	91 e0       	ldi	r25, 0x01	; 1
    565c:	0e 94 b5 0e 	call	0x1d6a	; 0x1d6a <lcd_fix_string>
    5660:	8d 2f       	mov	r24, r29
           }
           lcd_testpin(pin2);
    5662:	0e 94 56 0e 	call	0x1cac	; 0x1cac <lcd_testpin>
    5666:	c1 11       	cpse	r28, r1

           // second line: measured R value (but that goes on first line if lc_lx!=0), and measured inductance, if applicable

  #ifdef SamplingADC
           if (!lclx0) {  /* inductance measured by sampling method */
    5668:	06 c0       	rjmp	.+12     	; 0x5676 <show_resis+0x6a>
    566a:	0e 94 59 0e 	call	0x1cb2	; 0x1cb2 <lcd_space>
              lcd_space();
    566e:	80 91 56 01 	lds	r24, 0x0156
              RvalOut(ResistorList[0]);		// show Resistance, probably ESR, still on first line
    5672:	0e 94 e0 08 	call	0x11c0	; 0x11c0 <RvalOut>
    5676:	11 23       	and	r17, r17
           }
  #endif
 
  #if FLASHEND > 0x3fff
           if ((how) && (_lcd_column<=LCD_LINE_LENGTH-4)) {
    5678:	51 f0       	breq	.+20     	; 0x568e <show_resis+0x82>
    567a:	80 91 35 01 	lds	r24, 0x0135
    567e:	8f 30       	cpi	r24, 0x0F	; 15
    5680:	30 f4       	brcc	.+12     	; 0x568e <show_resis+0x82>
    5682:	90 e0       	ldi	r25, 0x00	; 0
              // still need to write "[RL]" or "[R]" at the end of first line, if it fits
                 lcd_MEM_string(RL_METER_str+(_lcd_column-6));	// " [R]" or "[RL]"
    5684:	82 59       	subi	r24, 0x92	; 146
    5686:	9c 4f       	sbci	r25, 0xFC	; 252
    5688:	0e 94 b5 0e 	call	0x1d6a	; 0x1d6a <lcd_fix_string>
    568c:	02 c0       	rjmp	.+4      	; 0x5692 <show_resis+0x86>
    568e:	0e 94 6d 0e 	call	0x1cda	; 0x1cda <lcd_clear_line>
           } else {
                 lcd_clear_line();
    5692:	80 e0       	ldi	r24, 0x00	; 0
	   }
  #else
           lcd_clear_line();
  #endif
//           lcd_line2();
           lcd_next_line_wait(0);
    5694:	0e 94 97 0e 	call	0x1d2e	; 0x1d2e <lcd_next_line_wait>
    5698:	c1 11       	cpse	r28, r1
  #ifdef SamplingADC
           if (!lclx0) {  /* Frequency found */
    569a:	1b c0       	rjmp	.+54     	; 0x56d2 <show_resis+0xc6>
    569c:	60 91 ba 01 	lds	r22, 0x01BA
//              lcd_next_line(0);
              DisplayValue(lc_lx,lc_lpre,'H',3);	// output inductance
    56a0:	70 91 bb 01 	lds	r23, 0x01BB
    56a4:	80 91 bc 01 	lds	r24, 0x01BC
    56a8:	90 91 bd 01 	lds	r25, 0x01BD
    56ac:	03 e0       	ldi	r16, 0x03	; 3
    56ae:	28 e4       	ldi	r18, 0x48	; 72
    56b0:	47 ef       	ldi	r20, 0xF7	; 247
    56b2:	0e 94 fb 0e 	call	0x1df6	; 0x1df6 <DisplayValue>
    56b6:	87 e2       	ldi	r24, 0x27	; 39
              lcd_MEM2_string(iF_str);		// " if "
    56b8:	91 e0       	ldi	r25, 0x01	; 1
    56ba:	0e 94 b5 0e 	call	0x1d6a	; 0x1d6a <lcd_fix_string>
    56be:	81 e8       	ldi	r24, 0x81	; 129
              uint16_t lc_cpar;    // value of parallel capacitor used for calculating inductance, in pF
              lc_cpar=eeprom_read_word((uint16_t *)&lc_cpar_ee);
    56c0:	93 e0       	ldi	r25, 0x03	; 3
    56c2:	0e 94 b8 3e 	call	0x7d70	; 0x7d70 <eeprom_read_word>
    56c6:	23 e0       	ldi	r18, 0x03	; 3
   #if (LCD_LINES<3) && (LCD_LINE_LENGTH<17)
              DisplayValue16(lc_cpar,-12,'F',2);	        // on 2-line dispaly show parallel capacitance with only 2 digits to make room for the '+' sign at the end of the line
   #else
              DisplayValue16(lc_cpar,-12,'F',3);	        // show parallel capacitance
    56c8:	46 e4       	ldi	r20, 0x46	; 70
    56ca:	64 ef       	ldi	r22, 0xF4	; 244
    56cc:	0e 94 e4 0f 	call	0x1fc8	; 0x1fc8 <DisplayValue16>
    56d0:	1a c0       	rjmp	.+52     	; 0x5706 <show_resis+0xfa>
    56d2:	80 91 56 01 	lds	r24, 0x0156
   #endif
           } else 
  #endif
           {
//              lcd_next_line_wait(0);
              RvalOut(ResistorList[0]);		// show Resistance, probably ESR
    56d6:	0e 94 e0 08 	call	0x11c0	; 0x11c0 <RvalOut>
    56da:	80 91 19 01 	lds	r24, 0x0119

              if (inductor_lpre < -2) {
    56de:	8e 3f       	cpi	r24, 0xFE	; 254
    56e0:	94 f4       	brge	.+36     	; 0x5706 <show_resis+0xfa>
    56e2:	8f e3       	ldi	r24, 0x3F	; 63
                 // resistor has also inductance
                 lcd_MEM_string(Lis_str);		// "L="
    56e4:	91 e0       	ldi	r25, 0x01	; 1
    56e6:	0e 94 b5 0e 	call	0x1d6a	; 0x1d6a <lcd_fix_string>
    56ea:	60 91 a1 01 	lds	r22, 0x01A1
                 DisplayValue(inductor_lx,inductor_lpre,'H',3);        // output classic inductance
    56ee:	70 91 a2 01 	lds	r23, 0x01A2
    56f2:	80 91 a3 01 	lds	r24, 0x01A3
    56f6:	90 91 a4 01 	lds	r25, 0x01A4
    56fa:	03 e0       	ldi	r16, 0x03	; 3
    56fc:	28 e4       	ldi	r18, 0x48	; 72
    56fe:	40 91 19 01 	lds	r20, 0x0119
    5702:	0e 94 fb 0e 	call	0x1df6	; 0x1df6 <DisplayValue>
    5706:	80 91 b2 01 	lds	r24, 0x01B2

           }
           // third line: measured resonance frequency and Q, if applicable

  #ifdef SamplingADC
           if (lc_fx) {
    570a:	90 91 b3 01 	lds	r25, 0x01B3
    570e:	a0 91 b4 01 	lds	r26, 0x01B4
    5712:	b0 91 b5 01 	lds	r27, 0x01B5
    5716:	89 2b       	or	r24, r25
    5718:	8a 2b       	or	r24, r26
    571a:	8b 2b       	or	r24, r27
    571c:	f1 f0       	breq	.+60     	; 0x575a <show_resis+0x14e>
    571e:	80 e0       	ldi	r24, 0x00	; 0
              lcd_next_line_wait(0);
    5720:	0e 94 97 0e 	call	0x1d2e	; 0x1d2e <lcd_next_line_wait>
    5724:	60 91 b2 01 	lds	r22, 0x01B2
              DisplayValue(lc_fx,lc_fpre,'H',4);
    5728:	70 91 b3 01 	lds	r23, 0x01B3
    572c:	80 91 b4 01 	lds	r24, 0x01B4
    5730:	90 91 b5 01 	lds	r25, 0x01B5
    5734:	04 e0       	ldi	r16, 0x04	; 4
    5736:	28 e4       	ldi	r18, 0x48	; 72
    5738:	40 e0       	ldi	r20, 0x00	; 0
    573a:	0e 94 fb 0e 	call	0x1df6	; 0x1df6 <DisplayValue>
    573e:	82 e2       	ldi	r24, 0x22	; 34
              lcd_MEM2_string(zQ_str);		// "z Q="
    5740:	91 e0       	ldi	r25, 0x01	; 1
    5742:	0e 94 b5 0e 	call	0x1d6a	; 0x1d6a <lcd_fix_string>
    5746:	23 e0       	ldi	r18, 0x03	; 3
              DisplayValue16(lc_qx, lc_qpre,' ',3);
    5748:	40 e2       	ldi	r20, 0x20	; 32
    574a:	6f ef       	ldi	r22, 0xFF	; 255
    574c:	80 91 b8 01 	lds	r24, 0x01B8
    5750:	90 91 b9 01 	lds	r25, 0x01B9
    5754:	0e 94 e4 0f 	call	0x1fc8	; 0x1fc8 <DisplayValue16>
    5758:	07 c0       	rjmp	.+14     	; 0x5768 <show_resis+0x15c>
    575a:	80 e0       	ldi	r24, 0x00	; 0
           } else {
//  #if LCD_LINES>2
//              // make sure we clean the third line, but only if the display actually has a 3rd line
//              lcd_next_line(0);
//  #endif
              lcd_next_line(0);
    575c:	0e 94 73 0e 	call	0x1ce6	; 0x1ce6 <lcd_next_line>
    5760:	80 91 38 01 	lds	r24, 0x0138
	      if (last_line_used == 0) {
    5764:	81 11       	cpse	r24, r1
    5766:	02 c0       	rjmp	.+4      	; 0x576c <show_resis+0x160>
    5768:	0e 94 6d 0e 	call	0x1cda	; 0x1cda <lcd_clear_line>
                 lcd_clear_line();
    576c:	df 91       	pop	r29
 #else		/* without Inductance measurement, only show resistance */
           lcd_line2();
           inductor_lpre = -1;		// prevent ESR measurement because Inductance is not tested
           RvalOut(ResistorList[0]);	// show Resistance, no ESR
 #endif
}  /* end show_resis() */
    576e:	cf 91       	pop	r28
    5770:	1f 91       	pop	r17
    5772:	0f 91       	pop	r16
    5774:	08 95       	ret

00005776 <show_cap>:
    5776:	ef 92       	push	r14
#if FLASHEND > 0x3fff
void show_cap(uint8_t how)
#else
void show_cap_simple(void)
#endif
{
    5778:	ff 92       	push	r15
    577a:	0f 93       	push	r16
    577c:	cf 93       	push	r28
    577e:	df 93       	push	r29
    5780:	d8 2f       	mov	r29, r24
//     lcd_MEM_string(Capacitor);
  lcd_line1();
    5782:	0e 94 d0 0c 	call	0x19a0	; 0x19a0 <lcd_line1>
  lcd_testpin(cap.ca);               //Pin number 1
    5786:	80 91 83 01 	lds	r24, 0x0183
    578a:	0e 94 56 0e 	call	0x1cac	; 0x1cac <lcd_testpin>
  lcd_MEM_string(CapZeich);          // capacitor sign
    578e:	8b e5       	ldi	r24, 0x5B	; 91
    5790:	91 e0       	ldi	r25, 0x01	; 1
    5792:	0e 94 b5 0e 	call	0x1d6a	; 0x1d6a <lcd_fix_string>
#if FLASHEND > 0x1fff
  uint8_t present_res;	// true, if resistor symbol is shown in Row 1
  uint8_t present_esr;
  uint8_t present_vloss;
  GetVloss();              
    5796:	78 d3       	rcall	.+1776   	; 0x5e88 <GetVloss>
    5798:	60 91 83 01 	lds	r22, 0x0183
  cap.esr = GetESR(cap.cb, cap.ca);          // get ESR of capacitor
    579c:	80 91 84 01 	lds	r24, 0x0184
    57a0:	0e 94 00 0b 	call	0x1600	; 0x1600 <GetESR>
    57a4:	90 93 80 01 	sts	0x0180, r25
    57a8:	80 93 7f 01 	sts	0x017F, r24
    57ac:	c1 e0       	ldi	r28, 0x01	; 1

  present_esr = (cap.esr < 65530);
    57ae:	8a 3f       	cpi	r24, 0xFA	; 250
    57b0:	9f 4f       	sbci	r25, 0xFF	; 255
    57b2:	08 f0       	brcs	.+2      	; 0x57b6 <show_cap+0x40>
    57b4:	c0 e0       	ldi	r28, 0x00	; 0
    57b6:	e0 90 81 01 	lds	r14, 0x0181
  present_vloss = (cap.v_loss != 0);
    57ba:	f0 90 82 01 	lds	r15, 0x0182
    57be:	cc 23       	and	r28, r28
  #else
  present_res = (present_esr  && (!present_vloss));
  #endif
  // show Vloss additionally in line 2 , or no Vloss
 #endif
  if (present_res)
    57c0:	21 f0       	breq	.+8      	; 0x57ca <show_cap+0x54>
    57c2:	89 e1       	ldi	r24, 0x19	; 25
  {
     lcd_MEM_string(Resistor_str+1);   // [=]-
    57c4:	91 e0       	ldi	r25, 0x01	; 1
    57c6:	0e 94 b5 0e 	call	0x1d6a	; 0x1d6a <lcd_fix_string>
    57ca:	80 91 84 01 	lds	r24, 0x0184
  }
#endif   /* FLASHEND > 0x1fff */
  lcd_testpin(cap.cb);               //Pin number 2
    57ce:	0e 94 56 0e 	call	0x1cac	; 0x1cac <lcd_testpin>
    57d2:	dd 23       	and	r29, r29

#if FLASHEND > 0x1fff
 #if FLASHEND > 0x3fff
  if (how) {
    57d4:	59 f0       	breq	.+22     	; 0x57ec <show_cap+0x76>
    57d6:	90 91 35 01 	lds	r25, 0x0135
     // Vloss is allways shown in separate line
     lcd_spaces(LCD_LINE_LENGTH - 3 - _lcd_column);
    57da:	8f e0       	ldi	r24, 0x0F	; 15
    57dc:	89 1b       	sub	r24, r25
    57de:	0e 94 5c 0e 	call	0x1cb8	; 0x1cb8 <lcd_spaces>
    57e2:	89 e7       	ldi	r24, 0x79	; 121
     lcd_MEM2_string(CMETER_13_str);       // "[C]" at the end of line 1
    57e4:	90 e0       	ldi	r25, 0x00	; 0
    57e6:	0e 94 b5 0e 	call	0x1d6a	; 0x1d6a <lcd_fix_string>
    57ea:	02 c0       	rjmp	.+4      	; 0x57f0 <show_cap+0x7a>
    57ec:	0e 94 6d 0e 	call	0x1cda	; 0x1cda <lcd_clear_line>
     if (cap.v_loss != 0) {
        lcd_MEM_string(VLOSS_str);      // " Vloss=" 
        DisplayValue16(cap.v_loss,-1,'%',2);
     }
 #endif
     lcd_clear_line();		// clear to end of line
    57f0:	0e 94 23 0d 	call	0x1a46	; 0x1a46 <lcd_line2>
#else
  lcd_clear_line();		// clear to end of line
#endif  /* FLASHEND > 0x1fff */

// - - - - - - - - - - - - - - - - - - - - - -
  lcd_line2();                       //2. row 
    57f4:	60 91 77 01 	lds	r22, 0x0177
  DisplayValue(cap.cval_max,cap.cpre_max,'F',4);
    57f8:	70 91 78 01 	lds	r23, 0x0178
    57fc:	80 91 79 01 	lds	r24, 0x0179
    5800:	90 91 7a 01 	lds	r25, 0x017A
    5804:	04 e0       	ldi	r16, 0x04	; 4
    5806:	26 e4       	ldi	r18, 0x46	; 70
    5808:	40 91 86 01 	lds	r20, 0x0186
    580c:	0e 94 fb 0e 	call	0x1df6	; 0x1df6 <DisplayValue>
    5810:	cc 23       	and	r28, r28

#if FLASHEND > 0x1fff
  if (present_esr) {
    5812:	69 f0       	breq	.+26     	; 0x582e <show_cap+0xb8>
    5814:	8a e4       	ldi	r24, 0x4A	; 74
     lcd_MEM_string(ESR_str);        // " ESR="
    5816:	91 e0       	ldi	r25, 0x01	; 1
    5818:	0e 94 b5 0e 	call	0x1d6a	; 0x1d6a <lcd_fix_string>
    581c:	22 e0       	ldi	r18, 0x02	; 2
     DisplayValue16(cap.esr,-2,LCD_CHAR_OMEGA,2);
    581e:	44 e0       	ldi	r20, 0x04	; 4
    5820:	6e ef       	ldi	r22, 0xFE	; 254
    5822:	80 91 7f 01 	lds	r24, 0x017F
    5826:	90 91 80 01 	lds	r25, 0x0180
    582a:	0e 94 e4 0f 	call	0x1fc8	; 0x1fc8 <DisplayValue16>
    582e:	0e 94 6d 0e 	call	0x1cda	; 0x1cda <lcd_clear_line>
  }
  lcd_clear_line();
    5832:	0e 94 2b 0d 	call	0x1a56	; 0x1a56 <lcd_line3>
// - - - - - - - - - - - - - - - - - - - - - -
 #if LCD_LINES > 2
     lcd_line3();
    5836:	ef 28       	or	r14, r15
     if (present_vloss ) {
    5838:	69 f0       	breq	.+26     	; 0x5854 <show_cap+0xde>
    583a:	83 e4       	ldi	r24, 0x43	; 67
        lcd_MEM_string(&VLOSS_str[1]);      // "Vloss=" 
    583c:	91 e0       	ldi	r25, 0x01	; 1
    583e:	0e 94 b5 0e 	call	0x1d6a	; 0x1d6a <lcd_fix_string>
    5842:	22 e0       	ldi	r18, 0x02	; 2
        DisplayValue16(cap.v_loss,-1,'%',2);
    5844:	45 e2       	ldi	r20, 0x25	; 37
    5846:	6f ef       	ldi	r22, 0xFF	; 255
    5848:	80 91 81 01 	lds	r24, 0x0181
    584c:	90 91 82 01 	lds	r25, 0x0182
    5850:	0e 94 e4 0f 	call	0x1fc8	; 0x1fc8 <DisplayValue16>
    5854:	0e 94 6d 0e 	call	0x1cda	; 0x1cda <lcd_clear_line>
     }
     lcd_clear_line();
    5858:	df 91       	pop	r29
  #endif
 #endif
#else
  lcd_clear_line();
#endif  /* FLASHEND > 0x1fff */
} /* end show_cap or show_cap_simple */
    585a:	cf 91       	pop	r28
    585c:	0f 91       	pop	r16
    585e:	ff 90       	pop	r15
    5860:	ef 90       	pop	r14
    5862:	08 95       	ret

00005864 <Bat_update>:
    5864:	8f 70       	andi	r24, 0x0F	; 15
#endif  /* FLASHEND > 0x3fff */

#if defined(POWER_OFF) && defined(BAT_CHECK)
// monitor Battery in line 4 or line2, if a two line display 
void Bat_update(uint8_t tt) {
  if((tt % 16) == 0) {
    5866:	21 f4       	brne	.+8      	; 0x5870 <Bat_update+0xc>
 #if (LCD_LINES > 3)
     lcd_line4();
    5868:	0e 94 33 0d 	call	0x1a66	; 0x1a66 <lcd_line4>
     Battery_check();
    586c:	0c 94 8b 1c 	jmp	0x3916	; 0x3916 <Battery_check>
    5870:	08 95       	ret

00005872 <Pwr_mode_check>:
};	/* end Bat_update() */
#endif
#if defined(POWER_OFF)
uint8_t Pwr_mode_check(uint8_t tt) {
 #if FLASHEND > 0x1fff
 if ((tt == 15) && (DC_Pwr_mode == 1)) return(0);  // when DC_Mode, next cycle start with 0
    5872:	8f 30       	cpi	r24, 0x0F	; 15
    5874:	21 f4       	brne	.+8      	; 0x587e <Pwr_mode_check+0xc>
    5876:	90 91 2f 01 	lds	r25, 0x012F
    587a:	91 30       	cpi	r25, 0x01	; 1
    587c:	11 f0       	breq	.+4      	; 0x5882 <Pwr_mode_check+0x10>
 #else
 if (tt == 15)  return(0);  // when DC_Mode, next cycle start with 0
 #endif
 return(tt + 1);	// otherwise increase
    587e:	8f 5f       	subi	r24, 0xFF	; 255
    5880:	08 95       	ret
};	/* end Bat_update() */
#endif
#if defined(POWER_OFF)
uint8_t Pwr_mode_check(uint8_t tt) {
 #if FLASHEND > 0x1fff
 if ((tt == 15) && (DC_Pwr_mode == 1)) return(0);  // when DC_Mode, next cycle start with 0
    5882:	80 e0       	ldi	r24, 0x00	; 0
 #else
 if (tt == 15)  return(0);  // when DC_Mode, next cycle start with 0
 #endif
 return(tt + 1);	// otherwise increase
};
    5884:	08 95       	ret

00005886 <show_Resis13>:
/* ****************************************************************** */
/* show_Resis13 measures the resistance of a part connected to TP1 and TP3 */
/* if RMETER_WITH_L is configured, inductance is also measured */
/* ****************************************************************** */

void show_Resis13(void) {
    5886:	cf 93       	push	r28
  uint8_t key_pressed;
  message_key_released(RESIS_13_str);	// "1-|=|-3 .."
    5888:	84 e8       	ldi	r24, 0x84	; 132
    588a:	90 e0       	ldi	r25, 0x00	; 0
    588c:	0e 94 05 36 	call	0x6c0a	; 0x6c0a <message_key_released>
 #ifdef RMETER_WITH_L  
  lcd_set_cursor(0,10);
    5890:	6a e0       	ldi	r22, 0x0A	; 10
    5892:	80 e0       	ldi	r24, 0x00	; 0
    5894:	0e 94 a4 0c 	call	0x1948	; 0x1948 <lcd_set_cursor>
  lcd_MEM_string(RL_METER_str+4);	// "[RL]"
    5898:	88 e7       	ldi	r24, 0x78	; 120
    589a:	93 e0       	ldi	r25, 0x03	; 3
    589c:	0e 94 b5 0e 	call	0x1d6a	; 0x1d6a <lcd_fix_string>
  lcd_set_cursor(0,7);
  lcd_MEM_string(RL_METER_str);		// " [R]" 
 #endif
 #ifdef POWER_OFF
  uint8_t times;
  for (times=0;times<250;) 
    58a0:	c0 e0       	ldi	r28, 0x00	; 0
 #else
  while (1)		/* wait endless without the POWER_OFF option */
 #endif
  {
        init_parts();		// set all parts to nothing found 
    58a2:	0e 94 e2 11 	call	0x23c4	; 0x23c4 <init_parts>
        GetResistance(TP3, TP1);
    58a6:	60 e0       	ldi	r22, 0x00	; 0
    58a8:	82 e0       	ldi	r24, 0x02	; 2
    58aa:	0e 94 14 24 	call	0x4828	; 0x4828 <GetResistance>
        GetResistance(TP1, TP3);
    58ae:	62 e0       	ldi	r22, 0x02	; 2
    58b0:	80 e0       	ldi	r24, 0x00	; 0
    58b2:	0e 94 14 24 	call	0x4828	; 0x4828 <GetResistance>
	lcd_line1();		// lcd_set_cursor(0,0);
    58b6:	0e 94 d0 0c 	call	0x19a0	; 0x19a0 <lcd_line1>
        if (ResistorsFound != 0) {
    58ba:	80 91 6f 01 	lds	r24, 0x016F
    58be:	88 23       	and	r24, r24
    58c0:	29 f0       	breq	.+10     	; 0x58cc <show_Resis13+0x46>
           show_resis(TP1,TP3,1);
    58c2:	41 e0       	ldi	r20, 0x01	; 1
    58c4:	62 e0       	ldi	r22, 0x02	; 2
    58c6:	80 e0       	ldi	r24, 0x00	; 0
    58c8:	a1 de       	rcall	.-702    	; 0x560c <show_resis>
    58ca:	12 c0       	rjmp	.+36     	; 0x58f0 <show_Resis13+0x6a>
    58cc:	84 e8       	ldi	r24, 0x84	; 132
        } else {		/* no resistor found */
 #if defined(SamplingADC) && defined(AUTO_LC_CAP)
	   sampling_lc_calibrate(249);		// try a short time to fetch new capacity value
 #endif
           lcd_MEM_string(RESIS_13_str);
    58ce:	90 e0       	ldi	r25, 0x00	; 0
    58d0:	0e 94 b5 0e 	call	0x1d6a	; 0x1d6a <lcd_fix_string>
    58d4:	88 e7       	ldi	r24, 0x78	; 120
 #ifdef RMETER_WITH_L  
           lcd_MEM_string(RL_METER_str+4);	// "[RL]"
    58d6:	93 e0       	ldi	r25, 0x03	; 3
    58d8:	0e 94 b5 0e 	call	0x1d6a	; 0x1d6a <lcd_fix_string>
    58dc:	0e 94 23 0d 	call	0x1a46	; 0x1a46 <lcd_line2>
 #else	   
           lcd_MEM_string(RL_METER_str);	// " [R]"
 #endif
           lcd_line2();
    58e0:	8f e3       	ldi	r24, 0x3F	; 63
           lcd_data('?');		// too big
    58e2:	0e 94 0c 0e 	call	0x1c18	; 0x1c18 <lcd_data>
    58e6:	80 e0       	ldi	r24, 0x00	; 0
 #if LCD_LINES>2
           lcd_next_line(0);
    58e8:	0e 94 73 0e 	call	0x1ce6	; 0x1ce6 <lcd_next_line>
    58ec:	0e 94 6d 0e 	call	0x1cda	; 0x1cda <lcd_clear_line>
 #endif
           lcd_clear_line();
    58f0:	8c 2f       	mov	r24, r28
        }
 #if defined(POWER_OFF) && defined(BAT_CHECK)
     Bat_update(times);
    58f2:	b8 df       	rcall	.-144    	; 0x5864 <Bat_update>
    58f4:	88 ee       	ldi	r24, 0xE8	; 232
    58f6:	93 e0       	ldi	r25, 0x03	; 3
 #endif
     key_pressed = wait_for_key_ms(1000);
    58f8:	0e 94 52 11 	call	0x22a4	; 0x22a4 <wait_for_key_ms>
    58fc:	81 11       	cpse	r24, r1
    58fe:	05 c0       	rjmp	.+10     	; 0x590a <show_Resis13+0x84>
 #ifdef WITH_ROTARY_SWITCH
     if ((key_pressed != 0) || (rotary.incre > 3)) break;
 #else
     if (key_pressed != 0) break;
    5900:	8c 2f       	mov	r24, r28
    5902:	b7 df       	rcall	.-146    	; 0x5872 <Pwr_mode_check>
 #endif
 #if defined(POWER_OFF)
     times = Pwr_mode_check(times);	// no time limit with DC_Pwr_mode
    5904:	c8 2f       	mov	r28, r24
    5906:	8a 3f       	cpi	r24, 0xFA	; 250
    5908:	60 f2       	brcs	.-104    	; 0x58a2 <show_Resis13+0x1c>
    590a:	0e 94 d7 0c 	call	0x19ae	; 0x19ae <lcd_clear>
  lcd_set_cursor(0,7);
  lcd_MEM_string(RL_METER_str);		// " [R]" 
 #endif
 #ifdef POWER_OFF
  uint8_t times;
  for (times=0;times<250;) 
    590e:	cf 91       	pop	r28
 #endif
 #if defined(POWER_OFF)
     times = Pwr_mode_check(times);	// no time limit with DC_Pwr_mode
 #endif
  }  /* end for times */
  lcd_clear();
    5910:	08 95       	ret

00005912 <show_Cap13>:
    5912:	0f 93       	push	r16
} /* end show_Resis13() */
    5914:	1f 93       	push	r17
    5916:	cf 93       	push	r28
 #if (LCD_LINES > 2)
  #define SCREEN_TIME 1000
 #else
  #define SCREEN_TIME 2000	/* line 2 is multi use, wait longer to read */
 #endif
void show_Cap13(void) {
    5918:	df 93       	push	r29
  uint8_t key_pressed;

//  lcd_clear();
 #ifdef POWER_OFF
  uint8_t times;
  for (times=0;times<250;) 
    591a:	c0 e0       	ldi	r28, 0x00	; 0
 #endif
  {
     init_parts();		// set all parts to nothing found 
//     cap.v_loss = 0;		// clear vloss  for low capacity values (<25pF)!
     ReadCapacity(TP3, TP1);
     PartFound = PART_CAPACITOR;
    591c:	d8 e0       	ldi	r29, 0x08	; 8
 #ifdef SamplingADC
     if (cap.cpre==-12 && cap.cval<100) {
        // if below 100 pF, try the alternative measuring method for small capacitors
        cap.cval = sampling_cap(TP3,TP1,0);
        cap.cpre = sampling_cap_pre;
    591e:	12 ef       	ldi	r17, 0xF2	; 242
       cap.cval_max = cap.cval;
       show_cap(1);		// with [C] at the end of line
     } else { /* no cap detected */
       lcd_line1();
       lcd_MEM2_string(CAP_13_str);	// 1-||-3
       lcd_spaces(LCD_LINE_LENGTH - 3 - _lcd_column);
    5920:	0f e0       	ldi	r16, 0x0F	; 15
  for (times=0;times<250;) 
 #else
  while (1)		/* wait endless without the POWER_OFF option */
 #endif
  {
     init_parts();		// set all parts to nothing found 
    5922:	0e 94 e2 11 	call	0x23c4	; 0x23c4 <init_parts>
//     cap.v_loss = 0;		// clear vloss  for low capacity values (<25pF)!
     ReadCapacity(TP3, TP1);
    5926:	60 e0       	ldi	r22, 0x00	; 0
    5928:	82 e0       	ldi	r24, 0x02	; 2
    592a:	7c da       	rcall	.-2824   	; 0x4e24 <ReadCapacity>
    592c:	d0 93 13 01 	sts	0x0113, r29
     PartFound = PART_CAPACITOR;
    5930:	80 91 85 01 	lds	r24, 0x0185
 #ifdef SamplingADC
     if (cap.cpre==-12 && cap.cval<100) {
    5934:	84 3f       	cpi	r24, 0xF4	; 244
    5936:	e1 f4       	brne	.+56     	; 0x5970 <show_Cap13+0x5e>
    5938:	80 91 73 01 	lds	r24, 0x0173
    593c:	90 91 74 01 	lds	r25, 0x0174
    5940:	a0 91 75 01 	lds	r26, 0x0175
    5944:	b0 91 76 01 	lds	r27, 0x0176
    5948:	84 36       	cpi	r24, 0x64	; 100
    594a:	91 05       	cpc	r25, r1
    594c:	a1 05       	cpc	r26, r1
    594e:	b1 05       	cpc	r27, r1
    5950:	78 f4       	brcc	.+30     	; 0x5970 <show_Cap13+0x5e>
    5952:	40 e0       	ldi	r20, 0x00	; 0
        // if below 100 pF, try the alternative measuring method for small capacitors
        cap.cval = sampling_cap(TP3,TP1,0);
    5954:	60 e0       	ldi	r22, 0x00	; 0
    5956:	82 e0       	ldi	r24, 0x02	; 2
    5958:	0e 94 b1 38 	call	0x7162	; 0x7162 <sampling_cap>
    595c:	60 93 73 01 	sts	0x0173, r22
    5960:	70 93 74 01 	sts	0x0174, r23
    5964:	80 93 75 01 	sts	0x0175, r24
    5968:	90 93 76 01 	sts	0x0176, r25
    596c:	10 93 85 01 	sts	0x0185, r17
        cap.cpre = sampling_cap_pre;
    5970:	80 91 85 01 	lds	r24, 0x0185
     }
 #endif
     if (cap.cpre > -15) {	/* Capacity below the detection limit */
    5974:	82 3f       	cpi	r24, 0xF2	; 242
    5976:	ac f0       	brlt	.+42     	; 0x59a2 <show_Cap13+0x90>
    5978:	80 93 86 01 	sts	0x0186, r24
       cap.cpre_max = cap.cpre;		// show_cap will display the cap.cval_max value
    597c:	80 91 73 01 	lds	r24, 0x0173
       cap.cval_max = cap.cval;
    5980:	90 91 74 01 	lds	r25, 0x0174
    5984:	a0 91 75 01 	lds	r26, 0x0175
    5988:	b0 91 76 01 	lds	r27, 0x0176
    598c:	80 93 77 01 	sts	0x0177, r24
    5990:	90 93 78 01 	sts	0x0178, r25
    5994:	a0 93 79 01 	sts	0x0179, r26
    5998:	b0 93 7a 01 	sts	0x017A, r27
    599c:	81 e0       	ldi	r24, 0x01	; 1
       show_cap(1);		// with [C] at the end of line
    599e:	eb de       	rcall	.-554    	; 0x5776 <show_cap>
    59a0:	1c c0       	rjmp	.+56     	; 0x59da <show_Cap13+0xc8>
    59a2:	0e 94 d0 0c 	call	0x19a0	; 0x19a0 <lcd_line1>
     } else { /* no cap detected */
       lcd_line1();
    59a6:	8d e7       	ldi	r24, 0x7D	; 125
    59a8:	90 e0       	ldi	r25, 0x00	; 0
       lcd_MEM2_string(CAP_13_str);	// 1-||-3
    59aa:	0e 94 b5 0e 	call	0x1d6a	; 0x1d6a <lcd_fix_string>
    59ae:	80 91 35 01 	lds	r24, 0x0135
       lcd_spaces(LCD_LINE_LENGTH - 3 - _lcd_column);
    59b2:	90 2f       	mov	r25, r16
    59b4:	98 1b       	sub	r25, r24
    59b6:	89 2f       	mov	r24, r25
    59b8:	0e 94 5c 0e 	call	0x1cb8	; 0x1cb8 <lcd_spaces>
    59bc:	89 e7       	ldi	r24, 0x79	; 121
    59be:	90 e0       	ldi	r25, 0x00	; 0
       lcd_MEM2_string(CMETER_13_str);       // "[C]" at the end of line 1
    59c0:	0e 94 b5 0e 	call	0x1d6a	; 0x1d6a <lcd_fix_string>
    59c4:	0e 94 23 0d 	call	0x1a46	; 0x1a46 <lcd_line2>
       lcd_line2();
    59c8:	8f e3       	ldi	r24, 0x3F	; 63
    59ca:	0e 94 0c 0e 	call	0x1c18	; 0x1c18 <lcd_data>
       lcd_data('?');
    59ce:	0e 94 6d 0e 	call	0x1cda	; 0x1cda <lcd_clear_line>
       lcd_clear_line();		// clear to end of line 2
    59d2:	0e 94 2b 0d 	call	0x1a56	; 0x1a56 <lcd_line3>
 #if (LCD_LINES > 2)
       lcd_line3();	
    59d6:	0e 94 6d 0e 	call	0x1cda	; 0x1cda <lcd_clear_line>
       lcd_clear_line();	// clear old Vloss= message
    59da:	8c 2f       	mov	r24, r28
    59dc:	43 df       	rcall	.-378    	; 0x5864 <Bat_update>
 #endif
     }
 #if defined(POWER_OFF) && defined(BAT_CHECK)
     Bat_update(times);
    59de:	88 ee       	ldi	r24, 0xE8	; 232
    59e0:	93 e0       	ldi	r25, 0x03	; 3
    59e2:	0e 94 52 11 	call	0x22a4	; 0x22a4 <wait_for_key_ms>
 #endif
     key_pressed = wait_for_key_ms(SCREEN_TIME);
    59e6:	81 11       	cpse	r24, r1
    59e8:	06 c0       	rjmp	.+12     	; 0x59f6 <show_Cap13+0xe4>
    59ea:	8c 2f       	mov	r24, r28
 #ifdef WITH_ROTARY_SWITCH
     if ((key_pressed != 0) || (rotary.incre > 3)) break;
 #else
     if (key_pressed != 0) break;
    59ec:	42 df       	rcall	.-380    	; 0x5872 <Pwr_mode_check>
    59ee:	c8 2f       	mov	r28, r24
 #endif
 #if defined(POWER_OFF)
     times = Pwr_mode_check(times);	// no time limit with DC_Pwr_mode
    59f0:	8a 3f       	cpi	r24, 0xFA	; 250
    59f2:	08 f4       	brcc	.+2      	; 0x59f6 <show_Cap13+0xe4>
    59f4:	96 cf       	rjmp	.-212    	; 0x5922 <show_Cap13+0x10>
    59f6:	0e 94 d7 0c 	call	0x19ae	; 0x19ae <lcd_clear>
  uint8_t key_pressed;

//  lcd_clear();
 #ifdef POWER_OFF
  uint8_t times;
  for (times=0;times<250;) 
    59fa:	df 91       	pop	r29
    59fc:	cf 91       	pop	r28
 #endif
 #if defined(POWER_OFF)
     times = Pwr_mode_check(times);	// no time limit with DC_Pwr_mode
 #endif
  }  /* end for times */
  lcd_clear();		// clear to end of line
    59fe:	1f 91       	pop	r17
    5a00:	0f 91       	pop	r16
} /* end show_Cap13() */
    5a02:	08 95       	ret

00005a04 <ReadInductance>:
    5a04:	a8 e1       	ldi	r26, 0x18	; 24
    5a06:	b0 e0       	ldi	r27, 0x00	; 0
    5a08:	e8 e0       	ldi	r30, 0x08	; 8
    5a0a:	fd e2       	ldi	r31, 0x2D	; 45
#include <stdlib.h>
#include "Transistortester.h"


//=================================================================
void ReadInductance(void) {
    5a0c:	0c 94 1d 3e 	jmp	0x7c3a	; 0x7c3a <__prologue_saves__>
  uint16_t pw;		// return value from Rnum2pins()
  uint8_t pb[2];	// the pin numbers LowPin and HighPin
  } rpins;	// resistor pin structure to prevent two return parameters


  inductor_lpre = 2;	// H units, mark inductor as 1, if resistor is too big
    5a10:	82 e0       	ldi	r24, 0x02	; 2
    5a12:	80 93 19 01 	sts	0x0119, r24
  if(PartFound != PART_RESISTOR) {
    5a16:	80 91 13 01 	lds	r24, 0x0113
    5a1a:	81 30       	cpi	r24, 0x01	; 1
    5a1c:	09 f0       	breq	.+2      	; 0x5a20 <ReadInductance+0x1c>
    5a1e:	30 c2       	rjmp	.+1120   	; 0x5e80 <ReadInductance+0x47c>
     return;	//We have found no resistor  
  }
  if (ResistorsFound != 1) {
    5a20:	80 91 6f 01 	lds	r24, 0x016F
    5a24:	81 30       	cpi	r24, 0x01	; 1
    5a26:	09 f0       	breq	.+2      	; 0x5a2a <ReadInductance+0x26>
    5a28:	2b c2       	rjmp	.+1110   	; 0x5e80 <ReadInductance+0x47c>
     return;	// do not search for inductance, more than 1 resistor
  }
     res_num = ResistorList[0];
    5a2a:	20 91 56 01 	lds	r18, 0x0156
    5a2e:	29 8b       	std	Y+17, r18	; 0x11
     if (ResistorVal[res_num] > 21000) return;
    5a30:	34 e0       	ldi	r19, 0x04	; 4
    5a32:	23 9f       	mul	r18, r19
    5a34:	f0 01       	movw	r30, r0
    5a36:	11 24       	eor	r1, r1
    5a38:	ea 55       	subi	r30, 0x5A	; 90
    5a3a:	fe 4f       	sbci	r31, 0xFE	; 254
    5a3c:	40 80       	ld	r4, Z
    5a3e:	51 80       	ldd	r5, Z+1	; 0x01
    5a40:	62 80       	ldd	r6, Z+2	; 0x02
    5a42:	73 80       	ldd	r7, Z+3	; 0x03
    5a44:	49 e0       	ldi	r20, 0x09	; 9
    5a46:	44 16       	cp	r4, r20
    5a48:	42 e5       	ldi	r20, 0x52	; 82
    5a4a:	54 06       	cpc	r5, r20
    5a4c:	61 04       	cpc	r6, r1
    5a4e:	71 04       	cpc	r7, r1
    5a50:	08 f0       	brcs	.+2      	; 0x5a54 <ReadInductance+0x50>
    5a52:	16 c2       	rjmp	.+1068   	; 0x5e80 <ReadInductance+0x47c>
     resistor = ResistorVal[res_num];
    5a54:	5b 8a       	std	Y+19, r5	; 0x13
    5a56:	4a 8a       	std	Y+18, r4	; 0x12

     // we can check for Inductance, if resistance is below 2100 Ohm
     for (count=0;count<4;count++) {
    5a58:	10 e0       	ldi	r17, 0x00	; 0
        // Try four times (different direction and with delayed counter start)
        if (count < 2) {
           // first and second pass, direction 1
           rpins.pw = Rnum2pins(res_num);	// compute the two pinnumbers for resistor res_num
    5a5a:	89 89       	ldd	r24, Y+17	; 0x11
     resistor = ResistorVal[res_num];

     // we can check for Inductance, if resistance is below 2100 Ohm
     for (count=0;count<4;count++) {
        // Try four times (different direction and with delayed counter start)
        if (count < 2) {
    5a5c:	12 30       	cpi	r17, 0x02	; 2
    5a5e:	28 f4       	brcc	.+10     	; 0x5a6a <ReadInductance+0x66>
           // first and second pass, direction 1
           rpins.pw = Rnum2pins(res_num);	// compute the two pinnumbers for resistor res_num
    5a60:	0e 94 d6 08 	call	0x11ac	; 0x11ac <Rnum2pins>
    5a64:	b8 2e       	mov	r11, r24
    5a66:	a9 2e       	mov	r10, r25
    5a68:	03 c0       	rjmp	.+6      	; 0x5a70 <ReadInductance+0x6c>
        } else {
           // third and fourth pass, direction 2
           rpins.pw = Rnum2pins(res_num);	// compute the two pinnumbers for resistor res_num
    5a6a:	0e 94 d6 08 	call	0x11ac	; 0x11ac <Rnum2pins>
           ii = rpins.pb[0];
           rpins.pb[0] = rpins.pb[1];		// swap the pins LowPin and HighPin
           rpins.pb[1] = ii;
    5a6e:	5c 01       	movw	r10, r24
        }
#if (((PIN_RL1 + 1) != PIN_RH1) || ((PIN_RL2 + 1) != PIN_RH2) || ((PIN_RL3 + 1) != PIN_RH3))
        HiADC = pgm_read_byte((&PinRLRHADCtab[6])+rpins.pb[1]-TP_MIN);	// Table of ADC Pins including | TXD_VAL
#else
        HiADC = pgm_read_byte((&PinRLRHADCtab[3])+rpins.pb[1]-TP_MIN);	// Table of ADC Pins including | TXD_VAL
    5a70:	ea 2d       	mov	r30, r10
    5a72:	f0 e0       	ldi	r31, 0x00	; 0
    5a74:	e8 5a       	subi	r30, 0xA8	; 168
    5a76:	fd 4f       	sbci	r31, 0xFD	; 253
    5a78:	24 91       	lpm	r18, Z
#endif
        LoPinR_L = pgm_read_byte(&PinRLRHADCtab[rpins.pb[0]]-TP_MIN);	//R_L mask for HighPin R_L load
    5a7a:	8b 2d       	mov	r24, r11
    5a7c:	90 e0       	ldi	r25, 0x00	; 0
    5a7e:	fc 01       	movw	r30, r24
    5a80:	eb 5a       	subi	r30, 0xAB	; 171
    5a82:	fd 4f       	sbci	r31, 0xFD	; 253
    5a84:	e4 91       	lpm	r30, Z
        //==================================================================================
        // Measurement of Inductance values
        R_PORT = 0;		// switch R port to GND
    5a86:	15 b8       	out	0x05, r1	; 5
        ADC_PORT =   TXD_VAL;		// switch ADC-Port to GND
    5a88:	58 e0       	ldi	r21, 0x08	; 8
    5a8a:	58 b9       	out	0x08, r21	; 8
        if ((resistor < 240) && ((count & 0x01) == 0)) {
    5a8c:	30 ef       	ldi	r19, 0xF0	; 240
    5a8e:	43 16       	cp	r4, r19
    5a90:	51 04       	cpc	r5, r1
    5a92:	61 04       	cpc	r6, r1
    5a94:	71 04       	cpc	r7, r1
    5a96:	b8 f4       	brcc	.+46     	; 0x5ac6 <ReadInductance+0xc2>
    5a98:	10 fd       	sbrc	r17, 0
    5a9a:	15 c0       	rjmp	.+42     	; 0x5ac6 <ReadInductance+0xc2>
           // we can use PinR_L for measurement
           mess_r = RR680MI - R_L_VAL;			// use only pin output resistance
    5a9c:	20 90 0d 01 	lds	r2, 0x010D
    5aa0:	30 90 0e 01 	lds	r3, 0x010E
    5aa4:	40 e9       	ldi	r20, 0x90	; 144
    5aa6:	24 1a       	sub	r2, r20
    5aa8:	4a e1       	ldi	r20, 0x1A	; 26
    5aaa:	34 0a       	sbc	r3, r20
           ADC_DDR = HiADC | (1<<rpins.pb[0]) | TXD_MSK;	// switch HiADC and Low Pin to GND, 
    5aac:	41 e0       	ldi	r20, 0x01	; 1
    5aae:	50 e0       	ldi	r21, 0x00	; 0
    5ab0:	0b 2c       	mov	r0, r11
    5ab2:	02 c0       	rjmp	.+4      	; 0x5ab8 <ReadInductance+0xb4>
    5ab4:	44 0f       	add	r20, r20
    5ab6:	55 1f       	adc	r21, r21
    5ab8:	0a 94       	dec	r0
    5aba:	e2 f7       	brpl	.-8      	; 0x5ab4 <ReadInductance+0xb0>
    5abc:	ca 01       	movw	r24, r20
    5abe:	88 60       	ori	r24, 0x08	; 8
    5ac0:	82 2b       	or	r24, r18
    5ac2:	87 b9       	out	0x07, r24	; 7
    5ac4:	08 c0       	rjmp	.+16     	; 0x5ad6 <ReadInductance+0xd2>
        } else {
           R_DDR = LoPinR_L;   		// switch R_L resistor port for LowPin to output (GND)
    5ac6:	e4 b9       	out	0x04, r30	; 4
           ADC_DDR = HiADC | TXD_MSK;	// switch HiADC Pin to GND 
    5ac8:	82 2f       	mov	r24, r18
    5aca:	88 60       	ori	r24, 0x08	; 8
    5acc:	87 b9       	out	0x07, r24	; 7
           mess_r = RR680MI;			// use 680 Ohm and PinR_L for current measurement
    5ace:	20 90 0d 01 	lds	r2, 0x010D
    5ad2:	30 90 0e 01 	lds	r3, 0x010E
     res_num = ResistorList[0];
     if (ResistorVal[res_num] > 21000) return;
     resistor = ResistorVal[res_num];

     // we can check for Inductance, if resistance is below 2100 Ohm
     for (count=0;count<4;count++) {
    5ad6:	04 e1       	ldi	r16, 0x14	; 20
           mess_r = RR680MI;			// use 680 Ohm and PinR_L for current measurement
        }
        // Look, if we can detect any current
        for (ii=0;ii<20;ii++) {
            // wait for current is near zero
            umax = W10msReadADC(rpins.pb[0]);
    5ad8:	8b 2d       	mov	r24, r11
    5ada:	28 8f       	std	Y+24, r18	; 0x18
    5adc:	0e 94 cb 09 	call	0x1396	; 0x1396 <W10msReadADC>
    5ae0:	4c 01       	movw	r8, r24
            total_r =  ReadADC(rpins.pb[1]);
    5ae2:	8a 2d       	mov	r24, r10
    5ae4:	0e 94 d3 09 	call	0x13a6	; 0x13a6 <ReadADC>
            if ((umax < CAP_EMPTY_LEVEL) && (total_r < CAP_EMPTY_LEVEL)) break;	// low current detected
    5ae8:	28 8d       	ldd	r18, Y+24	; 0x18
    5aea:	54 e0       	ldi	r21, 0x04	; 4
    5aec:	85 16       	cp	r8, r21
    5aee:	91 04       	cpc	r9, r1
    5af0:	10 f4       	brcc	.+4      	; 0x5af6 <ReadInductance+0xf2>
    5af2:	04 97       	sbiw	r24, 0x04	; 4
    5af4:	10 f0       	brcs	.+4      	; 0x5afa <ReadInductance+0xf6>
    5af6:	01 50       	subi	r16, 0x01	; 1
           R_DDR = LoPinR_L;   		// switch R_L resistor port for LowPin to output (GND)
           ADC_DDR = HiADC | TXD_MSK;	// switch HiADC Pin to GND 
           mess_r = RR680MI;			// use 680 Ohm and PinR_L for current measurement
        }
        // Look, if we can detect any current
        for (ii=0;ii<20;ii++) {
    5af8:	79 f7       	brne	.-34     	; 0x5ad8 <ReadInductance+0xd4>
            umax = W10msReadADC(rpins.pb[0]);
            total_r =  ReadADC(rpins.pb[1]);
            if ((umax < CAP_EMPTY_LEVEL) && (total_r < CAP_EMPTY_LEVEL)) break;	// low current detected
        }
        // setup Analog Comparator
        ADC_COMP_CONTROL = (1<<ACME);			//enable Analog Comparator Multiplexer
    5afa:	80 e4       	ldi	r24, 0x40	; 64
    5afc:	80 93 7b 00 	sts	0x007B, r24
        ACSR =  (1<<ACBG) | (1<<ACI)  | (1<<ACIC);	// enable, 1.3V, no Interrupt, Connect to Timer1 
    5b00:	94 e5       	ldi	r25, 0x54	; 84
    5b02:	90 bf       	out	0x30, r25	; 48
        ADMUX = (1<<REFS0) | rpins.pb[0];			// switch Mux to Low-Pin
    5b04:	8b 2d       	mov	r24, r11
    5b06:	80 64       	ori	r24, 0x40	; 64
    5b08:	80 93 7c 00 	sts	0x007C, r24
        ADCSRA = (1<<ADIF) | AUTO_CLOCK_DIV; //disable ADC
    5b0c:	87 e1       	ldi	r24, 0x17	; 23
    5b0e:	80 93 7a 00 	sts	0x007A, r24
   
      // setup Counter1
        timeconstant.w[1] = 0;		// set ov counter to 0
    5b12:	e1 2c       	mov	r14, r1
    5b14:	f1 2c       	mov	r15, r1
        TCCR1A = 0;			// set Counter1 to normal Mode
    5b16:	10 92 80 00 	sts	0x0080, r1
        TCNT1 = 0;			//set Counter to 0
    5b1a:	10 92 85 00 	sts	0x0085, r1
    5b1e:	10 92 84 00 	sts	0x0084, r1
        TI1_INT_FLAGS = (1<<ICF1) | (1<<OCF1B) | (1<<OCF1A) | (1<<TOV1);	// reset TIFR or TIFR1
    5b22:	87 e2       	ldi	r24, 0x27	; 39
    5b24:	86 bb       	out	0x16, r24	; 22
//        HiADC |= TXD_VAL;
        wait200us();			// wait for bandgap to start up
    5b26:	28 8f       	std	Y+24, r18	; 0x18
    5b28:	0e 94 8d 09 	call	0x131a	; 0x131a <wait200us>
        if ((count & 0x01) == 0 ) {
    5b2c:	01 2f       	mov	r16, r17
    5b2e:	01 70       	andi	r16, 0x01	; 1
    5b30:	28 8d       	ldd	r18, Y+24	; 0x18
    5b32:	10 fd       	sbrc	r17, 0
    5b34:	05 c0       	rjmp	.+10     	; 0x5b40 <ReadInductance+0x13c>
           //first start counter, then start current
           TCCR1B =  (1<<ICNC1) | (0<<ICES1) | (1<<CS10);	//start counter 1MHz or 8MHz
    5b36:	81 e8       	ldi	r24, 0x81	; 129
    5b38:	80 93 81 00 	sts	0x0081, r24
           ADC_PORT = HiADC;		// switch ADC-Port to VCC
    5b3c:	28 b9       	out	0x08, r18	; 8
    5b3e:	08 c0       	rjmp	.+16     	; 0x5b50 <ReadInductance+0x14c>
        } else {
           //first start current, then start counter with delay
           //parasitic capacity of coil can cause high current at the beginning
           ADC_PORT = HiADC;		// switch ADC-Port to VCC
    5b40:	28 b9       	out	0x08, r18	; 8
      #if F_CPU >= 8000000UL
           wait3us();		// ignore current peak from capacity
    5b42:	0e 94 96 09 	call	0x132c	; 0x132c <wait3us>
      #else
           wdt_reset();			// delay
           wdt_reset();			// delay
      #endif
           TI1_INT_FLAGS = (1<<ICF1);	// Reset Input Capture
    5b46:	80 e2       	ldi	r24, 0x20	; 32
    5b48:	86 bb       	out	0x16, r24	; 22
           TCCR1B =  (1<<ICNC1) | (0<<ICES1) | (1<<CS10);	//start counter 1MHz or 8MHz
    5b4a:	81 e8       	ldi	r24, 0x81	; 129
    5b4c:	80 93 81 00 	sts	0x0081, r24
        }
      
      //******************************
        while(1) {
           // Wait, until  Input Capture is set
           ii = TI1_INT_FLAGS;		//read Timer flags
    5b50:	86 b3       	in	r24, 0x16	; 22
           if (ii & (1<<ICF1))  {
    5b52:	85 fd       	sbrc	r24, 5
    5b54:	0c c0       	rjmp	.+24     	; 0x5b6e <ReadInductance+0x16a>
              break;
           }
           if((ii & (1<<TOV1))) {		// counter overflow, 65.536 ms @ 1MHz, 8.192ms @ 8MHz
    5b56:	80 ff       	sbrs	r24, 0
    5b58:	fb cf       	rjmp	.-10     	; 0x5b50 <ReadInductance+0x14c>
              TI1_INT_FLAGS = (1<<TOV1);	// Reset OV Flag
    5b5a:	21 e0       	ldi	r18, 0x01	; 1
    5b5c:	26 bb       	out	0x16, r18	; 22
              wdt_reset();
    5b5e:	a8 95       	wdr
              timeconstant.w[1]++;		// count one OV
    5b60:	97 01       	movw	r18, r14
    5b62:	2f 5f       	subi	r18, 0xFF	; 255
    5b64:	3f 4f       	sbci	r19, 0xFF	; 255
    5b66:	79 01       	movw	r14, r18
              if(timeconstant.w[1] == (F_CPU/100000UL)) {
    5b68:	20 3a       	cpi	r18, 0xA0	; 160
    5b6a:	31 05       	cpc	r19, r1
    5b6c:	89 f7       	brne	.-30     	; 0x5b50 <ReadInductance+0x14c>
                 break; 	//Timeout for Charging, above 0.65 s
              }
           }
        }
        ADC_PORT = TXD_VAL;		// switch ADC-Port to GND
    5b6e:	38 e0       	ldi	r19, 0x08	; 8
    5b70:	38 b9       	out	0x08, r19	; 8
        TCCR1B = (0<<ICNC1) | (0<<ICES1) | (0<<CS10);  // stop counter
    5b72:	10 92 81 00 	sts	0x0081, r1
        TI1_INT_FLAGS = (1<<ICF1);			// Reset Input Capture
    5b76:	90 e2       	ldi	r25, 0x20	; 32
    5b78:	96 bb       	out	0x16, r25	; 22
        timeconstant.w[0] = ICR1;		// get previous Input Capture Counter flag
    5b7a:	20 91 86 00 	lds	r18, 0x0086
    5b7e:	30 91 87 00 	lds	r19, 0x0087
    5b82:	69 01       	movw	r12, r18
      // check actual counter, if an additional overflow must be added
        if((TCNT1 > timeconstant.w[0]) && (ii & (1<<TOV1))) {
    5b84:	40 91 84 00 	lds	r20, 0x0084
    5b88:	50 91 85 00 	lds	r21, 0x0085
    5b8c:	24 17       	cp	r18, r20
    5b8e:	35 07       	cpc	r19, r21
    5b90:	38 f4       	brcc	.+14     	; 0x5ba0 <ReadInductance+0x19c>
    5b92:	80 ff       	sbrs	r24, 0
    5b94:	05 c0       	rjmp	.+10     	; 0x5ba0 <ReadInductance+0x19c>
           // this OV was not counted, but was before the Input Capture
           TI1_INT_FLAGS = (1<<TOV1);		// Reset OV Flag
    5b96:	41 e0       	ldi	r20, 0x01	; 1
    5b98:	46 bb       	out	0x16, r20	; 22
           timeconstant.w[1]++;			// count one additional OV
    5b9a:	5f ef       	ldi	r21, 0xFF	; 255
    5b9c:	e5 1a       	sub	r14, r21
    5b9e:	f5 0a       	sbc	r15, r21
        }

//        ADC_PORT = TXD_VAL;		// switch ADC-Port to GND
        ADCSRA = (1<<ADEN) | (1<<ADIF) | AUTO_CLOCK_DIV; //enable ADC
    5ba0:	87 e9       	ldi	r24, 0x97	; 151
    5ba2:	80 93 7a 00 	sts	0x007A, r24
    5ba6:	24 e1       	ldi	r18, 0x14	; 20
        for (ii=0;ii<20;ii++) {
            // wait for current is near zero
            umax = W10msReadADC(rpins.pb[0]);
    5ba8:	8b 2d       	mov	r24, r11
    5baa:	28 8f       	std	Y+24, r18	; 0x18
    5bac:	0e 94 cb 09 	call	0x1396	; 0x1396 <W10msReadADC>
    5bb0:	4c 01       	movw	r8, r24
            total_r =  ReadADC(rpins.pb[1]);
    5bb2:	8a 2d       	mov	r24, r10
    5bb4:	0e 94 d3 09 	call	0x13a6	; 0x13a6 <ReadADC>
            if ((umax < CAP_EMPTY_LEVEL) && (total_r < CAP_EMPTY_LEVEL)) break;	// low current detected
    5bb8:	28 8d       	ldd	r18, Y+24	; 0x18
    5bba:	34 e0       	ldi	r19, 0x04	; 4
    5bbc:	83 16       	cp	r8, r19
    5bbe:	91 04       	cpc	r9, r1
    5bc0:	10 f4       	brcc	.+4      	; 0x5bc6 <ReadInductance+0x1c2>
    5bc2:	04 97       	sbiw	r24, 0x04	; 4
    5bc4:	10 f0       	brcs	.+4      	; 0x5bca <ReadInductance+0x1c6>
    5bc6:	21 50       	subi	r18, 0x01	; 1
           timeconstant.w[1]++;			// count one additional OV
        }

//        ADC_PORT = TXD_VAL;		// switch ADC-Port to GND
        ADCSRA = (1<<ADEN) | (1<<ADIF) | AUTO_CLOCK_DIV; //enable ADC
        for (ii=0;ii<20;ii++) {
    5bc8:	79 f7       	brne	.-34     	; 0x5ba8 <ReadInductance+0x1a4>
    5bca:	80 90 32 01 	lds	r8, 0x0132
    5bce:	90 90 33 01 	lds	r9, 0x0133
    5bd2:	4a 89       	ldd	r20, Y+18	; 0x12
    5bd4:	5b 89       	ldd	r21, Y+19	; 0x13
    5bd6:	84 0e       	add	r8, r20
    5bd8:	95 1e       	adc	r9, r21
//  #undef CNT_ZERO_42
//  #undef CNT_ZERO_720
//  #define CNT_ZERO_42 7
//  #define CNT_ZERO_720 10
//#endif
        total_r = (mess_r + resistor + RRpinMI);
    5bda:	82 0c       	add	r8, r2
    5bdc:	93 1c       	adc	r9, r3
//        cnt_diff = 0;
//        if (total_r > 7000) cnt_diff = 1;
//        if (total_r > 14000) cnt_diff = 2;
        cnt_diff = total_r / ((14000UL * 8) / (F_CPU/1000000UL));
        tmpint = ref_mv_offs;		// corrected reference voltage (for C)
    5bde:	20 91 0f 01 	lds	r18, 0x010F
    5be2:	30 91 10 01 	lds	r19, 0x0110
        if (mess_r < R_L_VAL) {
    5be6:	50 e9       	ldi	r21, 0x90	; 144
    5be8:	25 16       	cp	r2, r21
    5bea:	5a e1       	ldi	r21, 0x1A	; 26
    5bec:	35 06       	cpc	r3, r21
    5bee:	b0 f4       	brcc	.+44     	; 0x5c1c <ReadInductance+0x218>
           // measurement without 680 Ohm
           cnt_diff = CNT_ZERO_42;
           if (timeconstant.dw < 225) {
    5bf0:	81 ee       	ldi	r24, 0xE1	; 225
    5bf2:	c8 16       	cp	r12, r24
    5bf4:	d1 04       	cpc	r13, r1
    5bf6:	e1 04       	cpc	r14, r1
    5bf8:	f1 04       	cpc	r15, r1
    5bfa:	38 f4       	brcc	.+14     	; 0x5c0a <ReadInductance+0x206>
              ukorr = (timeconstant.w[0] / 5) - 20;
    5bfc:	c6 01       	movw	r24, r12
    5bfe:	65 e0       	ldi	r22, 0x05	; 5
    5c00:	70 e0       	ldi	r23, 0x00	; 0
    5c02:	0e 94 08 3d 	call	0x7a10	; 0x7a10 <__udivmodhi4>
    5c06:	64 51       	subi	r22, 0x14	; 20
    5c08:	01 c0       	rjmp	.+2      	; 0x5c0c <ReadInductance+0x208>
           } else {
              ukorr = 25;
    5c0a:	69 e1       	ldi	r22, 0x19	; 25
    5c0c:	28 52       	subi	r18, 0x28	; 40
    5c0e:	31 09       	sbc	r19, r1
           }
           tmpint -= (((REF_L_KORR * 10) / 10) + ukorr);
    5c10:	26 1b       	sub	r18, r22
    5c12:	31 09       	sbc	r19, r1
    5c14:	67 fd       	sbrc	r22, 7
    5c16:	33 95       	inc	r19
//        if (total_r > 14000) cnt_diff = 2;
        cnt_diff = total_r / ((14000UL * 8) / (F_CPU/1000000UL));
        tmpint = ref_mv_offs;		// corrected reference voltage (for C)
        if (mess_r < R_L_VAL) {
           // measurement without 680 Ohm
           cnt_diff = CNT_ZERO_42;
    5c18:	86 e0       	ldi	r24, 0x06	; 6
    5c1a:	09 c0       	rjmp	.+18     	; 0x5c2e <ReadInductance+0x22a>
//#endif
        total_r = (mess_r + resistor + RRpinMI);
//        cnt_diff = 0;
//        if (total_r > 7000) cnt_diff = 1;
//        if (total_r > 14000) cnt_diff = 2;
        cnt_diff = total_r / ((14000UL * 8) / (F_CPU/1000000UL));
    5c1c:	c4 01       	movw	r24, r8
    5c1e:	68 e5       	ldi	r22, 0x58	; 88
    5c20:	7b e1       	ldi	r23, 0x1B	; 27
    5c22:	0e 94 08 3d 	call	0x7a10	; 0x7a10 <__udivmodhi4>
           }
           tmpint -= (((REF_L_KORR * 10) / 10) + ukorr);
        } else {
           // measurement with 680 Ohm resistor
           // if 680 Ohm resistor is used, use REF_L_KORR for correction
           cnt_diff += CNT_ZERO_720;
    5c26:	87 e0       	ldi	r24, 0x07	; 7
    5c28:	86 0f       	add	r24, r22
           tmpint += REF_L_KORR;
    5c2a:	28 5d       	subi	r18, 0xD8	; 216
    5c2c:	3f 4f       	sbci	r19, 0xFF	; 255
        }
        if (timeconstant.dw > cnt_diff) timeconstant.dw -= cnt_diff;
    5c2e:	90 e0       	ldi	r25, 0x00	; 0
    5c30:	a0 e0       	ldi	r26, 0x00	; 0
    5c32:	b0 e0       	ldi	r27, 0x00	; 0
    5c34:	8c 15       	cp	r24, r12
    5c36:	9d 05       	cpc	r25, r13
    5c38:	ae 05       	cpc	r26, r14
    5c3a:	bf 05       	cpc	r27, r15
    5c3c:	28 f4       	brcc	.+10     	; 0x5c48 <ReadInductance+0x244>
    5c3e:	c8 1a       	sub	r12, r24
    5c40:	d9 0a       	sbc	r13, r25
    5c42:	ea 0a       	sbc	r14, r26
    5c44:	fb 0a       	sbc	r15, r27
    5c46:	03 c0       	rjmp	.+6      	; 0x5c4e <ReadInductance+0x24a>
        else          timeconstant.dw = 0;
    5c48:	c1 2c       	mov	r12, r1
    5c4a:	d1 2c       	mov	r13, r1
    5c4c:	76 01       	movw	r14, r12
       
        if ((count&0x01) == 1) {
    5c4e:	00 23       	and	r16, r16
    5c50:	29 f0       	breq	.+10     	; 0x5c5c <ReadInductance+0x258>
           // second pass with delayed counter start
           timeconstant.dw += (3 * (F_CPU/1000000UL))+10;
    5c52:	9a e3       	ldi	r25, 0x3A	; 58
    5c54:	c9 0e       	add	r12, r25
    5c56:	d1 1c       	adc	r13, r1
    5c58:	e1 1c       	adc	r14, r1
    5c5a:	f1 1c       	adc	r15, r1
        }
        if (timeconstant.w[1] >= (F_CPU/100000UL)) timeconstant.dw = 0; // no transition found
    5c5c:	40 ea       	ldi	r20, 0xA0	; 160
    5c5e:	e4 16       	cp	r14, r20
    5c60:	f1 04       	cpc	r15, r1
    5c62:	18 f0       	brcs	.+6      	; 0x5c6a <ReadInductance+0x266>
    5c64:	c1 2c       	mov	r12, r1
    5c66:	d1 2c       	mov	r13, r1
    5c68:	76 01       	movw	r14, r12
        if (timeconstant.dw > 10) {
    5c6a:	5b e0       	ldi	r21, 0x0B	; 11
    5c6c:	c5 16       	cp	r12, r21
    5c6e:	d1 04       	cpc	r13, r1
    5c70:	e1 04       	cpc	r14, r1
    5c72:	f1 04       	cpc	r15, r1
    5c74:	28 f0       	brcs	.+10     	; 0x5c80 <ReadInductance+0x27c>
           timeconstant.dw -= 1;
    5c76:	81 e0       	ldi	r24, 0x01	; 1
    5c78:	c8 1a       	sub	r12, r24
    5c7a:	d1 08       	sbc	r13, r1
    5c7c:	e1 08       	sbc	r14, r1
    5c7e:	f1 08       	sbc	r15, r1
        }
        // compute the maximum Voltage umax with the Resistor of the coil
        umax = ((unsigned long)mess_r * (unsigned long)ADCconfig.U_AVCC) / total_r;
    5c80:	40 91 29 01 	lds	r20, 0x0129
    5c84:	50 91 2a 01 	lds	r21, 0x012A
    5c88:	a1 2c       	mov	r10, r1
    5c8a:	b1 2c       	mov	r11, r1
        per_ref1 = ((unsigned long)tmpint * 1000) / umax;
    5c8c:	a8 ee       	ldi	r26, 0xE8	; 232
    5c8e:	b3 e0       	ldi	r27, 0x03	; 3
    5c90:	0e 94 73 3d 	call	0x7ae6	; 0x7ae6 <__umulhisi3>
    5c94:	6c 8b       	std	Y+20, r22	; 0x14
    5c96:	7d 8b       	std	Y+21, r23	; 0x15
    5c98:	8e 8b       	std	Y+22, r24	; 0x16
    5c9a:	9f 8b       	std	Y+23, r25	; 0x17
        if (timeconstant.w[1] >= (F_CPU/100000UL)) timeconstant.dw = 0; // no transition found
        if (timeconstant.dw > 10) {
           timeconstant.dw -= 1;
        }
        // compute the maximum Voltage umax with the Resistor of the coil
        umax = ((unsigned long)mess_r * (unsigned long)ADCconfig.U_AVCC) / total_r;
    5c9c:	91 01       	movw	r18, r2
    5c9e:	da 01       	movw	r26, r20
    5ca0:	0e 94 73 3d 	call	0x7ae6	; 0x7ae6 <__umulhisi3>
    5ca4:	a5 01       	movw	r20, r10
    5ca6:	94 01       	movw	r18, r8
    5ca8:	0e 94 2f 3d 	call	0x7a5e	; 0x7a5e <__udivmodsi4>
        per_ref1 = ((unsigned long)tmpint * 1000) / umax;
    5cac:	44 27       	eor	r20, r20
    5cae:	55 27       	eor	r21, r21
    5cb0:	6c 89       	ldd	r22, Y+20	; 0x14
    5cb2:	7d 89       	ldd	r23, Y+21	; 0x15
    5cb4:	8e 89       	ldd	r24, Y+22	; 0x16
    5cb6:	9f 89       	ldd	r25, Y+23	; 0x17
    5cb8:	0e 94 2f 3d 	call	0x7a5e	; 0x7a5e <__udivmodsi4>
//        per_ref2 = (uint8_t)MEM2_read_byte(&LogTab[per_ref1]);	// -log(1 - per_ref1/100)
        per_ref2 = get_log(per_ref1);		// -1000*log(1 - per_ref1/1000)
    5cbc:	c9 01       	movw	r24, r18
    5cbe:	0e 94 9d 0a 	call	0x153a	; 0x153a <get_log>
    5cc2:	fc 01       	movw	r30, r24
          }
#endif
/* ********************************************************* */
        // inductor_lx in 0.01mH units,  L = Tau * R
        per_ref1 = ((per_ref2 * (F_CPU/1000000UL)) + 5) / 10;
        inductance[count] = (timeconstant.dw * total_r ) / per_ref1;
    5cc4:	a5 01       	movw	r20, r10
    5cc6:	94 01       	movw	r18, r8
    5cc8:	c7 01       	movw	r24, r14
    5cca:	b6 01       	movw	r22, r12
    5ccc:	0e 94 ed 3c 	call	0x79da	; 0x79da <__mulsi3>
    5cd0:	4b 01       	movw	r8, r22
    5cd2:	5c 01       	movw	r10, r24
             wait_about2s();	// debug delay
          }
#endif
/* ********************************************************* */
        // inductor_lx in 0.01mH units,  L = Tau * R
        per_ref1 = ((per_ref2 * (F_CPU/1000000UL)) + 5) / 10;
    5cd4:	cf 01       	movw	r24, r30
    5cd6:	a0 e0       	ldi	r26, 0x00	; 0
    5cd8:	b0 e0       	ldi	r27, 0x00	; 0
    5cda:	74 e0       	ldi	r23, 0x04	; 4
    5cdc:	88 0f       	add	r24, r24
    5cde:	99 1f       	adc	r25, r25
    5ce0:	aa 1f       	adc	r26, r26
    5ce2:	bb 1f       	adc	r27, r27
    5ce4:	7a 95       	dec	r23
    5ce6:	d1 f7       	brne	.-12     	; 0x5cdc <ReadInductance+0x2d8>
    5ce8:	bc 01       	movw	r22, r24
    5cea:	cd 01       	movw	r24, r26
    5cec:	6b 5f       	subi	r22, 0xFB	; 251
    5cee:	7f 4f       	sbci	r23, 0xFF	; 255
    5cf0:	8f 4f       	sbci	r24, 0xFF	; 255
    5cf2:	9f 4f       	sbci	r25, 0xFF	; 255
    5cf4:	2a e0       	ldi	r18, 0x0A	; 10
    5cf6:	30 e0       	ldi	r19, 0x00	; 0
    5cf8:	40 e0       	ldi	r20, 0x00	; 0
    5cfa:	50 e0       	ldi	r21, 0x00	; 0
    5cfc:	0e 94 2f 3d 	call	0x7a5e	; 0x7a5e <__udivmodsi4>
        inductance[count] = (timeconstant.dw * total_r ) / per_ref1;
    5d00:	44 27       	eor	r20, r20
    5d02:	55 27       	eor	r21, r21
    5d04:	c5 01       	movw	r24, r10
    5d06:	b4 01       	movw	r22, r8
    5d08:	0e 94 2f 3d 	call	0x7a5e	; 0x7a5e <__udivmodsi4>
    5d0c:	e1 2f       	mov	r30, r17
    5d0e:	f0 e0       	ldi	r31, 0x00	; 0
    5d10:	a1 e0       	ldi	r26, 0x01	; 1
    5d12:	b0 e0       	ldi	r27, 0x00	; 0
    5d14:	ac 0f       	add	r26, r28
    5d16:	bd 1f       	adc	r27, r29
    5d18:	94 e0       	ldi	r25, 0x04	; 4
    5d1a:	19 9f       	mul	r17, r25
    5d1c:	a0 0d       	add	r26, r0
    5d1e:	b1 1d       	adc	r27, r1
    5d20:	11 24       	eor	r1, r1
    5d22:	2d 93       	st	X+, r18
    5d24:	3d 93       	st	X+, r19
    5d26:	4d 93       	st	X+, r20
    5d28:	5c 93       	st	X, r21
    5d2a:	13 97       	sbiw	r26, 0x03	; 3
        if (((count&0x01) == 0) && (timeconstant.dw > ((F_CPU/1000000UL)+3))) {
    5d2c:	01 11       	cpse	r16, r1
    5d2e:	16 c0       	rjmp	.+44     	; 0x5d5c <ReadInductance+0x358>
    5d30:	84 e1       	ldi	r24, 0x14	; 20
    5d32:	c8 16       	cp	r12, r24
    5d34:	d1 04       	cpc	r13, r1
    5d36:	e1 04       	cpc	r14, r1
    5d38:	f1 04       	cpc	r15, r1
    5d3a:	80 f0       	brcs	.+32     	; 0x5d5c <ReadInductance+0x358>
           // transition is found, measurement with delayed counter start is not necessary
           inductance[count+1] = inductance[count];	// set delayed measurement to same value
    5d3c:	31 96       	adiw	r30, 0x01	; 1
    5d3e:	ee 0f       	add	r30, r30
    5d40:	ff 1f       	adc	r31, r31
    5d42:	ee 0f       	add	r30, r30
    5d44:	ff 1f       	adc	r31, r31
    5d46:	81 e0       	ldi	r24, 0x01	; 1
    5d48:	90 e0       	ldi	r25, 0x00	; 0
    5d4a:	8c 0f       	add	r24, r28
    5d4c:	9d 1f       	adc	r25, r29
    5d4e:	e8 0f       	add	r30, r24
    5d50:	f9 1f       	adc	r31, r25
    5d52:	20 83       	st	Z, r18
    5d54:	31 83       	std	Z+1, r19	; 0x01
    5d56:	42 83       	std	Z+2, r20	; 0x02
    5d58:	53 83       	std	Z+3, r21	; 0x03
           count++;		// skip the delayed measurement
    5d5a:	1f 5f       	subi	r17, 0xFF	; 255
        }
        wdt_reset();
    5d5c:	a8 95       	wdr
     res_num = ResistorList[0];
     if (ResistorVal[res_num] > 21000) return;
     resistor = ResistorVal[res_num];

     // we can check for Inductance, if resistance is below 2100 Ohm
     for (count=0;count<4;count++) {
    5d5e:	1f 5f       	subi	r17, 0xFF	; 255
    5d60:	14 30       	cpi	r17, 0x04	; 4
    5d62:	08 f4       	brcc	.+2      	; 0x5d66 <ReadInductance+0x362>
    5d64:	7a ce       	rjmp	.-780    	; 0x5a5a <ReadInductance+0x56>
           inductance[count+1] = inductance[count];	// set delayed measurement to same value
           count++;		// skip the delayed measurement
        }
        wdt_reset();
     }  //end for count
     ADC_PORT = TXD_VAL;		// switch ADC Port to GND
    5d66:	88 e0       	ldi	r24, 0x08	; 8
    5d68:	88 b9       	out	0x08, r24	; 8
     wait_about20ms();
    5d6a:	84 e0       	ldi	r24, 0x04	; 4
    5d6c:	0e 94 9b 09 	call	0x1336	; 0x1336 <sleep_5ms>
     nr_pol1 = 0;
     if (inductance[1] > inductance[0]) { nr_pol1 = 1; } 
    5d70:	91 e0       	ldi	r25, 0x01	; 1
    5d72:	0d 81       	ldd	r16, Y+5	; 0x05
    5d74:	1e 81       	ldd	r17, Y+6	; 0x06
    5d76:	2f 81       	ldd	r18, Y+7	; 0x07
    5d78:	38 85       	ldd	r19, Y+8	; 0x08
    5d7a:	49 81       	ldd	r20, Y+1	; 0x01
    5d7c:	5a 81       	ldd	r21, Y+2	; 0x02
    5d7e:	6b 81       	ldd	r22, Y+3	; 0x03
    5d80:	7c 81       	ldd	r23, Y+4	; 0x04
    5d82:	40 17       	cp	r20, r16
    5d84:	51 07       	cpc	r21, r17
    5d86:	62 07       	cpc	r22, r18
    5d88:	73 07       	cpc	r23, r19
    5d8a:	08 f0       	brcs	.+2      	; 0x5d8e <ReadInductance+0x38a>
    5d8c:	90 e0       	ldi	r25, 0x00	; 0
     nr_pol2 = 2;
     if (inductance[3] > inductance[2]) { nr_pol2 = 3; } 
    5d8e:	0d 85       	ldd	r16, Y+13	; 0x0d
    5d90:	1e 85       	ldd	r17, Y+14	; 0x0e
    5d92:	2f 85       	ldd	r18, Y+15	; 0x0f
    5d94:	38 89       	ldd	r19, Y+16	; 0x10
    5d96:	49 85       	ldd	r20, Y+9	; 0x09
    5d98:	5a 85       	ldd	r21, Y+10	; 0x0a
    5d9a:	6b 85       	ldd	r22, Y+11	; 0x0b
    5d9c:	7c 85       	ldd	r23, Y+12	; 0x0c
    5d9e:	40 17       	cp	r20, r16
    5da0:	51 07       	cpc	r21, r17
    5da2:	62 07       	cpc	r22, r18
    5da4:	73 07       	cpc	r23, r19
    5da6:	10 f4       	brcc	.+4      	; 0x5dac <ReadInductance+0x3a8>
    5da8:	83 e0       	ldi	r24, 0x03	; 3
    5daa:	01 c0       	rjmp	.+2      	; 0x5dae <ReadInductance+0x3aa>
     }  //end for count
     ADC_PORT = TXD_VAL;		// switch ADC Port to GND
     wait_about20ms();
     nr_pol1 = 0;
     if (inductance[1] > inductance[0]) { nr_pol1 = 1; } 
     nr_pol2 = 2;
    5dac:	82 e0       	ldi	r24, 0x02	; 2
     if (inductance[3] > inductance[2]) { nr_pol2 = 3; } 
     if (inductance[nr_pol2] < inductance[nr_pol1]) nr_pol1 = nr_pol2;
    5dae:	e9 2f       	mov	r30, r25
    5db0:	f0 e0       	ldi	r31, 0x00	; 0
    5db2:	ee 0f       	add	r30, r30
    5db4:	ff 1f       	adc	r31, r31
    5db6:	ee 0f       	add	r30, r30
    5db8:	ff 1f       	adc	r31, r31
    5dba:	21 e0       	ldi	r18, 0x01	; 1
    5dbc:	30 e0       	ldi	r19, 0x00	; 0
    5dbe:	2c 0f       	add	r18, r28
    5dc0:	3d 1f       	adc	r19, r29
    5dc2:	e2 0f       	add	r30, r18
    5dc4:	f3 1f       	adc	r31, r19
    5dc6:	d9 01       	movw	r26, r18
    5dc8:	34 e0       	ldi	r19, 0x04	; 4
    5dca:	83 9f       	mul	r24, r19
    5dcc:	a0 0d       	add	r26, r0
    5dce:	b1 1d       	adc	r27, r1
    5dd0:	11 24       	eor	r1, r1
    5dd2:	0d 91       	ld	r16, X+
    5dd4:	1d 91       	ld	r17, X+
    5dd6:	2d 91       	ld	r18, X+
    5dd8:	3c 91       	ld	r19, X
    5dda:	40 81       	ld	r20, Z
    5ddc:	51 81       	ldd	r21, Z+1	; 0x01
    5dde:	62 81       	ldd	r22, Z+2	; 0x02
    5de0:	73 81       	ldd	r23, Z+3	; 0x03
    5de2:	04 17       	cp	r16, r20
    5de4:	15 07       	cpc	r17, r21
    5de6:	26 07       	cpc	r18, r22
    5de8:	37 07       	cpc	r19, r23
    5dea:	08 f0       	brcs	.+2      	; 0x5dee <ReadInductance+0x3ea>
        }
        wdt_reset();
     }  //end for count
     ADC_PORT = TXD_VAL;		// switch ADC Port to GND
     wait_about20ms();
     nr_pol1 = 0;
    5dec:	89 2f       	mov	r24, r25
     if (inductance[1] > inductance[0]) { nr_pol1 = 1; } 
     nr_pol2 = 2;
     if (inductance[3] > inductance[2]) { nr_pol2 = 3; } 
     if (inductance[nr_pol2] < inductance[nr_pol1]) nr_pol1 = nr_pol2;
     inductor_lx = inductance[nr_pol1];
    5dee:	e1 e0       	ldi	r30, 0x01	; 1
    5df0:	f0 e0       	ldi	r31, 0x00	; 0
    5df2:	ec 0f       	add	r30, r28
    5df4:	fd 1f       	adc	r31, r29
    5df6:	44 e0       	ldi	r20, 0x04	; 4
    5df8:	84 9f       	mul	r24, r20
    5dfa:	e0 0d       	add	r30, r0
    5dfc:	f1 1d       	adc	r31, r1
    5dfe:	11 24       	eor	r1, r1
    5e00:	40 81       	ld	r20, Z
    5e02:	51 81       	ldd	r21, Z+1	; 0x01
    5e04:	62 81       	ldd	r22, Z+2	; 0x02
    5e06:	73 81       	ldd	r23, Z+3	; 0x03
    5e08:	40 93 a1 01 	sts	0x01A1, r20
    5e0c:	50 93 a2 01 	sts	0x01A2, r21
    5e10:	60 93 a3 01 	sts	0x01A3, r22
    5e14:	70 93 a4 01 	sts	0x01A4, r23
     inductor_lpre = -5;	// 10 uH units
     if (((nr_pol1 & 1) == 1) || (resistor >= 240)) {
    5e18:	80 fd       	sbrc	r24, 0
    5e1a:	0a c0       	rjmp	.+20     	; 0x5e30 <ReadInductance+0x42c>
    5e1c:	80 ef       	ldi	r24, 0xF0	; 240
    5e1e:	48 16       	cp	r4, r24
    5e20:	51 04       	cpc	r5, r1
    5e22:	61 04       	cpc	r6, r1
    5e24:	71 04       	cpc	r7, r1
    5e26:	20 f4       	brcc	.+8      	; 0x5e30 <ReadInductance+0x42c>
     if (inductance[1] > inductance[0]) { nr_pol1 = 1; } 
     nr_pol2 = 2;
     if (inductance[3] > inductance[2]) { nr_pol2 = 3; } 
     if (inductance[nr_pol2] < inductance[nr_pol1]) nr_pol1 = nr_pol2;
     inductor_lx = inductance[nr_pol1];
     inductor_lpre = -5;	// 10 uH units
    5e28:	8b ef       	ldi	r24, 0xFB	; 251
    5e2a:	80 93 19 01 	sts	0x0119, r24
    5e2e:	17 c0       	rjmp	.+46     	; 0x5e5e <ReadInductance+0x45a>
     if (((nr_pol1 & 1) == 1) || (resistor >= 240)) {
        // with 680 Ohm resistor total_r is more than 7460
        inductor_lpre = -4;	// 100 uH units
    5e30:	8c ef       	ldi	r24, 0xFC	; 252
    5e32:	80 93 19 01 	sts	0x0119, r24
        inductor_lx = (inductor_lx + 5) / 10;
    5e36:	cb 01       	movw	r24, r22
    5e38:	ba 01       	movw	r22, r20
    5e3a:	6b 5f       	subi	r22, 0xFB	; 251
    5e3c:	7f 4f       	sbci	r23, 0xFF	; 255
    5e3e:	8f 4f       	sbci	r24, 0xFF	; 255
    5e40:	9f 4f       	sbci	r25, 0xFF	; 255
    5e42:	2a e0       	ldi	r18, 0x0A	; 10
    5e44:	30 e0       	ldi	r19, 0x00	; 0
    5e46:	40 e0       	ldi	r20, 0x00	; 0
    5e48:	50 e0       	ldi	r21, 0x00	; 0
    5e4a:	0e 94 2f 3d 	call	0x7a5e	; 0x7a5e <__udivmodsi4>
    5e4e:	20 93 a1 01 	sts	0x01A1, r18
    5e52:	30 93 a2 01 	sts	0x01A2, r19
    5e56:	40 93 a3 01 	sts	0x01A3, r20
    5e5a:	50 93 a4 01 	sts	0x01A4, r21
     } 
     if (inductor_lx == 0) inductor_lpre = 0;	//mark as zero
    5e5e:	80 91 a1 01 	lds	r24, 0x01A1
    5e62:	90 91 a2 01 	lds	r25, 0x01A2
    5e66:	a0 91 a3 01 	lds	r26, 0x01A3
    5e6a:	b0 91 a4 01 	lds	r27, 0x01A4
    5e6e:	89 2b       	or	r24, r25
    5e70:	8a 2b       	or	r24, r26
    5e72:	8b 2b       	or	r24, r27
    5e74:	11 f4       	brne	.+4      	; 0x5e7a <ReadInductance+0x476>
    5e76:	10 92 19 01 	sts	0x0119, r1

  // switch all ports to input
  ADC_DDR =  TXD_MSK;		// switch all ADC ports to input
    5e7a:	88 e0       	ldi	r24, 0x08	; 8
    5e7c:	87 b9       	out	0x07, r24	; 7
  R_DDR = 0;			// switch all resistor ports to input
    5e7e:	14 b8       	out	0x04, r1	; 4
#endif
  return;
 } // end ReadInductance()
    5e80:	68 96       	adiw	r28, 0x18	; 24
    5e82:	e2 e1       	ldi	r30, 0x12	; 18
    5e84:	0c 94 39 3e 	jmp	0x7c72	; 0x7c72 <__epilogue_restores__>

00005e88 <GetVloss>:
#include <stdlib.h>
#include "Transistortester.h"


//=================================================================
void GetVloss() {
    5e88:	8f 92       	push	r8
    5e8a:	9f 92       	push	r9
    5e8c:	af 92       	push	r10
    5e8e:	bf 92       	push	r11
    5e90:	ef 92       	push	r14
    5e92:	ff 92       	push	r15
    5e94:	0f 93       	push	r16
    5e96:	1f 93       	push	r17
    5e98:	cf 93       	push	r28
    5e9a:	df 93       	push	r29
    5e9c:	00 d0       	rcall	.+0      	; 0x5e9e <GetVloss+0x16>
    5e9e:	00 d0       	rcall	.+0      	; 0x5ea0 <GetVloss+0x18>
    5ea0:	cd b7       	in	r28, 0x3d	; 61
    5ea2:	de b7       	in	r29, 0x3e	; 62
  } lval;
  uint8_t ii;
  uint8_t HiPinR_L;
  uint8_t LoADC;

  if (cap.v_loss > 0) {
    5ea4:	80 91 81 01 	lds	r24, 0x0181
    5ea8:	90 91 82 01 	lds	r25, 0x0182
    5eac:	89 2b       	or	r24, r25
    5eae:	09 f0       	breq	.+2      	; 0x5eb2 <GetVloss+0x2a>
    5eb0:	b9 c0       	rjmp	.+370    	; 0x6024 <GetVloss+0x19c>
     return;		// Voltage loss is already known (big Capacitor)
  }
#if (((PIN_RL1 + 1) != PIN_RH1) || ((PIN_RL2 + 1) != PIN_RH2) || ((PIN_RL3 + 1) != PIN_RH3))
  LoADC = pgm_read_byte((&PinRLRHADCtab[6])+cap.ca-TP_MIN) | TXD_MSK;
#else
  LoADC = pgm_read_byte((&PinRLRHADCtab[3])+cap.ca-TP_MIN) | TXD_MSK;
    5eb2:	e0 91 83 01 	lds	r30, 0x0183
    5eb6:	f0 e0       	ldi	r31, 0x00	; 0
    5eb8:	e8 5a       	subi	r30, 0xA8	; 168
    5eba:	fd 4f       	sbci	r31, 0xFD	; 253
    5ebc:	14 91       	lpm	r17, Z
    5ebe:	18 60       	ori	r17, 0x08	; 8
#endif
  HiPinR_L = pgm_read_byte(&PinRLRHADCtab[cap.cb-TP_MIN]);	//R_L mask for HighPin R_L load
    5ec0:	e0 91 84 01 	lds	r30, 0x0184
    5ec4:	f0 e0       	ldi	r31, 0x00	; 0
    5ec6:	eb 5a       	subi	r30, 0xAB	; 171
    5ec8:	fd 4f       	sbci	r31, 0xFD	; 253
    5eca:	f4 90       	lpm	r15, Z

  EntladePins();			// discharge capacitor
    5ecc:	0e 94 42 26 	call	0x4c84	; 0x4c84 <EntladePins>
  ADC_PORT = TXD_VAL;			// switch ADC-Port to GND
    5ed0:	88 e0       	ldi	r24, 0x08	; 8
    5ed2:	88 b9       	out	0x08, r24	; 8
  R_PORT = 0;				// switch R-Port to GND
    5ed4:	15 b8       	out	0x05, r1	; 5
  ADC_DDR = LoADC;			// switch Low-Pin to output (GND)
    5ed6:	17 b9       	out	0x07, r17	; 7
  R_DDR = HiPinR_L;			// switch R_L port for HighPin to output (GND)
    5ed8:	f4 b8       	out	0x04, r15	; 4
  adcv[0] = ReadADC(cap.cb);		// voltage before any load 
    5eda:	80 91 84 01 	lds	r24, 0x0184
    5ede:	0e 94 d3 09 	call	0x13a6	; 0x13a6 <ReadADC>
    5ee2:	8c 01       	movw	r16, r24
// ******** should adcv[0] be measured without current???
  if ((cap.cpre_max > -9) || (cap.cpre_max < -12)) return;	// too much or too less capacity
    5ee4:	20 91 86 01 	lds	r18, 0x0186
    5ee8:	8c e0       	ldi	r24, 0x0C	; 12
    5eea:	82 0f       	add	r24, r18
    5eec:	84 30       	cpi	r24, 0x04	; 4
    5eee:	08 f0       	brcs	.+2      	; 0x5ef2 <GetVloss+0x6a>
    5ef0:	99 c0       	rjmp	.+306    	; 0x6024 <GetVloss+0x19c>
  lval.dw = cap.cval_max;
    5ef2:	80 91 77 01 	lds	r24, 0x0177
    5ef6:	90 91 78 01 	lds	r25, 0x0178
    5efa:	a0 91 79 01 	lds	r26, 0x0179
    5efe:	b0 91 7a 01 	lds	r27, 0x017A
  for (ii=cap.cpre_max+15;ii<7;ii++) {
    5f02:	3f e0       	ldi	r19, 0x0F	; 15
    5f04:	e3 2e       	mov	r14, r19
    5f06:	e2 0e       	add	r14, r18
     lval.dw = (lval.dw + 5) / 10;
    5f08:	4a e0       	ldi	r20, 0x0A	; 10
    5f0a:	84 2e       	mov	r8, r20
    5f0c:	91 2c       	mov	r9, r1
    5f0e:	a1 2c       	mov	r10, r1
    5f10:	b1 2c       	mov	r11, r1
    5f12:	bc 01       	movw	r22, r24
    5f14:	cd 01       	movw	r24, r26
    5f16:	6b 5f       	subi	r22, 0xFB	; 251
    5f18:	7f 4f       	sbci	r23, 0xFF	; 255
    5f1a:	8f 4f       	sbci	r24, 0xFF	; 255
    5f1c:	9f 4f       	sbci	r25, 0xFF	; 255
    5f1e:	a5 01       	movw	r20, r10
    5f20:	94 01       	movw	r18, r8
    5f22:	0e 94 2f 3d 	call	0x7a5e	; 0x7a5e <__udivmodsi4>
    5f26:	da 01       	movw	r26, r20
    5f28:	c9 01       	movw	r24, r18
  R_DDR = HiPinR_L;			// switch R_L port for HighPin to output (GND)
  adcv[0] = ReadADC(cap.cb);		// voltage before any load 
// ******** should adcv[0] be measured without current???
  if ((cap.cpre_max > -9) || (cap.cpre_max < -12)) return;	// too much or too less capacity
  lval.dw = cap.cval_max;
  for (ii=cap.cpre_max+15;ii<7;ii++) {
    5f2a:	e3 94       	inc	r14
    5f2c:	67 e0       	ldi	r22, 0x07	; 7
    5f2e:	e6 12       	cpse	r14, r22
    5f30:	f0 cf       	rjmp	.-32     	; 0x5f12 <GetVloss+0x8a>
     lval.dw = (lval.dw + 5) / 10;
  }
  if (lval.dw > 5000) {
    5f32:	29 38       	cpi	r18, 0x89	; 137
    5f34:	63 e1       	ldi	r22, 0x13	; 19
    5f36:	36 07       	cpc	r19, r22
    5f38:	41 05       	cpc	r20, r1
    5f3a:	51 05       	cpc	r21, r1
    5f3c:	08 f0       	brcs	.+2      	; 0x5f40 <GetVloss+0xb8>
    5f3e:	72 c0       	rjmp	.+228    	; 0x6024 <GetVloss+0x19c>
     /* capacity more than 50uF, Voltage loss is already measured  */
     return;
  }
  if (lval.w[0] < 5) return;		// Capacity below 5nF
    5f40:	25 30       	cpi	r18, 0x05	; 5
    5f42:	31 05       	cpc	r19, r1
    5f44:	08 f4       	brcc	.+2      	; 0x5f48 <GetVloss+0xc0>
    5f46:	6e c0       	rjmp	.+220    	; 0x6024 <GetVloss+0x19c>
  R_PORT = HiPinR_L;			//R_L to 1 (VCC) 
    5f48:	f5 b8       	out	0x05, r15	; 5
  R_DDR = HiPinR_L;			//switch Pin to output, across R to GND or VCC
    5f4a:	f4 b8       	out	0x04, r15	; 4
  for (tmpint=0;tmpint<lval.w[0];tmpint+=2) {
    5f4c:	e1 2c       	mov	r14, r1
    5f4e:	f1 2c       	mov	r15, r1
    5f50:	e2 16       	cp	r14, r18
    5f52:	f3 06       	cpc	r15, r19
    5f54:	70 f4       	brcc	.+28     	; 0x5f72 <GetVloss+0xea>
//     wait50us();			// wait exactly 50us
     wait5us();			// wait exactly 5us
    5f56:	29 83       	std	Y+1, r18	; 0x01
    5f58:	3a 83       	std	Y+2, r19	; 0x02
    5f5a:	4b 83       	std	Y+3, r20	; 0x03
    5f5c:	5c 83       	std	Y+4, r21	; 0x04
    5f5e:	0e 94 94 09 	call	0x1328	; 0x1328 <wait5us>
     return;
  }
  if (lval.w[0] < 5) return;		// Capacity below 5nF
  R_PORT = HiPinR_L;			//R_L to 1 (VCC) 
  R_DDR = HiPinR_L;			//switch Pin to output, across R to GND or VCC
  for (tmpint=0;tmpint<lval.w[0];tmpint+=2) {
    5f62:	82 e0       	ldi	r24, 0x02	; 2
    5f64:	e8 0e       	add	r14, r24
    5f66:	f1 1c       	adc	r15, r1
    5f68:	5c 81       	ldd	r21, Y+4	; 0x04
    5f6a:	4b 81       	ldd	r20, Y+3	; 0x03
    5f6c:	3a 81       	ldd	r19, Y+2	; 0x02
    5f6e:	29 81       	ldd	r18, Y+1	; 0x01
    5f70:	ef cf       	rjmp	.-34     	; 0x5f50 <GetVloss+0xc8>
//     wait50us();			// wait exactly 50us
     wait5us();			// wait exactly 5us
  }
  R_DDR = 0;				// switch back to input
    5f72:	14 b8       	out	0x04, r1	; 4
  R_PORT = 0;			// no Pull up
    5f74:	15 b8       	out	0x05, r1	; 5
 // wait10us();			//wait a little time
  wdt_reset();
    5f76:	a8 95       	wdr
  // read voltage without current
  ADCconfig.Samples = 5;		// set ADC to only 5 samples
    5f78:	85 e0       	ldi	r24, 0x05	; 5
    5f7a:	80 93 25 01 	sts	0x0125, r24
  adcv[2] = ReadADC(cap.cb);
    5f7e:	80 91 84 01 	lds	r24, 0x0184
    5f82:	29 83       	std	Y+1, r18	; 0x01
    5f84:	3a 83       	std	Y+2, r19	; 0x02
    5f86:	4b 83       	std	Y+3, r20	; 0x03
    5f88:	5c 83       	std	Y+4, r21	; 0x04
    5f8a:	0e 94 d3 09 	call	0x13a6	; 0x13a6 <ReadADC>
  if (adcv[2] > adcv[0]) {
    5f8e:	29 81       	ldd	r18, Y+1	; 0x01
    5f90:	3a 81       	ldd	r19, Y+2	; 0x02
    5f92:	4b 81       	ldd	r20, Y+3	; 0x03
    5f94:	5c 81       	ldd	r21, Y+4	; 0x04
    5f96:	08 17       	cp	r16, r24
    5f98:	19 07       	cpc	r17, r25
    5f9a:	20 f4       	brcc	.+8      	; 0x5fa4 <GetVloss+0x11c>
     adcv[2] -= adcv[0];		//difference to beginning voltage
    5f9c:	7c 01       	movw	r14, r24
    5f9e:	e0 1a       	sub	r14, r16
    5fa0:	f1 0a       	sbc	r15, r17
    5fa2:	02 c0       	rjmp	.+4      	; 0x5fa8 <GetVloss+0x120>
  } else {
     adcv[2] = 0;			// voltage is lower or same as beginning voltage
    5fa4:	e1 2c       	mov	r14, r1
    5fa6:	f1 2c       	mov	r15, r1
  }
  // wait 2x the time which was required for loading
  for (tmpint=0;tmpint<lval.w[0];tmpint++) {
    5fa8:	a1 2c       	mov	r10, r1
    5faa:	b1 2c       	mov	r11, r1
    5fac:	a2 16       	cp	r10, r18
    5fae:	b3 06       	cpc	r11, r19
    5fb0:	70 f4       	brcc	.+28     	; 0x5fce <GetVloss+0x146>
//     wait50us();
     wait5us();
    5fb2:	29 83       	std	Y+1, r18	; 0x01
    5fb4:	3a 83       	std	Y+2, r19	; 0x02
    5fb6:	4b 83       	std	Y+3, r20	; 0x03
    5fb8:	5c 83       	std	Y+4, r21	; 0x04
    5fba:	0e 94 94 09 	call	0x1328	; 0x1328 <wait5us>
     adcv[2] -= adcv[0];		//difference to beginning voltage
  } else {
     adcv[2] = 0;			// voltage is lower or same as beginning voltage
  }
  // wait 2x the time which was required for loading
  for (tmpint=0;tmpint<lval.w[0];tmpint++) {
    5fbe:	6f ef       	ldi	r22, 0xFF	; 255
    5fc0:	a6 1a       	sub	r10, r22
    5fc2:	b6 0a       	sbc	r11, r22
    5fc4:	5c 81       	ldd	r21, Y+4	; 0x04
    5fc6:	4b 81       	ldd	r20, Y+3	; 0x03
    5fc8:	3a 81       	ldd	r19, Y+2	; 0x02
    5fca:	29 81       	ldd	r18, Y+1	; 0x01
    5fcc:	ef cf       	rjmp	.-34     	; 0x5fac <GetVloss+0x124>
//     wait50us();
     wait5us();
  }
  adcv[3] = ReadADC(cap.cb);	// read voltage again, is discharged only a little bit ?
    5fce:	80 91 84 01 	lds	r24, 0x0184
    5fd2:	0e 94 d3 09 	call	0x13a6	; 0x13a6 <ReadADC>
  ADCconfig.Samples = ANZ_MESS;		// set ADC back to configured No. of samples
    5fd6:	29 e1       	ldi	r18, 0x19	; 25
    5fd8:	20 93 25 01 	sts	0x0125, r18
  wdt_reset();
    5fdc:	a8 95       	wdr
  if (adcv[3] > adcv[0]) {
    5fde:	08 17       	cp	r16, r24
    5fe0:	19 07       	cpc	r17, r25
    5fe2:	18 f4       	brcc	.+6      	; 0x5fea <GetVloss+0x162>
     adcv[3] -= adcv[0];		// difference to beginning voltage
    5fe4:	80 1b       	sub	r24, r16
    5fe6:	91 0b       	sbc	r25, r17
    5fe8:	02 c0       	rjmp	.+4      	; 0x5fee <GetVloss+0x166>
  } else {
     adcv[3] = 0;			// voltage is lower or same as beginning voltage
    5fea:	80 e0       	ldi	r24, 0x00	; 0
    5fec:	90 e0       	ldi	r25, 0x00	; 0
  }
  if (adcv[2] > adcv[3]) {
    5fee:	8e 15       	cp	r24, r14
    5ff0:	9f 05       	cpc	r25, r15
    5ff2:	88 f4       	brcc	.+34     	; 0x6016 <GetVloss+0x18e>
     // build difference to load voltage
     adcv[1] = adcv[2] - adcv[3];	// lost voltage during load time wait
    5ff4:	97 01       	movw	r18, r14
    5ff6:	28 1b       	sub	r18, r24
    5ff8:	39 0b       	sbc	r19, r25
  } else {
     adcv[1] = 0;			// no lost voltage
  }
  // compute voltage drop as part from loaded voltage
  if (adcv[1] > 0) {
    5ffa:	69 f0       	breq	.+26     	; 0x6016 <GetVloss+0x18e>
     // there is any voltage drop (adcv[1]) !
     // adcv[2] is the loaded voltage.
     cap.v_loss = (unsigned long)(adcv[1] * 500UL) / adcv[2];
    5ffc:	a4 ef       	ldi	r26, 0xF4	; 244
    5ffe:	b1 e0       	ldi	r27, 0x01	; 1
    6000:	0e 94 73 3d 	call	0x7ae6	; 0x7ae6 <__umulhisi3>
    6004:	97 01       	movw	r18, r14
    6006:	40 e0       	ldi	r20, 0x00	; 0
    6008:	50 e0       	ldi	r21, 0x00	; 0
    600a:	0e 94 2f 3d 	call	0x7a5e	; 0x7a5e <__udivmodsi4>
    600e:	30 93 82 01 	sts	0x0182, r19
    6012:	20 93 81 01 	sts	0x0181, r18
  lcd_line4();
  DisplayValue16(lval.w[0],0,'x',4);
#endif

  // discharge capacitor again
  EntladePins();		// discharge capacitors
    6016:	0e 94 42 26 	call	0x4c84	; 0x4c84 <EntladePins>
  //ready
  // switch all ports to input
  ADC_DDR =  TXD_MSK;		// switch all ADC ports to input
    601a:	88 e0       	ldi	r24, 0x08	; 8
    601c:	87 b9       	out	0x07, r24	; 7
  ADC_PORT = TXD_VAL;		// switch all ADC outputs to GND, no pull up
    601e:	88 b9       	out	0x08, r24	; 8
  R_DDR = 0;			// switch all resistor ports to input
    6020:	14 b8       	out	0x04, r1	; 4
  R_PORT = 0; 			// switch all resistor outputs to GND, no pull up
    6022:	15 b8       	out	0x05, r1	; 5
#endif
  return;
 } // end GetVloss()
    6024:	0f 90       	pop	r0
    6026:	0f 90       	pop	r0
    6028:	0f 90       	pop	r0
    602a:	0f 90       	pop	r0
    602c:	df 91       	pop	r29
    602e:	cf 91       	pop	r28
    6030:	1f 91       	pop	r17
    6032:	0f 91       	pop	r16
    6034:	ff 90       	pop	r15
    6036:	ef 90       	pop	r14
    6038:	bf 90       	pop	r11
    603a:	af 90       	pop	r10
    603c:	9f 90       	pop	r9
    603e:	8f 90       	pop	r8
    6040:	08 95       	ret

00006042 <GetFrequency>:
 #define PCINTx_vect PCINT2_vect
#endif

#if defined(WITH_MENU) && !defined(NO_FREQ_COUNTER)

void GetFrequency(uint8_t range) {
    6042:	a5 e0       	ldi	r26, 0x05	; 5
    6044:	b0 e0       	ldi	r27, 0x00	; 0
    6046:	e7 e2       	ldi	r30, 0x27	; 39
    6048:	f0 e3       	ldi	r31, 0x30	; 48
    604a:	0c 94 1d 3e 	jmp	0x7c3a	; 0x7c3a <__prologue_saves__>
    FINP_PORT |= (1<<FINP_P1);		// set higher bit of input selection
    message_key_released(L_CRYSTAL_str);	// LF Quarz: in line 1
 }

 #else
  message_key_released(FREQ_str);	// Frequency: in line 1
    604e:	88 e3       	ldi	r24, 0x38	; 56
    6050:	92 e0       	ldi	r25, 0x02	; 2
    6052:	db d5       	rcall	.+2998   	; 0x6c0a <message_key_released>
    6054:	20 ef       	ldi	r18, 0xF0	; 240
    6056:	2b 83       	std	Y+3, r18	; 0x03
    6058:	54 98       	cbi	0x0a, 4	; 10
     // *************************************************************************
     // *********** straight frequency measurement by counting 1 second *********
     // *************************************************************************
     //set up Counter 0
     // Counter 0 is used to count the external signal connected to T0 (PD4 or PB0)
     FREQINP_DDR &= ~(1<<FREQINP_PIN);	// switch frequency pin to input
    605a:	0e 94 89 09 	call	0x1312	; 0x1312 <wait1ms>
     wait1ms();				// let capacitor time to load to 2.4V input
    605e:	14 bc       	out	0x24, r1	; 36
     TCNT3 = 0;				// set counter 3 to zero
     ext_freq.dw = 0;			// set external frequency to zero
     TIFR3 = (1<<TOV3);			// clear OV interrupt of timer 3
     TIMSK3 = (1<<TOIE3);		// enable OV interrupt of timer 3
#else
     TCCR0A = 0; 			// normal operation, no output
    6060:	16 bc       	out	0x26, r1	; 38
     TCNT0 = 0;				// set counter to zero
    6062:	10 92 07 01 	sts	0x0107, r1
     ext_freq.dw = 0;			// set external frequency to zero
    6066:	10 92 08 01 	sts	0x0108, r1
    606a:	10 92 09 01 	sts	0x0109, r1
    606e:	10 92 0a 01 	sts	0x010A, r1
    6072:	31 e0       	ldi	r19, 0x01	; 1
     TIFR0 = (1<<TOV0);			// clear OV interrupt of timer 0
    6074:	35 bb       	out	0x15, r19	; 21
    6076:	30 93 6e 00 	sts	0x006E, r19
     TIMSK0 = (1<<TOIE0);		// enable OV interrupt of timer 0
    607a:	10 92 80 00 	sts	0x0080, r1
#endif
     // start counter after starting second counter timer 1

     // set up counter 1 to measure one second
     TCCR1A = 0;			// normal operation
    607e:	85 e2       	ldi	r24, 0x25	; 37
#else 
 #if F_CPU != ((F_CPU / 256UL) * 256UL)
  #warning F_CPU can not be divided by 256, measured frequency is wrong!
 #endif
#endif
     OCR1B = (CNT1_END_VAL & 0xffff);	// set to 1 second  (counter 0 is started with 1)
    6080:	94 ef       	ldi	r25, 0xF4	; 244
    6082:	90 93 8b 00 	sts	0x008B, r25
    6086:	80 93 8a 00 	sts	0x008A, r24
    608a:	e1 e0       	ldi	r30, 0x01	; 1
     OCR1A = 1;				// start counter 0 with first count
    608c:	f0 e0       	ldi	r31, 0x00	; 0
    608e:	f0 93 89 00 	sts	0x0089, r31
    6092:	e0 93 88 00 	sts	0x0088, r30
    6096:	10 92 85 00 	sts	0x0085, r1
     TCNT1 = 0;				// set counter to zero
    609a:	10 92 84 00 	sts	0x0084, r1
    609e:	83 b5       	in	r24, 0x23	; 35
     GTCCR  |= (1<<PSRSYNC);		// reset clock precounter
    60a0:	81 60       	ori	r24, 0x01	; 1
    60a2:	83 bd       	out	0x23, r24	; 35
    60a4:	f6 e0       	ldi	r31, 0x06	; 6
     TIFR1 = (1<<OCF1B) | (1<<OCF1A);	// clear Output compare match
    60a6:	f6 bb       	out	0x16, r31	; 22
    60a8:	f0 93 6f 00 	sts	0x006F, r31
#if CNT1_END_VAL > 0xffff
     TIMSK1 =  (1<<OCIE1A);		// enable the Compare A match interrupt
#else
     TIMSK1 = (1<<OCIE1B) | (1<<OCIE1A);	// enable the Compare A match and Compare B match interrupt
    60ac:	78 94       	sei
#endif
     sei();				// set interrupt enable
    60ae:	24 e0       	ldi	r18, 0x04	; 4
     TCCR1B = CNT1_DIVIDER;		// divide CPU clock by 256, start counter
    60b0:	20 93 81 00 	sts	0x0081, r18
    60b4:	12 e3       	ldi	r17, 0x32	; 50
    60b6:	1a 82       	std	Y+2, r1	; 0x02
    60b8:	0e 94 82 09 	call	0x1304	; 0x1304 <wait20ms>
     // both counter are running now, wait for counter 1 reach OCR1A
     for (ii=0;ii<50;ii++) {
        wait20ms();			// first count of counter 1 (<32us) has started the counter 0
    60bc:	a8 95       	wdr
        if ((TIFR1 & (1<<TOV1)) != 0) {
          TIFR1 = (1<<OCF1B)|(1<<TOV1);		// reset TOV1 Overflow and Output compare B match Flag
          TIMSK1 = (1<<OCIE1B);		// enable the Compare B match interrupt
        }
#endif
        wdt_reset();
    60be:	4f 99       	sbic	0x09, 7	; 9
        if (!(RST_PIN_REG & (1<<RST_PIN))) taste = 1;	// user request stop of operation
    60c0:	02 c0       	rjmp	.+4      	; 0x60c6 <GetFrequency+0x84>
    60c2:	31 e0       	ldi	r19, 0x01	; 1
    60c4:	3a 83       	std	Y+2, r19	; 0x02
    60c6:	85 b5       	in	r24, 0x25	; 37
#if PROCESSOR_TYP == 1280
        if (TCCR3B == 0) break;		// timer 3 is stopped by interrupt
#else
        if (TCCR0B == 0) break;		// timer 0 is stopped by interrupt
    60c8:	81 11       	cpse	r24, r1
    60ca:	27 c0       	rjmp	.+78     	; 0x611a <GetFrequency+0xd8>
    60cc:	15 bc       	out	0x25, r1	; 37
     // one second is counted
#if PROCESSOR_TYP == 1280
     TCCR3B = 0;		// stop timer 3, if not stopped by timer 1 compare interrupt
     ext_freq.w[0] = TCNT3;	// add lower 16 bit to get total counts
#else
     TCCR0B = 0;		// stop timer 0, if not stopped by timer 1 compare interrupt
    60ce:	86 b5       	in	r24, 0x26	; 38
     ext_freq.b[0] = TCNT0;	// add lower 8 bit to get total counts
    60d0:	80 93 07 01 	sts	0x0107, r24
    60d4:	0e 94 2b 0d 	call	0x1a56	; 0x1a56 <lcd_line3>
#endif
 #if PROCESSOR_TYP == 644
     freq_count = ext_freq.dw;	// save the frequency counter
 #endif
 #if (LCD_LINES > 3)
     lcd_line3();
    60d8:	0e 94 6d 0e 	call	0x1cda	; 0x1cda <lcd_clear_line>
     lcd_clear_line();
    60dc:	0e 94 33 0d 	call	0x1a66	; 0x1a66 <lcd_line4>
     lcd_line4();
    60e0:	0e 94 6d 0e 	call	0x1cda	; 0x1cda <lcd_clear_line>
     lcd_clear_line();
    60e4:	0e 94 a3 0e 	call	0x1d46	; 0x1d46 <lcd_clear_line2>
     lcd_clear_line2();
    60e8:	86 e6       	ldi	r24, 0x66	; 102
 #else
     lcd_clear();		// clear total display
 #endif
     lcd_data('f');
    60ea:	0e 94 0c 0e 	call	0x1c18	; 0x1c18 <lcd_data>
    60ee:	0e 94 a7 0e 	call	0x1d4e	; 0x1d4e <lcd_equal>
     lcd_equal();		// lcd_data('=');
    60f2:	60 91 07 01 	lds	r22, 0x0107
  #ifdef WITH_FREQUENCY_DIVIDER
     uint16_t freq_factor;
     freq_factor = (1<<eeprom_read_byte((uint8_t *)&f_scaler));
     Display_Hz(ext_freq.dw*freq_factor, 7);
  #else
     Display_Hz(ext_freq.dw, 7);
    60f6:	70 91 08 01 	lds	r23, 0x0108
    60fa:	80 91 09 01 	lds	r24, 0x0109
    60fe:	90 91 0a 01 	lds	r25, 0x010A
    6102:	47 e0       	ldi	r20, 0x07	; 7
    6104:	0e 94 f9 0f 	call	0x1ff2	; 0x1ff2 <Display_Hz>
    6108:	54 98       	cbi	0x0a, 4	; 10
  #endif
 #endif  /* PROCESSOR_TYP 644 or other */
     FREQINP_DDR &= ~(1<<FREQINP_PIN);	// switch frequency pin to input
    610a:	80 91 81 00 	lds	r24, 0x0081
     if (TCCR1B != 0) {
    610e:	88 23       	and	r24, r24
    6110:	39 f0       	breq	.+14     	; 0x6120 <GetFrequency+0xde>
    6112:	8f e3       	ldi	r24, 0x3F	; 63
       // Exact 1000ms period is only with "end of period" from timer1 interrupt.
       // When stopped with the for loop, the time is too long because wait call does not
       // respect CPU time used for interrupts and loop itself.
       // For this case show ? behind the Hz. 
       lcd_data('?');
    6114:	0e 94 0c 0e 	call	0x1c18	; 0x1c18 <lcd_data>
    6118:	03 c0       	rjmp	.+6      	; 0x6120 <GetFrequency+0xde>
    611a:	11 50       	subi	r17, 0x01	; 1
    611c:	69 f6       	brne	.-102    	; 0x60b8 <GetFrequency+0x76>
     TIMSK1 = (1<<OCIE1B) | (1<<OCIE1A);	// enable the Compare A match and Compare B match interrupt
#endif
     sei();				// set interrupt enable
     TCCR1B = CNT1_DIVIDER;		// divide CPU clock by 256, start counter
     // both counter are running now, wait for counter 1 reach OCR1A
     for (ii=0;ii<50;ii++) {
    611e:	d6 cf       	rjmp	.-84     	; 0x60cc <GetFrequency+0x8a>
    6120:	10 92 81 00 	sts	0x0081, r1
       // When stopped with the for loop, the time is too long because wait call does not
       // respect CPU time used for interrupts and loop itself.
       // For this case show ? behind the Hz. 
       lcd_data('?');
     }
     TCCR1B = 0;		// stop timer 1
    6124:	10 92 6f 00 	sts	0x006F, r1
     TIMSK1 = 0;		// disable all timer 1 interrupts
    6128:	20 91 07 01 	lds	r18, 0x0107
     if ((ext_freq.dw < FMAX_PERIOD) && (ext_freq.dw > 0)) {
    612c:	30 91 08 01 	lds	r19, 0x0108
    6130:	40 91 09 01 	lds	r20, 0x0109
    6134:	50 91 0a 01 	lds	r21, 0x010A
    6138:	da 01       	movw	r26, r20
    613a:	c9 01       	movw	r24, r18
    613c:	01 97       	sbiw	r24, 0x01	; 1
    613e:	a1 09       	sbc	r26, r1
    6140:	b1 09       	sbc	r27, r1
    6142:	83 36       	cpi	r24, 0x63	; 99
    6144:	93 4c       	sbci	r25, 0xC3	; 195
    6146:	a1 05       	cpc	r26, r1
    6148:	b1 05       	cpc	r27, r1
    614a:	08 f0       	brcs	.+2      	; 0x614e <GetFrequency+0x10c>
    614c:	fc c0       	rjmp	.+504    	; 0x6346 <GetFrequency+0x304>
    614e:	aa e0       	ldi	r26, 0x0A	; 10
     // *************************************************************************
     // ******** Period measurement by counting some periods ******************** 
     // *************************************************************************
        pinchange_max = ((10 * (unsigned long)ext_freq.dw) + MHZ_CPU) / MHZ_CPU;	// about 10000000 clock tics
    6150:	b0 e0       	ldi	r27, 0x00	; 0
    6152:	0e 94 88 3d 	call	0x7b10	; 0x7b10 <__muluhisi3>
    6156:	dc 01       	movw	r26, r24
    6158:	cb 01       	movw	r24, r22
    615a:	40 96       	adiw	r24, 0x10	; 16
    615c:	a1 1d       	adc	r26, r1
    615e:	b1 1d       	adc	r27, r1
    6160:	24 e0       	ldi	r18, 0x04	; 4
    6162:	b6 95       	lsr	r27
    6164:	a7 95       	ror	r26
    6166:	97 95       	ror	r25
    6168:	87 95       	ror	r24
    616a:	2a 95       	dec	r18
    616c:	d1 f7       	brne	.-12     	; 0x6162 <GetFrequency+0x120>
    616e:	bc 01       	movw	r22, r24
        pinchange_max += pinchange_max;	// * 2 for up and down change
    6170:	66 0f       	add	r22, r22
    6172:	77 1f       	adc	r23, r23
    6174:	70 93 6a 01 	sts	0x016A, r23
    6178:	60 93 69 01 	sts	0x0169, r22
    617c:	54 98       	cbi	0x0a, 4	; 10
        FREQINP_DDR &= ~(1<<FREQINP_PIN);	// switch frequency pin to input
    617e:	0e 94 89 09 	call	0x1312	; 0x1312 <wait1ms>
        wait1ms();			// let capacitor time to load to 2.4V input
    6182:	16 bc       	out	0x26, r1	; 38
	EICRB = (0<<ISC61) | (1<<ISC60); // set int6 pin change
        EIFR  |= (1<<INTF6);		// clear interrupt 6 flag
        PCMSK_FREQ |= (1<<PCINT_FREQ); // enable int6
#else
        // other than PROCESSOR_TYP 1280
        TCNT0 = 0;			// set counter 0 to zero
    6184:	10 92 07 01 	sts	0x0107, r1
        ext_freq.dw = 0;		// reset counter to zero
    6188:	10 92 08 01 	sts	0x0108, r1
    618c:	10 92 09 01 	sts	0x0109, r1
    6190:	10 92 0a 01 	sts	0x010A, r1
    6194:	81 e0       	ldi	r24, 0x01	; 1
        TIFR0 = (1<<TOV0);		// clear OV interrupt
    6196:	85 bb       	out	0x15, r24	; 21
    6198:	80 93 6e 00 	sts	0x006E, r24
        TIMSK0 = (1<<TOIE0);		// enable OV interrupt
    619c:	10 92 6c 01 	sts	0x016C, r1
        // counter 0 ist started with first pin change interrupt
        pinchange_count = 0;
    61a0:	10 92 6b 01 	sts	0x016B, r1
    61a4:	94 e0       	ldi	r25, 0x04	; 4
        PCIFR  = (1<<PCI_CLEAR_BIT);		// clear Pin Change Status
    61a6:	9b bb       	out	0x1b, r25	; 27
    61a8:	80 91 68 00 	lds	r24, 0x0068
        PCICR  |= (1<<PCI_ENABLE_BIT);		// enable pin change interrupt
    61ac:	84 60       	ori	r24, 0x04	; 4
    61ae:	80 93 68 00 	sts	0x0068, r24
    61b2:	78 94       	sei
#endif  /* PROCESSOR_1280 or other */
        sei();
    61b4:	80 91 6d 00 	lds	r24, 0x006D
        PCMSK_FREQ |= (1<<PCINT_FREQ);	// monitor PD4 PCINT20 or PB0 PCINT8 pin change
    61b8:	80 61       	ori	r24, 0x10	; 16
    61ba:	80 93 6d 00 	sts	0x006D, r24
    61be:	19 82       	std	Y+1, r1	; 0x01
        for (ii=0;ii<250;ii++) {
    61c0:	0e 94 82 09 	call	0x1304	; 0x1304 <wait20ms>
           wait20ms();
    61c4:	a8 95       	wdr
           wdt_reset();
    61c6:	4f 99       	sbic	0x09, 7	; 9
           if (!(RST_PIN_REG & (1<<RST_PIN))) taste = 1;	// user request stop of operation
    61c8:	02 c0       	rjmp	.+4      	; 0x61ce <GetFrequency+0x18c>
    61ca:	e1 e0       	ldi	r30, 0x01	; 1
    61cc:	ea 83       	std	Y+2, r30	; 0x02
    61ce:	80 91 6d 00 	lds	r24, 0x006D
           if ((PCMSK_FREQ & (1<<PCINT_FREQ)) == 0) break;		// monitoring is disabled by interrupt
    61d2:	84 ff       	sbrs	r24, 4
    61d4:	05 c0       	rjmp	.+10     	; 0x61e0 <GetFrequency+0x19e>
    61d6:	f9 81       	ldd	r31, Y+1	; 0x01
        PCIFR  = (1<<PCI_CLEAR_BIT);		// clear Pin Change Status
        PCICR  |= (1<<PCI_ENABLE_BIT);		// enable pin change interrupt
#endif  /* PROCESSOR_1280 or other */
        sei();
        PCMSK_FREQ |= (1<<PCINT_FREQ);	// monitor PD4 PCINT20 or PB0 PCINT8 pin change
        for (ii=0;ii<250;ii++) {
    61d8:	ff 5f       	subi	r31, 0xFF	; 255
    61da:	f9 83       	std	Y+1, r31	; 0x01
    61dc:	fa 3f       	cpi	r31, 0xFA	; 250
    61de:	81 f7       	brne	.-32     	; 0x61c0 <GetFrequency+0x17e>
    61e0:	15 bc       	out	0x25, r1	; 37
#if PROCESSOR_TYP == 1280
        TCCR3B = 0;		// stop counter 3
        PCMSK_FREQ &= ~(1<<PCINT_FREQ); // disable int6
        ext_freq.w[0] = TCNT3;		// add lower 16 bit to get total counts
#else
        TCCR0B = 0;		// stop counter 0
    61e2:	80 91 6d 00 	lds	r24, 0x006D
        PCMSK_FREQ &= ~(1<<PCINT_FREQ);		// stop monitor PD4 PCINT20 or PB0 PCINT8 pin change
    61e6:	8f 7e       	andi	r24, 0xEF	; 239
    61e8:	80 93 6d 00 	sts	0x006D, r24
    61ec:	80 91 68 00 	lds	r24, 0x0068
        PCICR &= ~(1<<PCI_ENABLE_BIT);	// disable the interrupt
    61f0:	8b 7f       	andi	r24, 0xFB	; 251
    61f2:	80 93 68 00 	sts	0x0068, r24
    61f6:	86 b5       	in	r24, 0x26	; 38
        ext_freq.b[0] = TCNT0;		// add lower 8 bit to get total counts
    61f8:	80 93 07 01 	sts	0x0107, r24
    61fc:	0e 94 2b 0d 	call	0x1a56	; 0x1a56 <lcd_line3>
//        wait50ms();		// let LCD flicker to 
//	---------------------------------------
//	Show the result from period measurement
//	---------------------------------------
 #if (LCD_LINES > 3)
        lcd_line3();		// use line3 to report the period with 4-line LCD
    6200:	84 e5       	ldi	r24, 0x54	; 84
 #else
        lcd_line2();		// report period on line 2 of 2-line LCD
 #endif
        lcd_data('T');
    6202:	0e 94 0c 0e 	call	0x1c18	; 0x1c18 <lcd_data>
    6206:	0e 94 a7 0e 	call	0x1d4e	; 0x1d4e <lcd_equal>
        lcd_equal();		// lcd_data('=');
    620a:	60 91 07 01 	lds	r22, 0x0107
        ext_period = ((unsigned long long)ext_freq.dw * (200000/MHZ_CPU)) / pinchange_max;
    620e:	70 91 08 01 	lds	r23, 0x0108
    6212:	80 91 09 01 	lds	r24, 0x0109
    6216:	90 91 0a 01 	lds	r25, 0x010A
    621a:	20 91 69 01 	lds	r18, 0x0169
    621e:	30 91 6a 01 	lds	r19, 0x016A
    6222:	3d 83       	std	Y+5, r19	; 0x05
    6224:	2c 83       	std	Y+4, r18	; 0x04
    6226:	24 ed       	ldi	r18, 0xD4	; 212
    6228:	30 e3       	ldi	r19, 0x30	; 48
    622a:	40 e0       	ldi	r20, 0x00	; 0
    622c:	50 e0       	ldi	r21, 0x00	; 0
    622e:	0e 94 98 3d 	call	0x7b30	; 0x7b30 <__umulsidi3>
    6232:	ec 81       	ldd	r30, Y+4	; 0x04
    6234:	fd 81       	ldd	r31, Y+5	; 0x05
    6236:	5f 01       	movw	r10, r30
    6238:	c1 2c       	mov	r12, r1
    623a:	d1 2c       	mov	r13, r1
    623c:	e1 2c       	mov	r14, r1
    623e:	f1 2c       	mov	r15, r1
    6240:	00 e0       	ldi	r16, 0x00	; 0
    6242:	10 e0       	ldi	r17, 0x00	; 0
    6244:	0e 94 c1 3d 	call	0x7b82	; 0x7b82 <__udivdi3>
    6248:	49 01       	movw	r8, r18
    624a:	3a 01       	movw	r6, r20
    624c:	1b 01       	movw	r2, r22
    624e:	2c 01       	movw	r4, r24
    6250:	2c 81       	ldd	r18, Y+4	; 0x04
        }
 #endif
 #if (PROCESSOR_TYP != 644) && defined(WITH_FREQUENCY_DIVIDER)
        ext_period /= freq_factor;
 #endif
        if (pinchange_max > 127) {
    6252:	3d 81       	ldd	r19, Y+5	; 0x05
    6254:	20 38       	cpi	r18, 0x80	; 128
    6256:	31 05       	cpc	r19, r1
    6258:	30 f0       	brcs	.+12     	; 0x6266 <GetFrequency+0x224>
    625a:	07 e0       	ldi	r16, 0x07	; 7
           DisplayValue(ext_period,-11,'s',7);	// show period converted to 0.01ns units
    625c:	23 e7       	ldi	r18, 0x73	; 115
    625e:	45 ef       	ldi	r20, 0xF5	; 245
    6260:	b4 01       	movw	r22, r8
    6262:	c3 01       	movw	r24, r6
    6264:	16 c0       	rjmp	.+44     	; 0x6292 <GetFrequency+0x250>
    6266:	84 e6       	ldi	r24, 0x64	; 100
        } else {
           //prevent overflow of 32-Bit
           DisplayValue((unsigned long)(ext_period/100),-9,'s',7);	// show period converted to 1ns units
    6268:	a8 2e       	mov	r10, r24
    626a:	b1 2c       	mov	r11, r1
    626c:	c1 2c       	mov	r12, r1
    626e:	d1 2c       	mov	r13, r1
    6270:	e1 2c       	mov	r14, r1
    6272:	f1 2c       	mov	r15, r1
    6274:	00 e0       	ldi	r16, 0x00	; 0
    6276:	10 e0       	ldi	r17, 0x00	; 0
    6278:	94 01       	movw	r18, r8
    627a:	c2 01       	movw	r24, r4
    627c:	0e 94 c1 3d 	call	0x7b82	; 0x7b82 <__udivdi3>
    6280:	f2 2f       	mov	r31, r18
    6282:	e4 2f       	mov	r30, r20
    6284:	07 e0       	ldi	r16, 0x07	; 7
    6286:	23 e7       	ldi	r18, 0x73	; 115
    6288:	47 ef       	ldi	r20, 0xF7	; 247
    628a:	6f 2f       	mov	r22, r31
    628c:	73 2f       	mov	r23, r19
    628e:	8e 2f       	mov	r24, r30
    6290:	95 2f       	mov	r25, r21
    6292:	0e 94 fb 0e 	call	0x1df6	; 0x1df6 <DisplayValue>
    6296:	39 81       	ldd	r19, Y+1	; 0x01
        }
//	---------------------------------------
        if (ii == 250) {
    6298:	3a 3f       	cpi	r19, 0xFA	; 250
    629a:	21 f4       	brne	.+8      	; 0x62a4 <GetFrequency+0x262>
    629c:	8f e3       	ldi	r24, 0x3F	; 63
           lcd_data('?');		// wait loop has regular finished
    629e:	0e 94 0c 0e 	call	0x1c18	; 0x1c18 <lcd_data>
    62a2:	51 c0       	rjmp	.+162    	; 0x6346 <GetFrequency+0x304>
    62a4:	94 01       	movw	r18, r8
					// probably the input frequency has changed
        } else {
           if (ext_period > 46566) {
    62a6:	a3 01       	movw	r20, r6
    62a8:	b1 01       	movw	r22, r2
    62aa:	c2 01       	movw	r24, r4
    62ac:	26 3e       	cpi	r18, 0xE6	; 230
    62ae:	35 4b       	sbci	r19, 0xB5	; 181
    62b0:	41 05       	cpc	r20, r1
    62b2:	51 05       	cpc	r21, r1
    62b4:	61 05       	cpc	r22, r1
    62b6:	71 05       	cpc	r23, r1
    62b8:	81 05       	cpc	r24, r1
    62ba:	91 05       	cpc	r25, r1
    62bc:	09 f0       	breq	.+2      	; 0x62c0 <GetFrequency+0x27e>
    62be:	08 f4       	brcc	.+2      	; 0x62c2 <GetFrequency+0x280>
    62c0:	42 c0       	rjmp	.+132    	; 0x6346 <GetFrequency+0x304>
    62c2:	0e 94 33 0d 	call	0x1a66	; 0x1a66 <lcd_line4>
//	      ----------------------------------------------------
//	      Show the frequency recalculated from measured period
//	      ----------------------------------------------------
 #if (LCD_LINES > 3)
              lcd_line4();		// use line 4 of 4-line LCD to report the computed frequency
    62c6:	86 e6       	ldi	r24, 0x66	; 102
 #else
              lcd_line1();		// overwrite line 1 of 2-line LCD to report the computed frequency
 #endif
              lcd_data('f');
    62c8:	0e 94 0c 0e 	call	0x1c18	; 0x1c18 <lcd_data>
    62cc:	0e 94 a7 0e 	call	0x1d4e	; 0x1d4e <lcd_equal>
              lcd_equal();		// lcd_data('=');
    62d0:	94 01       	movw	r18, r8
              if (ext_period > 1000000000) {
    62d2:	a3 01       	movw	r20, r6
    62d4:	b1 01       	movw	r22, r2
    62d6:	c2 01       	movw	r24, r4
    62d8:	54 01       	movw	r10, r8
                 // frequency in 0.000001Hz (1e11*1e6)/(0.01ns count)
                 freq_from_per = (unsigned long long)(100000000000000000) / ext_period;
    62da:	63 01       	movw	r12, r6
    62dc:	71 01       	movw	r14, r2
    62de:	82 01       	movw	r16, r4
    62e0:	21 15       	cp	r18, r1
 #else
              lcd_line1();		// overwrite line 1 of 2-line LCD to report the computed frequency
 #endif
              lcd_data('f');
              lcd_equal();		// lcd_data('=');
              if (ext_period > 1000000000) {
    62e2:	3a 4c       	sbci	r19, 0xCA	; 202
    62e4:	4a 49       	sbci	r20, 0x9A	; 154
    62e6:	5b 43       	sbci	r21, 0x3B	; 59
    62e8:	61 05       	cpc	r22, r1
    62ea:	71 05       	cpc	r23, r1
    62ec:	81 05       	cpc	r24, r1
    62ee:	91 05       	cpc	r25, r1
    62f0:	89 f0       	breq	.+34     	; 0x6314 <GetFrequency+0x2d2>
    62f2:	80 f0       	brcs	.+32     	; 0x6314 <GetFrequency+0x2d2>
    62f4:	20 e0       	ldi	r18, 0x00	; 0
                 // frequency in 0.000001Hz (1e11*1e6)/(0.01ns count)
                 freq_from_per = (unsigned long long)(100000000000000000) / ext_period;
    62f6:	30 e0       	ldi	r19, 0x00	; 0
    62f8:	4a e8       	ldi	r20, 0x8A	; 138
    62fa:	5d e5       	ldi	r21, 0x5D	; 93
    62fc:	68 e7       	ldi	r22, 0x78	; 120
    62fe:	75 e4       	ldi	r23, 0x45	; 69
    6300:	83 e6       	ldi	r24, 0x63	; 99
    6302:	91 e0       	ldi	r25, 0x01	; 1
    6304:	0e 94 c1 3d 	call	0x7b82	; 0x7b82 <__udivdi3>
    6308:	f2 2f       	mov	r31, r18
    630a:	e4 2f       	mov	r30, r20
    630c:	07 e0       	ldi	r16, 0x07	; 7
                 DisplayValue(freq_from_per,-6,'H',7);  // display with  0.000001 Hz resolution
    630e:	28 e4       	ldi	r18, 0x48	; 72
    6310:	4a ef       	ldi	r20, 0xFA	; 250
    6312:	0f c0       	rjmp	.+30     	; 0x6332 <GetFrequency+0x2f0>
    6314:	20 e0       	ldi	r18, 0x00	; 0
              } else {
                 // prevent unsigned long overflow, scale to 0.0001 Hz
                 // frequency in 0.001Hz (1e11*1e3)/(0.01ns count)
                 freq_from_per = (unsigned long long)(100000000000000) / ext_period;
    6316:	30 e4       	ldi	r19, 0x40	; 64
    6318:	4a e7       	ldi	r20, 0x7A	; 122
    631a:	50 e1       	ldi	r21, 0x10	; 16
    631c:	63 ef       	ldi	r22, 0xF3	; 243
    631e:	7a e5       	ldi	r23, 0x5A	; 90
    6320:	80 e0       	ldi	r24, 0x00	; 0
    6322:	90 e0       	ldi	r25, 0x00	; 0
    6324:	0e 94 c1 3d 	call	0x7b82	; 0x7b82 <__udivdi3>
    6328:	f2 2f       	mov	r31, r18
    632a:	e4 2f       	mov	r30, r20
    632c:	07 e0       	ldi	r16, 0x07	; 7
                 DisplayValue(freq_from_per,-3,'H',7);  // display with  0.001 Hz resolution
    632e:	28 e4       	ldi	r18, 0x48	; 72
    6330:	4d ef       	ldi	r20, 0xFD	; 253
    6332:	6f 2f       	mov	r22, r31
    6334:	73 2f       	mov	r23, r19
    6336:	8e 2f       	mov	r24, r30
    6338:	95 2f       	mov	r25, r21
    633a:	0e 94 fb 0e 	call	0x1df6	; 0x1df6 <DisplayValue>
    633e:	8a e7       	ldi	r24, 0x7A	; 122
              }
              lcd_data('z');
    6340:	0e 94 0c 0e 	call	0x1c18	; 0x1c18 <lcd_data>
    6344:	54 98       	cbi	0x0a, 4	; 10
              FREQINP_DDR &= ~(1<<FREQINP_PIN);	// switch frequency pin to input
    6346:	10 92 6e 00 	sts	0x006E, r1
           FDIV_PORT &= ~(1<<FDIV_PIN);			// switch off the 16:1 divider
        }
     }
 #endif
//     taste += wait_for_key_ms(SHORT_WAIT_TIME/2);
     TIMSK0 = 0;		// disable all timer 0 interrupts
    634a:	80 ed       	ldi	r24, 0xD0	; 208
     taste += wait_for_key_ms(2000);
    634c:	97 e0       	ldi	r25, 0x07	; 7
    634e:	0e 94 52 11 	call	0x22a4	; 0x22a4 <wait_for_key_ms>
    6352:	2a 81       	ldd	r18, Y+2	; 0x02
    6354:	82 0f       	add	r24, r18
    6356:	29 f4       	brne	.+10     	; 0x6362 <GetFrequency+0x320>
 #ifdef WITH_ROTARY_SWITCH
     if ((taste != 0) || (rotary.incre > 2)) break;
 #else
     if (taste != 0) break;
    6358:	3b 81       	ldd	r19, Y+3	; 0x03
    635a:	31 50       	subi	r19, 0x01	; 1
    635c:	3b 83       	std	Y+3, r19	; 0x03
    635e:	31 11       	cpse	r19, r1
     u2lcd(freq_factor);	// show the frequency scaler, if not 1
  }
  #endif	/* WITH_FREQUENCY_DIVIDER */
 #endif		/* PROCESSOR_TYP */
  taste = 0;				// reset flag for key pressed
  for (mm=0;mm<240;mm++) {
    6360:	7b ce       	rjmp	.-778    	; 0x6058 <GetFrequency+0x16>
    6362:	25 96       	adiw	r28, 0x05	; 5
     if (taste != 0) break;
 #endif
  }  /* end for mm  */
 
  return;
 } // end GetFrequency()
    6364:	e2 e1       	ldi	r30, 0x12	; 18
    6366:	0c 94 39 3e 	jmp	0x7c72	; 0x7c72 <__epilogue_restores__>

0000636a <__vector_16>:
    636a:	1f 92       	push	r1
/* timer 0 Overflow interrupt                                   */
/* timer 0 count up to 0xff, then OV occur. update upper part   */
/* to build the total counts within one second or               */
/* to build the total counts within the specified pin changes.  */
/* ************************************************************ */
ISR(TIMER0_OVF_vect, ISR_BLOCK) {
    636c:	0f 92       	push	r0
    636e:	0f b6       	in	r0, 0x3f	; 63
    6370:	0f 92       	push	r0
    6372:	11 24       	eor	r1, r1
    6374:	8f 93       	push	r24
    6376:	9f 93       	push	r25
    6378:	af 93       	push	r26
    637a:	bf 93       	push	r27
  sei();		// set interrupt enable
    637c:	78 94       	sei
  ext_freq.dw += 256;	// add 256 clock tics to the total time
    637e:	80 91 07 01 	lds	r24, 0x0107
    6382:	90 91 08 01 	lds	r25, 0x0108
    6386:	a0 91 09 01 	lds	r26, 0x0109
    638a:	b0 91 0a 01 	lds	r27, 0x010A
    638e:	9f 5f       	subi	r25, 0xFF	; 255
    6390:	af 4f       	sbci	r26, 0xFF	; 255
    6392:	bf 4f       	sbci	r27, 0xFF	; 255
    6394:	80 93 07 01 	sts	0x0107, r24
    6398:	90 93 08 01 	sts	0x0108, r25
    639c:	a0 93 09 01 	sts	0x0109, r26
    63a0:	b0 93 0a 01 	sts	0x010A, r27
}
    63a4:	bf 91       	pop	r27
    63a6:	af 91       	pop	r26
    63a8:	9f 91       	pop	r25
    63aa:	8f 91       	pop	r24
    63ac:	0f 90       	pop	r0
    63ae:	0f be       	out	0x3f, r0	; 63
    63b0:	0f 90       	pop	r0
    63b2:	1f 90       	pop	r1
    63b4:	18 95       	reti

000063b6 <__vector_11>:
/* ************************************************************ */
/* Timer 1 Compare A interrupts with count 1 to start counter 0 */
/* This is defined as start of the measurement second.          */
/* ************************************************************ */
// this handler is also used by SamplingADC.S, where simply any dummy interrupt handler is usable; but if timing of this handler changes, need to adapt SamplingADC.S as well
ISR(TIMER1_COMPA_vect, ISR_BLOCK) {
    63b6:	1f 92       	push	r1
    63b8:	0f 92       	push	r0
    63ba:	0f b6       	in	r0, 0x3f	; 63
    63bc:	0f 92       	push	r0
    63be:	11 24       	eor	r1, r1
    63c0:	8f 93       	push	r24
#if PROCESSOR_TYP == 1280
  TCCR3B = (1<<CS32) | (1<<CS31) | (0<<CS30);	// start the counter 3 with external input T3
#else
  TCCR0B = (1<<CS02) | (1<<CS01) | (0<<CS00);	// now start the counter 0 with external input T0
    63c2:	86 e0       	ldi	r24, 0x06	; 6
    63c4:	85 bd       	out	0x25, r24	; 37
#endif
}
    63c6:	8f 91       	pop	r24
    63c8:	0f 90       	pop	r0
    63ca:	0f be       	out	0x3f, r0	; 63
    63cc:	0f 90       	pop	r0
    63ce:	1f 90       	pop	r1
    63d0:	18 95       	reti

000063d2 <__vector_12>:

#ifdef WITH_MENU
/* ************************************************************ */
/* Timer 1 Compare B interrupt after 1 second to stop counter 0 */
/* ************************************************************ */
ISR(TIMER1_COMPB_vect, ISR_BLOCK) {
    63d2:	1f 92       	push	r1
    63d4:	0f 92       	push	r0
    63d6:	0f b6       	in	r0, 0x3f	; 63
    63d8:	0f 92       	push	r0
    63da:	11 24       	eor	r1, r1
  // The TIMER1_COMPB_vect uses one push and one ldi more than this interrupt.
  // Therefore we stop timer 1 first and ajust to same time with wdt_reset();
  wdt_reset();			// for adjusting to same time as TIMER1_COMPB_vect
    63dc:	a8 95       	wdr
  TCCR1B = 0;			// stop counter 1
    63de:	10 92 81 00 	sts	0x0081, r1
#if PROCESSOR_TYP == 1280
  TCCR3B = 0;			// stop counter 3
#else
  TCCR0B = 0;			// stop counter 0
    63e2:	15 bc       	out	0x25, r1	; 37
#endif
}
    63e4:	0f 90       	pop	r0
    63e6:	0f be       	out	0x3f, r0	; 63
    63e8:	0f 90       	pop	r0
    63ea:	1f 90       	pop	r1
    63ec:	18 95       	reti

000063ee <__vector_5>:
/* full periods  (no half period)				*/
/* ************************************************************ */


ISR(PCINTx_vect, ISR_BLOCK)
{
    63ee:	1f 92       	push	r1
    63f0:	0f 92       	push	r0
    63f2:	0f b6       	in	r0, 0x3f	; 63
    63f4:	0f 92       	push	r0
    63f6:	11 24       	eor	r1, r1
    63f8:	2f 93       	push	r18
    63fa:	3f 93       	push	r19
    63fc:	8f 93       	push	r24
    63fe:	9f 93       	push	r25
  if (pinchange_count == 0) {
    6400:	80 91 6b 01 	lds	r24, 0x016B
    6404:	90 91 6c 01 	lds	r25, 0x016C
    6408:	89 2b       	or	r24, r25
    640a:	11 f4       	brne	.+4      	; 0x6410 <__vector_5+0x22>
#if PROCESSOR_TYP == 1280
     TCCR3B = (1<<CS30);	// start the counter 3 with full CPU clock
#else
     TCCR0B = (1<<CS00);	// start the counter 0 with full CPU clock
    640c:	81 e0       	ldi	r24, 0x01	; 1
    640e:	85 bd       	out	0x25, r24	; 37
#endif
  }
  if (pinchange_count >= pinchange_max) {
    6410:	20 91 6b 01 	lds	r18, 0x016B
    6414:	30 91 6c 01 	lds	r19, 0x016C
    6418:	80 91 69 01 	lds	r24, 0x0169
    641c:	90 91 6a 01 	lds	r25, 0x016A
    6420:	28 17       	cp	r18, r24
    6422:	39 07       	cpc	r19, r25
    6424:	30 f0       	brcs	.+12     	; 0x6432 <__vector_5+0x44>
     // stop the counter 3, when maximum value has reached.
     TCCR3B = 0;		// stop counter 3
     PCMSK_FREQ &= ~(1<<PCINT_FREQ);	// disable int6
#else
     // stop the counter 0, when maximum value has reached.
     TCCR0B = 0;		// stop counter 0
    6426:	15 bc       	out	0x25, r1	; 37
     PCMSK_FREQ &= ~(1<<PCINT_FREQ);	// disable monitoring of PD4 PCINT20 or PB0 PCINT8 pin change
    6428:	80 91 6d 00 	lds	r24, 0x006D
    642c:	8f 7e       	andi	r24, 0xEF	; 239
    642e:	80 93 6d 00 	sts	0x006D, r24
#endif
//     PCICR &= ~(1<<PCI_ENABLE_BIT);	// disable the interrupt
  }
  pinchange_count++;
    6432:	80 91 6b 01 	lds	r24, 0x016B
    6436:	90 91 6c 01 	lds	r25, 0x016C
    643a:	01 96       	adiw	r24, 0x01	; 1
    643c:	90 93 6c 01 	sts	0x016C, r25
    6440:	80 93 6b 01 	sts	0x016B, r24
}
    6444:	9f 91       	pop	r25
    6446:	8f 91       	pop	r24
    6448:	3f 91       	pop	r19
    644a:	2f 91       	pop	r18
    644c:	0f 90       	pop	r0
    644e:	0f be       	out	0x3f, r0	; 63
    6450:	0f 90       	pop	r0
    6452:	1f 90       	pop	r1
    6454:	18 95       	reti

00006456 <message2line>:

/* ****************************************************************** */
/* message2line writes the message corresponding to the number to LCD */
/* ****************************************************************** */
void message2line(uint8_t number) { 
     if (number > MODE_LAST) number -= (MODE_LAST + 1);
    6456:	8c 30       	cpi	r24, 0x0C	; 12
    6458:	08 f0       	brcs	.+2      	; 0x645c <message2line+0x6>
    645a:	8c 50       	subi	r24, 0x0C	; 12
     if (number == MODE_TRANS) lcd_MEM2_string(TESTER_str);
    645c:	81 11       	cpse	r24, r1
    645e:	03 c0       	rjmp	.+6      	; 0x6466 <message2line+0x10>
    6460:	83 e4       	ldi	r24, 0x43	; 67
    6462:	92 e0       	ldi	r25, 0x02	; 2
    6464:	36 c0       	rjmp	.+108    	; 0x64d2 <message2line+0x7c>
 #ifndef NO_FREQ_COUNTER
     if (number == MODE_FREQ) lcd_MEM2_string(FREQ_str);
    6466:	81 30       	cpi	r24, 0x01	; 1
    6468:	19 f4       	brne	.+6      	; 0x6470 <message2line+0x1a>
    646a:	88 e3       	ldi	r24, 0x38	; 56
    646c:	92 e0       	ldi	r25, 0x02	; 2
    646e:	31 c0       	rjmp	.+98     	; 0x64d2 <message2line+0x7c>
 #if PROCESSOR_TYP == 644
     if (number == MODE_HFREQ) lcd_MEM2_string(HFREQ_str);
     if (number == MODE_H_CRYSTAL) lcd_MEM2_string(H_CRYSTAL_str);
     if (number == MODE_L_CRYSTAL) lcd_MEM2_string(L_CRYSTAL_str);
 #endif
     if (number == MODE_FGEN) lcd_MEM2_string(F_GEN_str);
    6470:	82 30       	cpi	r24, 0x02	; 2
    6472:	19 f4       	brne	.+6      	; 0x647a <message2line+0x24>
    6474:	8b e0       	ldi	r24, 0x0B	; 11
    6476:	92 e0       	ldi	r25, 0x02	; 2
    6478:	2c c0       	rjmp	.+88     	; 0x64d2 <message2line+0x7c>
     if (number == MODE_PWM) lcd_MEM2_string(PWM_10bit_str);
    647a:	83 30       	cpi	r24, 0x03	; 3
    647c:	19 f4       	brne	.+6      	; 0x6484 <message2line+0x2e>
    647e:	80 e0       	ldi	r24, 0x00	; 0
    6480:	92 e0       	ldi	r25, 0x02	; 2
    6482:	27 c0       	rjmp	.+78     	; 0x64d2 <message2line+0x7c>
     if (number == MODE_ESR) lcd_MEM2_string(C_ESR_str);
    6484:	84 30       	cpi	r24, 0x04	; 4
    6486:	19 f4       	brne	.+6      	; 0x648e <message2line+0x38>
    6488:	8f e8       	ldi	r24, 0x8F	; 143
    648a:	90 e0       	ldi	r25, 0x00	; 0
    648c:	22 c0       	rjmp	.+68     	; 0x64d2 <message2line+0x7c>
     if (number == MODE_RESIS) lcd_MEM_string(RESIS_13_str);
    648e:	85 30       	cpi	r24, 0x05	; 5
    6490:	19 f4       	brne	.+6      	; 0x6498 <message2line+0x42>
    6492:	84 e8       	ldi	r24, 0x84	; 132
    6494:	90 e0       	ldi	r25, 0x00	; 0
    6496:	1d c0       	rjmp	.+58     	; 0x64d2 <message2line+0x7c>
     if (number == MODE_CAP13) lcd_MEM_string(CAP_13_str);
    6498:	86 30       	cpi	r24, 0x06	; 6
    649a:	19 f4       	brne	.+6      	; 0x64a2 <message2line+0x4c>
    649c:	8d e7       	ldi	r24, 0x7D	; 125
    649e:	90 e0       	ldi	r25, 0x00	; 0
    64a0:	18 c0       	rjmp	.+48     	; 0x64d2 <message2line+0x7c>
 #ifdef WITH_ROTARY_CHECK
     if (number == MODE_ROTARY) lcd_MEM2_string(RotaryEncoder_str);
 #endif
     if (number == MODE_BIG_CAP_CORR) lcd_MEM2_string(SetCapCorr_str);
    64a2:	87 30       	cpi	r24, 0x07	; 7
    64a4:	19 f4       	brne	.+6      	; 0x64ac <message2line+0x56>
    64a6:	81 ef       	ldi	r24, 0xF1	; 241
    64a8:	91 e0       	ldi	r25, 0x01	; 1
    64aa:	13 c0       	rjmp	.+38     	; 0x64d2 <message2line+0x7c>
 #ifdef WITH_SELFTEST
     if (number == MODE_SELFTEST) lcd_MEM2_string(FULLCHECK_str);
    64ac:	88 30       	cpi	r24, 0x08	; 8
    64ae:	19 f4       	brne	.+6      	; 0x64b6 <message2line+0x60>
    64b0:	88 ed       	ldi	r24, 0xD8	; 216
    64b2:	91 e0       	ldi	r25, 0x01	; 1
    64b4:	0e c0       	rjmp	.+28     	; 0x64d2 <message2line+0x7c>
 #ifdef WITH_VEXT
     if (number == MODE_VEXT) lcd_MEM_string(VOLTAGE_str); 
 #endif
 #if ((LCD_ST_TYPE == 7565) || (LCD_ST_TYPE == 8814) || (LCD_ST_TYPE == 8812) || (LCD_ST_TYPE == 1306) || defined(LCD_DOGM))

     if (number == MODE_CONTRAST) lcd_MEM_string(CONTRAST_str); 
    64b6:	89 30       	cpi	r24, 0x09	; 9
    64b8:	19 f4       	brne	.+6      	; 0x64c0 <message2line+0x6a>
    64ba:	8e eb       	ldi	r24, 0xBE	; 190
    64bc:	91 e0       	ldi	r25, 0x01	; 1
    64be:	09 c0       	rjmp	.+18     	; 0x64d2 <message2line+0x7c>
 #endif
 #ifdef LCD_CHANGE_COLOR
     if (number == MODE_SELECT_FG) lcd_MEM_string(FrontColor_str); 
     if (number == MODE_SELECT_BG) lcd_MEM_string(BackColor_str); 
 #endif
     if (number == MODE_SHOW) {
    64c0:	8a 30       	cpi	r24, 0x0A	; 10
    64c2:	19 f4       	brne	.+6      	; 0x64ca <message2line+0x74>
        lcd_MEM2_string(SHOW_str);
    64c4:	80 e2       	ldi	r24, 0x20	; 32
    64c6:	92 e0       	ldi	r25, 0x02	; 2
    64c8:	04 c0       	rjmp	.+8      	; 0x64d2 <message2line+0x7c>
     }
     if (number == MODE_OFF) {
    64ca:	8b 30       	cpi	r24, 0x0B	; 11
    64cc:	21 f4       	brne	.+8      	; 0x64d6 <message2line+0x80>
        lcd_MEM2_string(OFF_str);
    64ce:	87 e1       	ldi	r24, 0x17	; 23
    64d0:	92 e0       	ldi	r25, 0x02	; 2
    64d2:	0e 94 b5 0e 	call	0x1d6a	; 0x1d6a <lcd_fix_string>
     }
 lcd_clear_line();
    64d6:	0e 94 6d 0e 	call	0x1cda	; 0x1cda <lcd_clear_line>
 uart_newline();                   // MAURO
    64da:	0c 94 cb 0c 	jmp	0x1996	; 0x1996 <uart_newline>
    64de:	08 95       	ret

000064e0 <show_C_ESR>:
} /* end message2line() */

/* ****************************************************************** */
/* show_C_ESR measures the capacity and ESR of a capacitor connected to TP1 and TP3 */
/* ****************************************************************** */
void show_C_ESR() {
    64e0:	0f 93       	push	r16
    64e2:	cf 93       	push	r28
  uint8_t key_pressed;
  message_key_released(C_ESR_str);
    64e4:	8f e8       	ldi	r24, 0x8F	; 143
    64e6:	90 e0       	ldi	r25, 0x00	; 0
    64e8:	90 d3       	rcall	.+1824   	; 0x6c0a <message_key_released>
    64ea:	c0 e0       	ldi	r28, 0x00	; 0
#ifdef POWER_OFF
  uint8_t times;
  for (times=0;times<250;) 
    64ec:	10 92 13 01 	sts	0x0113, r1
#else
  while (1)		/* wait endless without the POWER_OFF option */
#endif
  {
        PartFound = PART_NONE;
    64f0:	60 e0       	ldi	r22, 0x00	; 0
        ReadBigCap(TP3,TP1);
    64f2:	82 e0       	ldi	r24, 0x02	; 2
    64f4:	a6 d3       	rcall	.+1868   	; 0x6c42 <ReadBigCap>
    64f6:	80 91 13 01 	lds	r24, 0x0113
        if (PartFound == PART_CAPACITOR) {
    64fa:	88 30       	cpi	r24, 0x08	; 8
    64fc:	c9 f5       	brne	.+114    	; 0x6570 <show_C_ESR+0x90>
    64fe:	0e 94 23 0d 	call	0x1a46	; 0x1a46 <lcd_line2>
#if LCD_LINES > 2
           lcd_line2(); 	// set to line2 
    6502:	83 e4       	ldi	r24, 0x43	; 67
    6504:	0e 94 0c 0e 	call	0x1c18	; 0x1c18 <lcd_data>
#else
           lcd_line1(); 	// set to line1 
#endif
           lcd_data('C');
    6508:	0e 94 a7 0e 	call	0x1d4e	; 0x1d4e <lcd_equal>
           lcd_equal();		// lcd_data('=');
    650c:	60 91 77 01 	lds	r22, 0x0177
           DisplayValue(cap.cval_max,cap.cpre_max,'F',3);
    6510:	70 91 78 01 	lds	r23, 0x0178
    6514:	80 91 79 01 	lds	r24, 0x0179
    6518:	90 91 7a 01 	lds	r25, 0x017A
    651c:	03 e0       	ldi	r16, 0x03	; 3
    651e:	26 e4       	ldi	r18, 0x46	; 70
    6520:	40 91 86 01 	lds	r20, 0x0186
    6524:	0e 94 fb 0e 	call	0x1df6	; 0x1df6 <DisplayValue>
    6528:	0e 94 6d 0e 	call	0x1cda	; 0x1cda <lcd_clear_line>
           lcd_clear_line();	// clear to end of line 1
    652c:	60 91 83 01 	lds	r22, 0x0183
           cap.esr = GetESR(cap.cb,cap.ca);
    6530:	80 91 84 01 	lds	r24, 0x0184
    6534:	0e 94 00 0b 	call	0x1600	; 0x1600 <GetESR>
    6538:	90 93 80 01 	sts	0x0180, r25
    653c:	80 93 7f 01 	sts	0x017F, r24
    6540:	0e 94 2b 0d 	call	0x1a56	; 0x1a56 <lcd_line3>
#if LCD_LINES > 2
	   lcd_line3();		// use line 3 
    6544:	8b e4       	ldi	r24, 0x4B	; 75
    6546:	91 e0       	ldi	r25, 0x01	; 1
#else
           lcd_line2();		// use line 2 
#endif
           lcd_MEM_string(&ESR_str[1]);
    6548:	0e 94 b5 0e 	call	0x1d6a	; 0x1d6a <lcd_fix_string>
    654c:	80 91 7f 01 	lds	r24, 0x017F
           if (cap.esr < 65530) {
    6550:	90 91 80 01 	lds	r25, 0x0180
    6554:	8a 3f       	cpi	r24, 0xFA	; 250
    6556:	2f ef       	ldi	r18, 0xFF	; 255
    6558:	92 07       	cpc	r25, r18
    655a:	30 f4       	brcc	.+12     	; 0x6568 <show_C_ESR+0x88>
    655c:	22 e0       	ldi	r18, 0x02	; 2
    655e:	44 e0       	ldi	r20, 0x04	; 4
              DisplayValue16(cap.esr,-2,LCD_CHAR_OMEGA,2);
    6560:	6e ef       	ldi	r22, 0xFE	; 254
    6562:	0e 94 e4 0f 	call	0x1fc8	; 0x1fc8 <DisplayValue16>
    6566:	08 c0       	rjmp	.+16     	; 0x6578 <show_C_ESR+0x98>
    6568:	8f e3       	ldi	r24, 0x3F	; 63
    656a:	0e 94 0c 0e 	call	0x1c18	; 0x1c18 <lcd_data>
           } else {
              lcd_data('?');		// too big
    656e:	04 c0       	rjmp	.+8      	; 0x6578 <show_C_ESR+0x98>
    6570:	0e 94 a3 0e 	call	0x1d46	; 0x1d46 <lcd_clear_line2>
           }
           lcd_clear_line();		// clear to end of line
        } else { // no cap found
#if LCD_LINES > 2
           lcd_clear_line2(); 	// clear C value 
    6574:	0e 94 2b 0d 	call	0x1a56	; 0x1a56 <lcd_line3>
           lcd_line3();
    6578:	0e 94 6d 0e 	call	0x1cda	; 0x1cda <lcd_clear_line>
	   lcd_clear_line();	// clear old ESR value
    657c:	8c 2f       	mov	r24, r28
    657e:	72 d9       	rcall	.-3356   	; 0x5864 <Bat_update>
           lcd_clear_line();
           lcd_clear_line2(); 	// clear old ESR value 
#endif
        }
#if defined(POWER_OFF) && defined(BAT_CHECK)
     Bat_update(times);
    6580:	88 ee       	ldi	r24, 0xE8	; 232
    6582:	93 e0       	ldi	r25, 0x03	; 3
    6584:	0e 94 52 11 	call	0x22a4	; 0x22a4 <wait_for_key_ms>
#endif
     key_pressed = wait_for_key_ms(1000);
    6588:	81 11       	cpse	r24, r1
    658a:	06 c0       	rjmp	.+12     	; 0x6598 <show_C_ESR+0xb8>
    658c:	8c 2f       	mov	r24, r28
#ifdef WITH_ROTARY_SWITCH
     if ((key_pressed != 0) || (rotary.incre > 3)) break;
#else
     if (key_pressed != 0) break;
    658e:	71 d9       	rcall	.-3358   	; 0x5872 <Pwr_mode_check>
    6590:	c8 2f       	mov	r28, r24
#endif
#ifdef POWER_OFF
     times = Pwr_mode_check(times);	// no time limit with DC_Pwr_mode
    6592:	8a 3f       	cpi	r24, 0xFA	; 250
    6594:	08 f4       	brcc	.+2      	; 0x6598 <show_C_ESR+0xb8>
    6596:	aa cf       	rjmp	.-172    	; 0x64ec <show_C_ESR+0xc>
    6598:	cf 91       	pop	r28
void show_C_ESR() {
  uint8_t key_pressed;
  message_key_released(C_ESR_str);
#ifdef POWER_OFF
  uint8_t times;
  for (times=0;times<250;) 
    659a:	0f 91       	pop	r16
    659c:	08 95       	ret

0000659e <make_frequency>:
    659e:	a5 e0       	ldi	r26, 0x05	; 5
#endif
#ifdef POWER_OFF
     times = Pwr_mode_check(times);	// no time limit with DC_Pwr_mode
#endif
  }  /* end for times */
} /* end show_C_ESR() */
    65a0:	b0 e0       	ldi	r27, 0x00	; 0
    65a2:	e5 ed       	ldi	r30, 0xD5	; 213
    65a4:	f2 e3       	ldi	r31, 0x32	; 50
/* *************************************************** */
/* make frequency starts a frequency generator at TP2 with 680 Ohm resistor */
/* some predefined frequencies can be switched with the key */
/* a long key press returns to the selection menu */
/* *************************************************** */
void make_frequency() {
    65a6:	0c 94 1d 3e 	jmp	0x7c3a	; 0x7c3a <__prologue_saves__>
  unsigned long  f_incre;	// frequency increment 1, 10, 100, 1000, 10000, 100000
  uint8_t f_digit;		// digit for f_incre, 0-10 or 0-20
  uint8_t Max_Digit;		// 10 or 20 , the last digit is for 
  uint8_t right;		// logical expression 

  message_key_released(F_GEN_str);	// display f-Generator and wait for key released
    65aa:	8b e0       	ldi	r24, 0x0B	; 11
    65ac:	92 e0       	ldi	r25, 0x02	; 2
    65ae:	2d d3       	rcall	.+1626   	; 0x6c0a <message_key_released>
    65b0:	80 e1       	ldi	r24, 0x10	; 16
  // OC1B is connected with 680 Ohm resistor to TP2 (middle test pin) 
  TCCR1A = (0<<COM1B1) | (1<<COM1B0) | (0<<WGM11) | (0<<WGM10); // CTC mode, count to OCR1A
    65b2:	80 93 80 00 	sts	0x0080, r24
    65b6:	10 92 6f 00 	sts	0x006F, r1
  TIMSK1 = 0;		// no interrupt used
    65ba:	81 e0       	ldi	r24, 0x01	; 1
  OCR1A = 1;		// highest frequency
    65bc:	90 e0       	ldi	r25, 0x00	; 0
    65be:	90 93 89 00 	sts	0x0089, r25
    65c2:	80 93 88 00 	sts	0x0088, r24
    65c6:	10 92 8b 00 	sts	0x008B, r1
  OCR1B	= 0;		// toggle OC1B at this count
    65ca:	10 92 8a 00 	sts	0x008A, r1
    65ce:	83 e0       	ldi	r24, 0x03	; 3
  TIFR1 = (1<<OCF1A) | (1<<OCF1A) | (1<<TOV1);	// reset interrupt flags
    65d0:	86 bb       	out	0x16, r24	; 22
    65d2:	10 92 82 00 	sts	0x0082, r1
  TCCR1C = 0;
    65d6:	88 e0       	ldi	r24, 0x08	; 8
  TCCR1B = (0<<WGM13) | (1<<WGM12) | (0<<CS12) | (0<<CS11) | (0<<CS10); // set counter mode 
    65d8:	80 93 81 00 	sts	0x0081, r24
    65dc:	15 b8       	out	0x05, r1	; 5
  R_PORT = 0;		// set all resistor port outputs to GND
    65de:	91 e1       	ldi	r25, 0x11	; 17
#if PROCESSOR_TYP == 644
  R_DDR = (1<<PIN_RL1) | (1<<PIN_RL2) | (1<<PIN_RL3);		// set TP1, DDD4(TP2) and TP3 to output
#else
  R_DDR = (1<<PIN_RL1) | (1<<PIN_RL3);		// set TP1 and TP3 to output
    65e0:	94 b9       	out	0x04, r25	; 4
    65e2:	88 b9       	out	0x08, r24	; 8
#endif
  ADC_PORT = TXD_VAL;
    65e4:	89 e0       	ldi	r24, 0x09	; 9
  ADC_DDR = (1<<TP1) | TXD_MSK;			//connect TP1 to GND
    65e6:	87 b9       	out	0x07, r24	; 7
    65e8:	22 9a       	sbi	0x04, 2	; 4
#if PROCESSOR_TYP == 1280
  DDRB  |= (1<<DDB6);	// set output enable for OC1B
#else
  DDRB  |= (1<<DDB2);	// set output enable for OC1B
    65ea:	80 93 81 00 	sts	0x0081, r24
#endif
  TCCR1B = (0<<WGM13) | (1<<WGM12) | (0<<CS12) | (0<<CS11) | (1<<CS10); // no clock divide
    65ee:	31 2c       	mov	r3, r1
#ifdef POWER_OFF
  uint8_t new_points;		// one point for every 30 seconds wait time
  uint8_t shown_points;		// one point for every 30 seconds wait time
  uint8_t times;		// total wait time
  shown_points = 0;
  for (times=0; times<240;) 
    65f0:	1b 82       	std	Y+3, r1	; 0x03
  significant = 16+1;	// only one significant frequency digit (Hz resolution)
#ifdef POWER_OFF
  uint8_t new_points;		// one point for every 30 seconds wait time
  uint8_t shown_points;		// one point for every 30 seconds wait time
  uint8_t times;		// total wait time
  shown_points = 0;
    65f2:	fa e0       	ldi	r31, 0x0A	; 10
#endif
  TCCR1B = (0<<WGM13) | (1<<WGM12) | (0<<CS12) | (0<<CS11) | (1<<CS10); // no clock divide
//  wish_freq = 1;		// start with 1 Hz
  f_incre = 1;		// increment with 1 Hz
  f_digit = 1;			// start value
  Max_Digit = 10;	// normally 10, only for 100kHz steps 20
    65f4:	2f 2e       	mov	r2, r31
    65f6:	21 e0       	ldi	r18, 0x01	; 1
  DDRB  |= (1<<DDB2);	// set output enable for OC1B
#endif
  TCCR1B = (0<<WGM13) | (1<<WGM12) | (0<<CS12) | (0<<CS11) | (1<<CS10); // no clock divide
//  wish_freq = 1;		// start with 1 Hz
  f_incre = 1;		// increment with 1 Hz
  f_digit = 1;			// start value
    65f8:	2c 83       	std	Y+4, r18	; 0x04
    65fa:	81 2c       	mov	r8, r1
#else
  DDRB  |= (1<<DDB2);	// set output enable for OC1B
#endif
  TCCR1B = (0<<WGM13) | (1<<WGM12) | (0<<CS12) | (0<<CS11) | (1<<CS10); // no clock divide
//  wish_freq = 1;		// start with 1 Hz
  f_incre = 1;		// increment with 1 Hz
    65fc:	91 2c       	mov	r9, r1
    65fe:	54 01       	movw	r10, r8
    6600:	83 94       	inc	r8
    6602:	31 e1       	ldi	r19, 0x11	; 17
  f_digit = 1;			// start value
  Max_Digit = 10;	// normally 10, only for 100kHz steps 20
  significant = 16+1;	// only one significant frequency digit (Hz resolution)
    6604:	3d 83       	std	Y+5, r19	; 0x05
    6606:	83 2d       	mov	r24, r3
#else
  while (1)			/* wait endless without option POWER_OFF */
#endif
  {
#ifdef POWER_OFF
     new_points = (times+10) / 30;
    6608:	90 e0       	ldi	r25, 0x00	; 0
    660a:	0a 96       	adiw	r24, 0x0a	; 10
    660c:	6e e1       	ldi	r22, 0x1E	; 30
    660e:	70 e0       	ldi	r23, 0x00	; 0
    6610:	0e 94 1c 3d 	call	0x7a38	; 0x7a38 <__divmodhi4>
    6614:	16 2f       	mov	r17, r22
    6616:	06 2f       	mov	r16, r22
    6618:	4b 81       	ldd	r20, Y+3	; 0x03
     if (new_points != shown_points) {
    661a:	64 17       	cp	r22, r20
    661c:	89 f0       	breq	.+34     	; 0x6640 <make_frequency+0xa2>
    661e:	0e 94 d0 0c 	call	0x19a0	; 0x19a0 <lcd_line1>
        // count of points has changed, build LCD line1 new
        lcd_line1();	// position to line 1 
    6622:	8b e0       	ldi	r24, 0x0B	; 11
        lcd_MEM2_string(F_GEN_str);	// display f-Generator
    6624:	92 e0       	ldi	r25, 0x02	; 2
    6626:	0e 94 b5 0e 	call	0x1d6a	; 0x1d6a <lcd_fix_string>
    662a:	71 2c       	mov	r7, r1
        shown_points = new_points;
        for (new_points=0; new_points<shown_points ;new_points++) {
    662c:	70 16       	cp	r7, r16
    662e:	28 f4       	brcc	.+10     	; 0x663a <make_frequency+0x9c>
    6630:	8e e2       	ldi	r24, 0x2E	; 46
           lcd_data('.');		// show elapsed time, one point is 60 seconds
    6632:	0e 94 0c 0e 	call	0x1c18	; 0x1c18 <lcd_data>
    6636:	73 94       	inc	r7
     if (new_points != shown_points) {
        // count of points has changed, build LCD line1 new
        lcd_line1();	// position to line 1 
        lcd_MEM2_string(F_GEN_str);	// display f-Generator
        shown_points = new_points;
        for (new_points=0; new_points<shown_points ;new_points++) {
    6638:	f9 cf       	rjmp	.-14     	; 0x662c <make_frequency+0x8e>
    663a:	0e 94 6d 0e 	call	0x1cda	; 0x1cda <lcd_clear_line>
           lcd_data('.');		// show elapsed time, one point is 60 seconds
        }
        lcd_clear_line();	// clear remainder of line1
    663e:	1b 83       	std	Y+3, r17	; 0x03
    6640:	5d 81       	ldd	r21, Y+5	; 0x05
     }
#endif
     // Generate frequency
     if (significant > (16+1)) {
    6642:	52 31       	cpi	r21, 0x12	; 18
    6644:	b8 f0       	brcs	.+46     	; 0x6674 <make_frequency+0xd6>
    6646:	c7 01       	movw	r24, r14
        // use lower significant digits and the frequency selection digit f_digit
        wish_freq = (wish_freq % f_incre) + ((f_digit%Max_Digit) * f_incre);
    6648:	b6 01       	movw	r22, r12
    664a:	a5 01       	movw	r20, r10
    664c:	94 01       	movw	r18, r8
    664e:	0e 94 2f 3d 	call	0x7a5e	; 0x7a5e <__udivmodsi4>
    6652:	6b 01       	movw	r12, r22
    6654:	7c 01       	movw	r14, r24
    6656:	8c 81       	ldd	r24, Y+4	; 0x04
    6658:	62 2d       	mov	r22, r2
    665a:	0e 94 fc 3c 	call	0x79f8	; 0x79f8 <__udivmodqi4>
    665e:	a9 2f       	mov	r26, r25
    6660:	b0 e0       	ldi	r27, 0x00	; 0
    6662:	a5 01       	movw	r20, r10
    6664:	94 01       	movw	r18, r8
    6666:	0e 94 88 3d 	call	0x7b10	; 0x7b10 <__muluhisi3>
    666a:	c6 0e       	add	r12, r22
    666c:	d7 1e       	adc	r13, r23
    666e:	e8 1e       	adc	r14, r24
    6670:	f9 1e       	adc	r15, r25
    6672:	0c c0       	rjmp	.+24     	; 0x668c <make_frequency+0xee>
    6674:	8c 81       	ldd	r24, Y+4	; 0x04
     } else {
	// with only one significant there are no lower significant digits
        wish_freq = ((f_digit%Max_Digit) * f_incre);
    6676:	62 2d       	mov	r22, r2
    6678:	0e 94 fc 3c 	call	0x79f8	; 0x79f8 <__udivmodqi4>
    667c:	a9 2f       	mov	r26, r25
    667e:	b0 e0       	ldi	r27, 0x00	; 0
    6680:	a5 01       	movw	r20, r10
    6682:	94 01       	movw	r18, r8
    6684:	0e 94 88 3d 	call	0x7b10	; 0x7b10 <__muluhisi3>
    6688:	6b 01       	movw	r12, r22
    668a:	7c 01       	movw	r14, r24
    668c:	0e 94 23 0d 	call	0x1a46	; 0x1a46 <lcd_line2>
     }
     lcd_line2();
    6690:	8c 81       	ldd	r24, Y+4	; 0x04
     right = ((f_digit == Max_Digit) && (significant > 17));
    6692:	82 11       	cpse	r24, r2
    6694:	03 c0       	rjmp	.+6      	; 0x669c <make_frequency+0xfe>
    6696:	9d 81       	ldd	r25, Y+5	; 0x05
     uint8_t long_key_char;
     if (right) {
    6698:	92 31       	cpi	r25, 0x12	; 18
    669a:	38 f4       	brcc	.+14     	; 0x66aa <make_frequency+0x10c>
    669c:	ed 81       	ldd	r30, Y+5	; 0x05
        long_key_char = '<';	// the frequency string will move to the left by long key press
     } else {
        if (significant < (16+6)) {
    669e:	1a 82       	std	Y+2, r1	; 0x02
    66a0:	19 82       	std	Y+1, r1	; 0x01
    66a2:	e6 31       	cpi	r30, 0x16	; 22
    66a4:	40 f0       	brcs	.+16     	; 0x66b6 <make_frequency+0x118>
    66a6:	82 e5       	ldi	r24, 0x52	; 82
           long_key_char = '>';		// move the frequency string to the right with one leading zero
        } else {
           long_key_char = 'R';		// i100kHz is the last position, Reset to 1 by long key press
    66a8:	07 c0       	rjmp	.+14     	; 0x66b8 <make_frequency+0x11a>
    66aa:	21 e0       	ldi	r18, 0x01	; 1
    66ac:	30 e0       	ldi	r19, 0x00	; 0
    66ae:	3a 83       	std	Y+2, r19	; 0x02
    66b0:	29 83       	std	Y+1, r18	; 0x01
    66b2:	8c e3       	ldi	r24, 0x3C	; 60
     }
     lcd_line2();
     right = ((f_digit == Max_Digit) && (significant > 17));
     uint8_t long_key_char;
     if (right) {
        long_key_char = '<';	// the frequency string will move to the left by long key press
    66b4:	01 c0       	rjmp	.+2      	; 0x66b8 <make_frequency+0x11a>
    66b6:	8e e3       	ldi	r24, 0x3E	; 62
     } else {
        if (significant < (16+6)) {
           long_key_char = '>';		// move the frequency string to the right with one leading zero
    66b8:	0e 94 0c 0e 	call	0x1c18	; 0x1c18 <lcd_data>
        } else {
           long_key_char = 'R';		// i100kHz is the last position, Reset to 1 by long key press
        }
     }
     lcd_data(long_key_char);		// show the selected character for long key action
    66bc:	0e 94 59 0e 	call	0x1cb2	; 0x1cb2 <lcd_space>
#if (LCD_LINES > 2)
     lcd_space();
    66c0:	4d 81       	ldd	r20, Y+5	; 0x05
#endif
     Display_Hz(wish_freq, significant);	// show the selected frequuency
    66c2:	c7 01       	movw	r24, r14
    66c4:	b6 01       	movw	r22, r12
    66c6:	0e 94 f9 0f 	call	0x1ff2	; 0x1ff2 <Display_Hz>
    66ca:	c7 01       	movw	r24, r14
     hperiod.dw = (F_CPU + wish_freq) / (wish_freq * 2);  // total divider for selected frequenx
    66cc:	b6 01       	movw	r22, r12
    66ce:	7c 5d       	subi	r23, 0xDC	; 220
    66d0:	8b 40       	sbci	r24, 0x0B	; 11
    66d2:	9f 4f       	sbci	r25, 0xFF	; 255
    66d4:	a7 01       	movw	r20, r14
    66d6:	96 01       	movw	r18, r12
    66d8:	22 0f       	add	r18, r18
    66da:	33 1f       	adc	r19, r19
    66dc:	44 1f       	adc	r20, r20
    66de:	55 1f       	adc	r21, r21
    66e0:	0e 94 2f 3d 	call	0x7a5e	; 0x7a5e <__udivmodsi4>
    66e4:	ca 01       	movw	r24, r20
     divider = 1;
     if (hperiod.w[1] >= 256) {
    66e6:	4f 3f       	cpi	r20, 0xFF	; 255
    66e8:	51 05       	cpc	r21, r1
    66ea:	39 f0       	breq	.+14     	; 0x66fa <make_frequency+0x15c>
    66ec:	30 f0       	brcs	.+12     	; 0x66fa <make_frequency+0x15c>
    66ee:	8d e0       	ldi	r24, 0x0D	; 13
        // divide by 1024
        TCCR1B = (0<<WGM13) | (1<<WGM12) | (1<<CS12) | (0<<CS11) | (1<<CS10); // divide clock by 1024
    66f0:	80 93 81 00 	sts	0x0081, r24
    66f4:	80 e0       	ldi	r24, 0x00	; 0
        divider = 1024;
    66f6:	94 e0       	ldi	r25, 0x04	; 4
    66f8:	1f c0       	rjmp	.+62     	; 0x6738 <make_frequency+0x19a>
    66fa:	40 34       	cpi	r20, 0x40	; 64
     } else if (hperiod.w[1] >= 64) {
    66fc:	51 05       	cpc	r21, r1
    66fe:	30 f0       	brcs	.+12     	; 0x670c <make_frequency+0x16e>
    6700:	8c e0       	ldi	r24, 0x0C	; 12
        // divide by 256
        TCCR1B = (0<<WGM13) | (1<<WGM12) | (1<<CS12) | (0<<CS11) | (0<<CS10); // divide clock by 256
    6702:	80 93 81 00 	sts	0x0081, r24
    6706:	80 e0       	ldi	r24, 0x00	; 0
        divider = 256;
    6708:	91 e0       	ldi	r25, 0x01	; 1
    670a:	16 c0       	rjmp	.+44     	; 0x6738 <make_frequency+0x19a>
    670c:	48 30       	cpi	r20, 0x08	; 8
     } else if (hperiod.w[1] >= 8) {
    670e:	51 05       	cpc	r21, r1
    6710:	30 f0       	brcs	.+12     	; 0x671e <make_frequency+0x180>
    6712:	8b e0       	ldi	r24, 0x0B	; 11
        // divide by 64
        TCCR1B = (0<<WGM13) | (1<<WGM12) | (0<<CS12) | (1<<CS11) | (1<<CS10); // divide clock by 64
    6714:	80 93 81 00 	sts	0x0081, r24
    6718:	80 e4       	ldi	r24, 0x40	; 64
        divider = 64;
    671a:	90 e0       	ldi	r25, 0x00	; 0
    671c:	0d c0       	rjmp	.+26     	; 0x6738 <make_frequency+0x19a>
    671e:	89 2b       	or	r24, r25
     } else if (hperiod.w[1] >= 1) {
    6720:	31 f0       	breq	.+12     	; 0x672e <make_frequency+0x190>
    6722:	9a e0       	ldi	r25, 0x0A	; 10
        // divide by 8
        TCCR1B = (0<<WGM13) | (1<<WGM12) | (0<<CS12) | (1<<CS11) | (0<<CS10); // divide clock by 8
    6724:	90 93 81 00 	sts	0x0081, r25
    6728:	88 e0       	ldi	r24, 0x08	; 8
        divider = 8;
    672a:	90 e0       	ldi	r25, 0x00	; 0
    672c:	05 c0       	rjmp	.+10     	; 0x6738 <make_frequency+0x19a>
    672e:	e9 e0       	ldi	r30, 0x09	; 9
     } else {
        // no divide
        TCCR1B = (0<<WGM13) | (1<<WGM12) | (0<<CS12) | (0<<CS11) | (1<<CS10); // no clock divide
    6730:	e0 93 81 00 	sts	0x0081, r30
    6734:	81 e0       	ldi	r24, 0x01	; 1
#if (LCD_LINES > 2)
     lcd_space();
#endif
     Display_Hz(wish_freq, significant);	// show the selected frequuency
     hperiod.dw = (F_CPU + wish_freq) / (wish_freq * 2);  // total divider for selected frequenx
     divider = 1;
    6736:	90 e0       	ldi	r25, 0x00	; 0
    6738:	2c 01       	movw	r4, r24
        divider = 8;
     } else {
        // no divide
        TCCR1B = (0<<WGM13) | (1<<WGM12) | (0<<CS12) | (0<<CS11) | (1<<CS10); // no clock divide
     }
     OCR1A = (hperiod.dw / divider) - 1;	// the remainder divider  match to 16-bit counter 
    673a:	61 2c       	mov	r6, r1
    673c:	71 2c       	mov	r7, r1
    673e:	ca 01       	movw	r24, r20
    6740:	b9 01       	movw	r22, r18
    6742:	a3 01       	movw	r20, r6
    6744:	92 01       	movw	r18, r4
    6746:	0e 94 2f 3d 	call	0x7a5e	; 0x7a5e <__udivmodsi4>
    674a:	21 50       	subi	r18, 0x01	; 1
    674c:	31 09       	sbc	r19, r1
    674e:	30 93 89 00 	sts	0x0089, r19
    6752:	20 93 88 00 	sts	0x0088, r18
    6756:	80 91 88 00 	lds	r24, 0x0088
     if (OCR1A == 0) OCR1A = 1;
    675a:	90 91 89 00 	lds	r25, 0x0089
    675e:	89 2b       	or	r24, r25
    6760:	31 f4       	brne	.+12     	; 0x676e <make_frequency+0x1d0>
    6762:	21 e0       	ldi	r18, 0x01	; 1
    6764:	30 e0       	ldi	r19, 0x00	; 0
    6766:	30 93 89 00 	sts	0x0089, r19
    676a:	20 93 88 00 	sts	0x0088, r18
    676e:	0e 94 6d 0e 	call	0x1cda	; 0x1cda <lcd_clear_line>
#if (LCD_LINES > 2)
     lcd_clear_line();		// clear to end of line 2
    6772:	0e 94 2b 0d 	call	0x1a56	; 0x1a56 <lcd_line3>
     lcd_line3();
    6776:	86 e6       	ldi	r24, 0x66	; 102
     lcd_data('f');
    6778:	0e 94 0c 0e 	call	0x1c18	; 0x1c18 <lcd_data>
    677c:	0e 94 59 0e 	call	0x1cb2	; 0x1cb2 <lcd_space>
     lcd_space();
    6780:	00 91 88 00 	lds	r16, 0x0088
//     }
//     lcd_data('z');
//     lcd_clear_line();
#endif
     long int diff_freq;
     diff_freq = (((F_CPU/2) / divider) * 100) / (OCR1A + 1) - (wish_freq * 100);
    6784:	10 91 89 00 	lds	r17, 0x0089
    6788:	60 e0       	ldi	r22, 0x00	; 0
    678a:	72 e1       	ldi	r23, 0x12	; 18
    678c:	8a e7       	ldi	r24, 0x7A	; 122
    678e:	90 e0       	ldi	r25, 0x00	; 0
    6790:	a3 01       	movw	r20, r6
    6792:	92 01       	movw	r18, r4
    6794:	0e 94 2f 3d 	call	0x7a5e	; 0x7a5e <__udivmodsi4>
    6798:	a4 e6       	ldi	r26, 0x64	; 100
    679a:	b0 e0       	ldi	r27, 0x00	; 0
    679c:	0e 94 88 3d 	call	0x7b10	; 0x7b10 <__muluhisi3>
    67a0:	98 01       	movw	r18, r16
    67a2:	2f 5f       	subi	r18, 0xFF	; 255
    67a4:	3f 4f       	sbci	r19, 0xFF	; 255
    67a6:	40 e0       	ldi	r20, 0x00	; 0
    67a8:	50 e0       	ldi	r21, 0x00	; 0
    67aa:	0e 94 2f 3d 	call	0x7a5e	; 0x7a5e <__udivmodsi4>
    67ae:	29 01       	movw	r4, r18
    67b0:	3a 01       	movw	r6, r20
    67b2:	a4 e6       	ldi	r26, 0x64	; 100
    67b4:	b0 e0       	ldi	r27, 0x00	; 0
    67b6:	a7 01       	movw	r20, r14
    67b8:	96 01       	movw	r18, r12
    67ba:	0e 94 88 3d 	call	0x7b10	; 0x7b10 <__muluhisi3>
    67be:	a3 01       	movw	r20, r6
    67c0:	92 01       	movw	r18, r4
    67c2:	26 1b       	sub	r18, r22
    67c4:	37 0b       	sbc	r19, r23
    67c6:	48 0b       	sbc	r20, r24
    67c8:	59 0b       	sbc	r21, r25
    67ca:	ca 01       	movw	r24, r20
    67cc:	b9 01       	movw	r22, r18
    67ce:	05 e2       	ldi	r16, 0x25	; 37
#if (LCD_LINES > 2)
     DisplayValue(diff_freq,-2,'H',32+5);
    67d0:	28 e4       	ldi	r18, 0x48	; 72
    67d2:	4e ef       	ldi	r20, 0xFE	; 254
    67d4:	0e 94 fb 0e 	call	0x1df6	; 0x1df6 <DisplayValue>
    67d8:	8a e7       	ldi	r24, 0x7A	; 122
#else
     DisplayValue(diff_freq,-2,'H',32+2);
#endif
     lcd_data('z');
    67da:	0e 94 0c 0e 	call	0x1c18	; 0x1c18 <lcd_data>
    67de:	0e 94 6d 0e 	call	0x1cda	; 0x1cda <lcd_clear_line>
     lcd_clear_line();
    67e2:	80 ed       	ldi	r24, 0xD0	; 208
     key_pressed = wait_for_key_ms(2000);	// check key and rotary encoder
    67e4:	97 e0       	ldi	r25, 0x07	; 7
    67e6:	0e 94 52 11 	call	0x22a4	; 0x22a4 <wait_for_key_ms>
    67ea:	88 23       	and	r24, r24
#ifdef POWER_OFF
 #ifdef WITH_ROTARY_SWITCH
     if ((key_pressed != 0) || (rotary.incre > 0)) times = 0;	// reset counter, operator is active
 #else
     if (key_pressed != 0)  times = 0;	// reset counter, operator is active
    67ec:	09 f4       	brne	.+2      	; 0x67f0 <make_frequency+0x252>
    67ee:	4a c0       	rjmp	.+148    	; 0x6884 <make_frequency+0x2e6>
    67f0:	88 3c       	cpi	r24, 0xC8	; 200
 #endif
#endif
     if(key_pressed >= 200) break;	// more than 2.0 seconds
    67f2:	60 f0       	brcs	.+24     	; 0x680c <make_frequency+0x26e>
    67f4:	10 92 81 00 	sts	0x0081, r1
     f_digit = f_digit % (Max_Digit + 1);
#ifdef POWER_OFF
     times = Pwr_mode_check(times);	// no time limit with DC_Pwr_mode
#endif
  } /* end for times */
  TCCR1B = 0;		// stop counter
    67f8:	10 92 80 00 	sts	0x0080, r1
  TCCR1A = 0;		// stop counter
    67fc:	88 e0       	ldi	r24, 0x08	; 8
  ADC_DDR =  TXD_MSK;	// disconnect TP1 
    67fe:	87 b9       	out	0x07, r24	; 7
    6800:	14 b8       	out	0x04, r1	; 4
  R_DDR = 0;		// switch resistor ports to Input
    6802:	22 98       	cbi	0x04, 2	; 4
#if PROCESSOR_TYP == 1280
  DDRB  &= ~(1<<DDB6);	// disable output 
#else
  DDRB  &= ~(1<<DDB2);	// disable output 
    6804:	25 96       	adiw	r28, 0x05	; 5
#endif

} /* end make frequency */
    6806:	e2 e1       	ldi	r30, 0x12	; 18
    6808:	0c 94 39 3e 	jmp	0x7c72	; 0x7c72 <__epilogue_restores__>
    680c:	81 35       	cpi	r24, 0x51	; 81
 #else
     if (key_pressed != 0)  times = 0;	// reset counter, operator is active
 #endif
#endif
     if(key_pressed >= 200) break;	// more than 2.0 seconds
     if (key_pressed > 80) {	/* more than 0.8 seconds key press */
    680e:	a0 f1       	brcs	.+104    	; 0x6878 <make_frequency+0x2da>
    6810:	49 81       	ldd	r20, Y+1	; 0x01
        // change of f_incre
        if (right) {
    6812:	5a 81       	ldd	r21, Y+2	; 0x02
    6814:	45 2b       	or	r20, r21
    6816:	e9 f0       	breq	.+58     	; 0x6852 <make_frequency+0x2b4>
    6818:	5d 81       	ldd	r21, Y+5	; 0x05
           // frequency string will move to the left, upper digit will move to the next lower digit
           Max_Digit = 10;		// f_incre will be 10kHz or less, allways 0-9
           significant--;		// diplay one digit less
    681a:	51 50       	subi	r21, 0x01	; 1
    681c:	5d 83       	std	Y+5, r21	; 0x05
    681e:	c5 01       	movw	r24, r10
           f_incre /= 10;		// 
    6820:	b4 01       	movw	r22, r8
    6822:	2a e0       	ldi	r18, 0x0A	; 10
    6824:	30 e0       	ldi	r19, 0x00	; 0
    6826:	40 e0       	ldi	r20, 0x00	; 0
    6828:	50 e0       	ldi	r21, 0x00	; 0
    682a:	0e 94 2f 3d 	call	0x7a5e	; 0x7a5e <__udivmodsi4>
    682e:	49 01       	movw	r8, r18
    6830:	5a 01       	movw	r10, r20
    6832:	c7 01       	movw	r24, r14
           f_digit = (wish_freq / f_incre) % 10; // start with last digit
    6834:	b6 01       	movw	r22, r12
    6836:	0e 94 2f 3d 	call	0x7a5e	; 0x7a5e <__udivmodsi4>
    683a:	ca 01       	movw	r24, r20
    683c:	b9 01       	movw	r22, r18
    683e:	2a e0       	ldi	r18, 0x0A	; 10
    6840:	30 e0       	ldi	r19, 0x00	; 0
    6842:	40 e0       	ldi	r20, 0x00	; 0
    6844:	50 e0       	ldi	r21, 0x00	; 0
    6846:	0e 94 2f 3d 	call	0x7a5e	; 0x7a5e <__udivmodsi4>
    684a:	6c 83       	std	Y+4, r22	; 0x04
    684c:	3a e0       	ldi	r19, 0x0A	; 10
     if(key_pressed >= 200) break;	// more than 2.0 seconds
     if (key_pressed > 80) {	/* more than 0.8 seconds key press */
        // change of f_incre
        if (right) {
           // frequency string will move to the left, upper digit will move to the next lower digit
           Max_Digit = 10;		// f_incre will be 10kHz or less, allways 0-9
    684e:	23 2e       	mov	r2, r19
    6850:	36 c0       	rjmp	.+108    	; 0x68be <make_frequency+0x320>
           significant--;		// diplay one digit less
           f_incre /= 10;		// 
           f_digit = (wish_freq / f_incre) % 10; // start with last digit
           continue;
    6852:	8d 81       	ldd	r24, Y+5	; 0x05
        } else {
           if (significant >= (16+6)) {
    6854:	86 31       	cpi	r24, 0x16	; 22
    6856:	48 f5       	brcc	.+82     	; 0x68aa <make_frequency+0x30c>
    6858:	8f 5f       	subi	r24, 0xFF	; 255
              f_incre = 1;		// increment with 1 Hz
              f_digit = 1;		// start value = 1 Hz
              significant = 16+1;	// only one significant digit
              continue;
           }
           significant++;		// display one digit more
    685a:	8d 83       	std	Y+5, r24	; 0x05
    685c:	86 31       	cpi	r24, 0x16	; 22
           if (significant == (16+6)) Max_Digit = 21;
    685e:	11 f4       	brne	.+4      	; 0x6864 <make_frequency+0x2c6>
    6860:	25 e1       	ldi	r18, 0x15	; 21
    6862:	22 2e       	mov	r2, r18
    6864:	aa e0       	ldi	r26, 0x0A	; 10
           f_incre *= 10;		// change next digit to the left
    6866:	b0 e0       	ldi	r27, 0x00	; 0
    6868:	a5 01       	movw	r20, r10
    686a:	94 01       	movw	r18, r8
    686c:	0e 94 88 3d 	call	0x7b10	; 0x7b10 <__muluhisi3>
    6870:	4b 01       	movw	r8, r22
    6872:	5c 01       	movw	r10, r24
    6874:	1c 82       	std	Y+4, r1	; 0x04
           f_digit = 0;			// start new digit with zero
    6876:	23 c0       	rjmp	.+70     	; 0x68be <make_frequency+0x320>
           continue;
    6878:	8b 30       	cpi	r24, 0x0B	; 11
        }
     } else {
        if (key_pressed > KEYPRESS_LENGTH_10ms) f_digit++; // longer key press select next frequency
    687a:	18 f0       	brcs	.+6      	; 0x6882 <make_frequency+0x2e4>
    687c:	9c 81       	ldd	r25, Y+4	; 0x04
    687e:	9f 5f       	subi	r25, 0xFF	; 255
    6880:	9c 83       	std	Y+4, r25	; 0x04
    6882:	31 2c       	mov	r3, r1
     key_pressed = wait_for_key_ms(2000);	// check key and rotary encoder
#ifdef POWER_OFF
 #ifdef WITH_ROTARY_SWITCH
     if ((key_pressed != 0) || (rotary.incre > 0)) times = 0;	// reset counter, operator is active
 #else
     if (key_pressed != 0)  times = 0;	// reset counter, operator is active
    6884:	ec 81       	ldd	r30, Y+4	; 0x04
        f_digit += rotary.count;		// increase the frequency number by rotary.count
     } else {
        f_digit += (Max_Digit + 1 + rotary.count);	// decrease the frequency by rotary.count
     }
#endif
     f_digit = f_digit % (Max_Digit + 1);
    6886:	8e 2f       	mov	r24, r30
    6888:	90 e0       	ldi	r25, 0x00	; 0
    688a:	62 2d       	mov	r22, r2
    688c:	70 e0       	ldi	r23, 0x00	; 0
    688e:	6f 5f       	subi	r22, 0xFF	; 255
    6890:	7f 4f       	sbci	r23, 0xFF	; 255
    6892:	0e 94 1c 3d 	call	0x7a38	; 0x7a38 <__divmodhi4>
    6896:	8c 83       	std	Y+4, r24	; 0x04
    6898:	83 2d       	mov	r24, r3
#ifdef POWER_OFF
     times = Pwr_mode_check(times);	// no time limit with DC_Pwr_mode
    689a:	0e 94 39 2c 	call	0x5872	; 0x5872 <Pwr_mode_check>
    689e:	38 2e       	mov	r3, r24
    68a0:	ff ee       	ldi	r31, 0xEF	; 239
#ifdef POWER_OFF
  uint8_t new_points;		// one point for every 30 seconds wait time
  uint8_t shown_points;		// one point for every 30 seconds wait time
  uint8_t times;		// total wait time
  shown_points = 0;
  for (times=0; times<240;) 
    68a2:	f8 17       	cp	r31, r24
    68a4:	08 f0       	brcs	.+2      	; 0x68a8 <make_frequency+0x30a>
    68a6:	af ce       	rjmp	.-674    	; 0x6606 <make_frequency+0x68>
    68a8:	a5 cf       	rjmp	.-182    	; 0x67f4 <make_frequency+0x256>
    68aa:	8a e0       	ldi	r24, 0x0A	; 10
           continue;
        } else {
           if (significant >= (16+6)) {
              // reset to begin
//              wish_freq = 1;		// start with 1 Hz
              Max_Digit = 10;
    68ac:	28 2e       	mov	r2, r24
    68ae:	21 e0       	ldi	r18, 0x01	; 1
              f_incre = 1;		// increment with 1 Hz
              f_digit = 1;		// start value = 1 Hz
    68b0:	2c 83       	std	Y+4, r18	; 0x04
    68b2:	81 2c       	mov	r8, r1
        } else {
           if (significant >= (16+6)) {
              // reset to begin
//              wish_freq = 1;		// start with 1 Hz
              Max_Digit = 10;
              f_incre = 1;		// increment with 1 Hz
    68b4:	91 2c       	mov	r9, r1
    68b6:	54 01       	movw	r10, r8
    68b8:	83 94       	inc	r8
    68ba:	31 e1       	ldi	r19, 0x11	; 17
              f_digit = 1;		// start value = 1 Hz
              significant = 16+1;	// only one significant digit
    68bc:	3d 83       	std	Y+5, r19	; 0x05
    68be:	31 2c       	mov	r3, r1
/* *************************************************** */
/* make frequency starts a frequency generator at TP2 with 680 Ohm resistor */
/* some predefined frequencies can be switched with the key */
/* a long key press returns to the selection menu */
/* *************************************************** */
void make_frequency() {
    68c0:	a2 ce       	rjmp	.-700    	; 0x6606 <make_frequency+0x68>

000068c2 <do_10bit_PWM>:
    68c2:	a4 e0       	ldi	r26, 0x04	; 4
/* do_10bit PWM                                        */
/* a short key press increase the duty cycle with 1%   */
/* a longer key press incrrase with 10%                */
/* a very long key press returns to menue              */
/* *************************************************** */
void do_10bit_PWM() {
    68c4:	b0 e0       	ldi	r27, 0x00	; 0
    68c6:	e7 e6       	ldi	r30, 0x67	; 103
    68c8:	f4 e3       	ldi	r31, 0x34	; 52
    68ca:	0c 94 22 3e 	jmp	0x7c44	; 0x7c44 <__prologue_saves__+0xa>
  uint8_t key_pressed;
  uint8_t percent;		// requestet duty-cycle in %
  uint8_t old_perc;		// old duty-cycle in %
  unsigned int pwm_flip;	// value for counter to flip the state
  message_key_released(PWM_10bit_str);	// display PWM-Generator and wait for key released
    68ce:	80 e0       	ldi	r24, 0x00	; 0
    68d0:	92 e0       	ldi	r25, 0x02	; 2
    68d2:	9b d1       	rcall	.+822    	; 0x6c0a <message_key_released>
    68d4:	83 e2       	ldi	r24, 0x23	; 35
  // OC1B is connected with 680 Ohm resistor to TP2 (middle test pin) 
  TCCR1A = (1<<COM1B1) | (0<<COM1B0) | (1<<WGM11) | (1<<WGM10); // fast PWM mode, mode 7: count to 10 bit
    68d6:	80 93 80 00 	sts	0x0080, r24
    68da:	10 92 6f 00 	sts	0x006F, r1
  TIMSK1 = 0;		// no interrupt used
    68de:	8f ef       	ldi	r24, 0xFF	; 255
  OCR1B	= 0xff;		// toggle OC1B at this count
    68e0:	90 e0       	ldi	r25, 0x00	; 0
    68e2:	90 93 8b 00 	sts	0x008B, r25
    68e6:	80 93 8a 00 	sts	0x008A, r24
    68ea:	83 e0       	ldi	r24, 0x03	; 3
  TIFR1 = (1<<OCF1A) | (1<<OCF1A) | (1<<TOV1);	// reset interrupt flags
    68ec:	86 bb       	out	0x16, r24	; 22
    68ee:	10 92 82 00 	sts	0x0082, r1
  TCCR1C = 0;
    68f2:	15 b8       	out	0x05, r1	; 5

  R_PORT = 0;		// set all resistor port outputs to GND
    68f4:	81 e1       	ldi	r24, 0x11	; 17
#if PROCESSOR_TYP == 644
  R_DDR = (1<<PIN_RL1) | (1<<PIN_RL2) | (1<<PIN_RL3);		// set TP1, DDD4(TP2) and TP3 to output
#else
  R_DDR = (1<<PIN_RL1) | (1<<PIN_RL3);		// set TP1 and TP3 to output
    68f6:	84 b9       	out	0x04, r24	; 4
    68f8:	88 e0       	ldi	r24, 0x08	; 8
#endif
  ADC_PORT = TXD_VAL;
    68fa:	88 b9       	out	0x08, r24	; 8
    68fc:	89 e0       	ldi	r24, 0x09	; 9
  ADC_DDR = (1<<TP1) | TXD_MSK;			//connect TP1 to GND
    68fe:	87 b9       	out	0x07, r24	; 7
    6900:	22 9a       	sbi	0x04, 2	; 4
#if PROCESSOR_TYP == 1280
  DDRB  |= (1<<DDB6);	// set output enable for OC1B
#else
  DDRB  |= (1<<DDB2);	// set output enable
    6902:	21 e0       	ldi	r18, 0x01	; 1
#endif
#ifdef PWM_SERVO
  TCCR1B = (1<<WGM13) | (1<<WGM12) | SERVO_START; // mode 15, clock divide by 8 or 64
  OCR1A = PWM_MAX_COUNT - 1;	// clock tics for 20 ms
#else
  OCR1A = 1;		// highest frequency
    6904:	30 e0       	ldi	r19, 0x00	; 0
    6906:	30 93 89 00 	sts	0x0089, r19
    690a:	20 93 88 00 	sts	0x0088, r18
    690e:	80 93 81 00 	sts	0x0081, r24
  TCCR1B = (0<<WGM13) | (1<<WGM12) | (0<<CS12) | (0<<CS11) | (1<<CS10); // mode 7, no clock divide
    6912:	10 e0       	ldi	r17, 0x00	; 0
  key_pressed = 0;
  old_perc = 0;
  percent = (SERVO_MAX + SERVO_MIN) / 2;	// set to middle
#ifdef POWER_OFF
  uint8_t times;		// time limit
  for (times=0; times<240; ) 
    6914:	71 2c       	mov	r7, r1
#else
  OCR1A = 1;		// highest frequency
  TCCR1B = (0<<WGM13) | (1<<WGM12) | (0<<CS12) | (0<<CS11) | (1<<CS10); // mode 7, no clock divide
#endif
  key_pressed = 0;
  old_perc = 0;
    6916:	92 e3       	ldi	r25, 0x32	; 50
  percent = (SERVO_MAX + SERVO_MIN) / 2;	// set to middle
    6918:	00 e0       	ldi	r16, 0x00	; 0
  OCR1A = PWM_MAX_COUNT - 1;	// clock tics for 20 ms
#else
  OCR1A = 1;		// highest frequency
  TCCR1B = (0<<WGM13) | (1<<WGM12) | (0<<CS12) | (0<<CS11) | (1<<CS10); // mode 7, no clock divide
#endif
  key_pressed = 0;
    691a:	24 e6       	ldi	r18, 0x64	; 100
	   percent -= (SERVO_MAX - SERVO_MIN);		// reset near to mininum value
        }
#ifdef PWM_SERVO
        pwm_flip = (((unsigned long)PWM_MAX_COUNT * percent) + 500) / 1000;
#else
        pwm_flip = (((unsigned long)PWM_MAX_COUNT * percent) + 50) / 100;
    691c:	c2 2e       	mov	r12, r18
    691e:	d1 2c       	mov	r13, r1
    6920:	e1 2c       	mov	r14, r1
    6922:	f1 2c       	mov	r15, r1
    6924:	88 24       	eor	r8, r8
	lcd_space();
	lcd_data('/');
	lcd_space();
	DisplayValue16(((unsigned long)PWM_MAX_COUNT * SERVO_DIV)/MHZ_CPU, -6,'s',3);
#else
        DisplayValue16((((unsigned long)pwm_flip * 1000) + (PWM_MAX_COUNT/2)) / PWM_MAX_COUNT,-1,'%',5);
    6926:	8a 94       	dec	r8
    6928:	33 e0       	ldi	r19, 0x03	; 3
    692a:	93 2e       	mov	r9, r19
    692c:	a1 2c       	mov	r10, r1
    692e:	b1 2c       	mov	r11, r1
    6930:	97 15       	cp	r25, r7
  for (times=0; times<240; ) 
#else
  while (1)			/* wait endless without option POWER_OFF */
#endif
  {
     if (percent != old_perc) {
    6932:	e9 f1       	breq	.+122    	; 0x69ae <do_10bit_PWM+0xec>
    6934:	94 36       	cpi	r25, 0x64	; 100
        // new duty cycle is requested
        if (percent >= SERVO_MAX) {
    6936:	20 f0       	brcs	.+8      	; 0x6940 <do_10bit_PWM+0x7e>
    6938:	8c e9       	ldi	r24, 0x9C	; 156
	   percent -= (SERVO_MAX - SERVO_MIN);		// reset near to mininum value
    693a:	78 2e       	mov	r7, r24
    693c:	79 0e       	add	r7, r25
    693e:	01 c0       	rjmp	.+2      	; 0x6942 <do_10bit_PWM+0x80>
    6940:	79 2e       	mov	r7, r25
    6942:	27 2d       	mov	r18, r7
        }
#ifdef PWM_SERVO
        pwm_flip = (((unsigned long)PWM_MAX_COUNT * percent) + 500) / 1000;
#else
        pwm_flip = (((unsigned long)PWM_MAX_COUNT * percent) + 50) / 100;
    6944:	30 e0       	ldi	r19, 0x00	; 0
    6946:	af ef       	ldi	r26, 0xFF	; 255
    6948:	b3 e0       	ldi	r27, 0x03	; 3
    694a:	0e 94 73 3d 	call	0x7ae6	; 0x7ae6 <__umulhisi3>
    694e:	6e 5c       	subi	r22, 0xCE	; 206
    6950:	7f 4f       	sbci	r23, 0xFF	; 255
    6952:	8f 4f       	sbci	r24, 0xFF	; 255
    6954:	9f 4f       	sbci	r25, 0xFF	; 255
    6956:	a7 01       	movw	r20, r14
    6958:	96 01       	movw	r18, r12
    695a:	0e 94 2f 3d 	call	0x7a5e	; 0x7a5e <__udivmodsi4>
    695e:	30 93 8b 00 	sts	0x008B, r19
#endif
        OCR1B = pwm_flip;		// new percentage
    6962:	20 93 8a 00 	sts	0x008A, r18
    6966:	29 83       	std	Y+1, r18	; 0x01
        lcd_line2();		// goto line 2
    6968:	3a 83       	std	Y+2, r19	; 0x02
    696a:	4b 83       	std	Y+3, r20	; 0x03
    696c:	5c 83       	std	Y+4, r21	; 0x04
    696e:	0e 94 23 0d 	call	0x1a46	; 0x1a46 <lcd_line2>
    6972:	a8 ee       	ldi	r26, 0xE8	; 232
	lcd_space();
	lcd_data('/');
	lcd_space();
	DisplayValue16(((unsigned long)PWM_MAX_COUNT * SERVO_DIV)/MHZ_CPU, -6,'s',3);
#else
        DisplayValue16((((unsigned long)pwm_flip * 1000) + (PWM_MAX_COUNT/2)) / PWM_MAX_COUNT,-1,'%',5);
    6974:	b3 e0       	ldi	r27, 0x03	; 3
    6976:	29 81       	ldd	r18, Y+1	; 0x01
    6978:	3a 81       	ldd	r19, Y+2	; 0x02
    697a:	4b 81       	ldd	r20, Y+3	; 0x03
    697c:	5c 81       	ldd	r21, Y+4	; 0x04
    697e:	0e 94 88 3d 	call	0x7b10	; 0x7b10 <__muluhisi3>
    6982:	61 50       	subi	r22, 0x01	; 1
    6984:	7e 4f       	sbci	r23, 0xFE	; 254
    6986:	8f 4f       	sbci	r24, 0xFF	; 255
    6988:	9f 4f       	sbci	r25, 0xFF	; 255
    698a:	a5 01       	movw	r20, r10
    698c:	94 01       	movw	r18, r8
    698e:	0e 94 2f 3d 	call	0x7a5e	; 0x7a5e <__udivmodsi4>
    6992:	da 01       	movw	r26, r20
    6994:	c9 01       	movw	r24, r18
    6996:	25 e0       	ldi	r18, 0x05	; 5
    6998:	45 e2       	ldi	r20, 0x25	; 37
    699a:	6f ef       	ldi	r22, 0xFF	; 255
    699c:	0e 94 e4 0f 	call	0x1fc8	; 0x1fc8 <DisplayValue16>
    69a0:	0e 94 6d 0e 	call	0x1cda	; 0x1cda <lcd_clear_line>
#endif
        lcd_clear_line();
    69a4:	09 32       	cpi	r16, 0x29	; 41
        old_perc = percent;	// update the old duty cycle
        if (key_pressed > 40) {
    69a6:	18 f0       	brcs	.+6      	; 0x69ae <do_10bit_PWM+0xec>
    69a8:	8c e3       	ldi	r24, 0x3C	; 60
           wait_about300ms();	// wait some time to release the button
    69aa:	0e 94 9b 09 	call	0x1336	; 0x1336 <sleep_5ms>
    69ae:	80 e4       	ldi	r24, 0x40	; 64
        }
     } /* end if percent != old_perc */
     key_pressed = wait_for_key_ms(1600);
    69b0:	96 e0       	ldi	r25, 0x06	; 6
    69b2:	0e 94 52 11 	call	0x22a4	; 0x22a4 <wait_for_key_ms>
    69b6:	08 2f       	mov	r16, r24
    69b8:	83 38       	cpi	r24, 0x83	; 131
     if(key_pressed > 130) break;	// more than 1.3 seconds
    69ba:	60 f0       	brcs	.+24     	; 0x69d4 <do_10bit_PWM+0x112>
    69bc:	88 e0       	ldi	r24, 0x08	; 8
#ifdef POWER_OFF
     times = Pwr_mode_check(times);	// no time limit with DC_Pwr_mode
#endif
  } /* end for times */

  ADC_DDR =  TXD_MSK;	// disconnect TP1 
    69be:	87 b9       	out	0x07, r24	; 7
    69c0:	10 92 81 00 	sts	0x0081, r1
  TCCR1B = 0;		// stop counter
    69c4:	10 92 80 00 	sts	0x0080, r1
  TCCR1A = 0;		// stop counter
    69c8:	14 b8       	out	0x04, r1	; 4
  R_DDR = 0;		// switch resistor ports to Input
    69ca:	22 98       	cbi	0x04, 2	; 4
#if PROCESSOR_TYP == 1280
  DDRB  &= ~(1<<DDB6);	// disable output 
#else
  DDRB  &= ~(1<<DDB2);	// disable output 
    69cc:	24 96       	adiw	r28, 0x04	; 4
#endif
} /* end do_10bit_PWM */
    69ce:	ed e0       	ldi	r30, 0x0D	; 13
    69d0:	0c 94 3e 3e 	jmp	0x7c7c	; 0x7c7c <__epilogue_restores__+0xa>
    69d4:	83 33       	cpi	r24, 0x33	; 51
        percent += rotary.count;		// increase the duty cycle by rotary.count
     } else {
        percent += ((SERVO_MAX-SERVO_MIN) + rotary.count);	// decrease the duty cycle by rotary.count
     }
#endif
     if (key_pressed > 50) {
    69d6:	10 f0       	brcs	.+4      	; 0x69dc <do_10bit_PWM+0x11a>
    69d8:	9a e0       	ldi	r25, 0x0A	; 10
        percent += 10;		// duty cycle will be increased with 10
    69da:	03 c0       	rjmp	.+6      	; 0x69e2 <do_10bit_PWM+0x120>
    69dc:	88 23       	and	r24, r24
     } else {
        if (key_pressed > 0) percent += 1;	// duty cycle will be increased with 1
    69de:	21 f0       	breq	.+8      	; 0x69e8 <do_10bit_PWM+0x126>
    69e0:	91 e0       	ldi	r25, 0x01	; 1
    69e2:	97 0d       	add	r25, r7
    69e4:	10 e0       	ldi	r17, 0x00	; 0
     }
#ifdef POWER_OFF
 #ifdef WITH_ROTARY_SWITCH
     if ((key_pressed > 0) || (rotary.incre > 0)) times = 0;	// reset the loop counter, operator is active
 #else
     if (key_pressed > 0) times = 0;		//reset the loop counter, operator is active
    69e6:	01 c0       	rjmp	.+2      	; 0x69ea <do_10bit_PWM+0x128>
    69e8:	97 2d       	mov	r25, r7
    69ea:	81 2f       	mov	r24, r17
 #endif
#endif
#ifdef POWER_OFF
     times = Pwr_mode_check(times);	// no time limit with DC_Pwr_mode
    69ec:	99 83       	std	Y+1, r25	; 0x01
    69ee:	0e 94 39 2c 	call	0x5872	; 0x5872 <Pwr_mode_check>
    69f2:	18 2f       	mov	r17, r24
    69f4:	99 81       	ldd	r25, Y+1	; 0x01
  key_pressed = 0;
  old_perc = 0;
  percent = (SERVO_MAX + SERVO_MIN) / 2;	// set to middle
#ifdef POWER_OFF
  uint8_t times;		// time limit
  for (times=0; times<240; ) 
    69f6:	80 3f       	cpi	r24, 0xF0	; 240
    69f8:	08 f4       	brcc	.+2      	; 0x69fc <do_10bit_PWM+0x13a>
    69fa:	9a cf       	rjmp	.-204    	; 0x6930 <do_10bit_PWM+0x6e>
    69fc:	df cf       	rjmp	.-66     	; 0x69bc <do_10bit_PWM+0xfa>

000069fe <set_contrast>:
    69fe:	cf 93       	push	r28
  #define MAX_CONTRAST 0xff
 #else
  /* for DOG-M the upper bit of contrast value is BOOSTER 0x40 */
  #define MAX_CONTRAST 0x7f
 #endif
void set_contrast(void) {
    6a00:	df 93       	push	r29
uint8_t key_pressed;
uint8_t contrast;
  // set the contrast value
  message_key_released(CONTRAST_str);	// display Contrast and wait for key released
    6a02:	8e eb       	ldi	r24, 0xBE	; 190
    6a04:	91 e0       	ldi	r25, 0x01	; 1
    6a06:	01 d1       	rcall	.+514    	; 0x6c0a <message_key_released>
    6a08:	88 e4       	ldi	r24, 0x48	; 72
  contrast = eeprom_read_byte(&EE_Volume_Value);
    6a0a:	93 e0       	ldi	r25, 0x03	; 3
    6a0c:	0e 94 b0 3e 	call	0x7d60	; 0x7d60 <eeprom_read_byte>
    6a10:	c8 2f       	mov	r28, r24
    6a12:	d0 e0       	ldi	r29, 0x00	; 0
  #ifdef POWER_OFF
  uint8_t times;
  for (times=0;times<240;)
    6a14:	81 e8       	ldi	r24, 0x81	; 129
  #else
  while (1)                     /* wait endless without option POWER_OFF */
  #endif
  {
  #if ((LCD_ST_TYPE == 7565) || (LCD_ST_TYPE == 1306))
     lcd_command(CMD_SET_VOLUME_FIRST);		// 0x81 set  volume command
    6a16:	0e 94 c2 0c 	call	0x1984	; 0x1984 <lcd_command>
    6a1a:	8c 2f       	mov	r24, r28
     lcd_command(contrast);			// value from 1 to 63 (0x3f) */
    6a1c:	0e 94 c2 0c 	call	0x1984	; 0x1984 <lcd_command>
    6a20:	0e 94 23 0d 	call	0x1a46	; 0x1a46 <lcd_line2>
     lcd_command(CMD_SetIFOptions | MODE_8BIT | 0x09);	// 2-line / IS=1
     lcd_command(CMD1_PowerControl | ((contrast>>4)&0x07));	// booster on,off / set contrast C5:C4 
     lcd_command(CMD1_SetContrast | (contrast&0x0f));	// set contrast C3:0 
     lcd_command(CMD_SetIFOptions | MODE_8BIT | 0x08);	// 2-line / IS=0
  #endif
     lcd_line2();
    6a24:	24 e0       	ldi	r18, 0x04	; 4
     DisplayValue16(contrast,0,' ',4);
    6a26:	40 e2       	ldi	r20, 0x20	; 32
    6a28:	60 e0       	ldi	r22, 0x00	; 0
    6a2a:	8c 2f       	mov	r24, r28
    6a2c:	90 e0       	ldi	r25, 0x00	; 0
    6a2e:	0e 94 e4 0f 	call	0x1fc8	; 0x1fc8 <DisplayValue16>
    6a32:	0e 94 6d 0e 	call	0x1cda	; 0x1cda <lcd_clear_line>
     lcd_clear_line();		// clear to end of line
    6a36:	80 e4       	ldi	r24, 0x40	; 64
     key_pressed = wait_for_key_ms(1600);
    6a38:	96 e0       	ldi	r25, 0x06	; 6
    6a3a:	0e 94 52 11 	call	0x22a4	; 0x22a4 <wait_for_key_ms>
    6a3e:	88 23       	and	r24, r24
#ifdef POWER_OFF
 #ifdef WITH_ROTARY_SWITCH
     if ((key_pressed != 0) || (rotary.incre > 0)) times = 0;	// reset counter, operator is active
 #else
     if (key_pressed != 0)  times = 0;	// reset counter, operator is active
    6a40:	31 f0       	breq	.+12     	; 0x6a4e <set_contrast+0x50>
    6a42:	82 38       	cpi	r24, 0x82	; 130
 #endif
#endif
     if(key_pressed >= 130) break;	// more than 1.3 seconds
    6a44:	58 f4       	brcc	.+22     	; 0x6a5c <set_contrast+0x5e>
    6a46:	89 32       	cpi	r24, 0x29	; 41
     } else {
        contrast += (MAX_CONTRAST + 1 + rotary.count);	// decrease the contrast by rotary.count
     }
#endif
     if (key_pressed > 0) {
        if (key_pressed > 40) {
    6a48:	88 f0       	brcs	.+34     	; 0x6a6c <set_contrast+0x6e>
    6a4a:	cf 5f       	subi	r28, 0xFF	; 255
           contrast++; // longer key press select higher contrast value
    6a4c:	d0 e0       	ldi	r29, 0x00	; 0
     key_pressed = wait_for_key_ms(1600);
#ifdef POWER_OFF
 #ifdef WITH_ROTARY_SWITCH
     if ((key_pressed != 0) || (rotary.incre > 0)) times = 0;	// reset counter, operator is active
 #else
     if (key_pressed != 0)  times = 0;	// reset counter, operator is active
    6a4e:	cf 77       	andi	r28, 0x7F	; 127
           contrast++; // longer key press select higher contrast value
        } else {
           contrast += MAX_CONTRAST;	// decrease the contrast 
        }
     }
     contrast &= MAX_CONTRAST;
    6a50:	8d 2f       	mov	r24, r29
#ifdef POWER_OFF
     times = Pwr_mode_check(times);	// no time limit with DC_Pwr_mode
    6a52:	0e 94 39 2c 	call	0x5872	; 0x5872 <Pwr_mode_check>
    6a56:	d8 2f       	mov	r29, r24
    6a58:	80 3f       	cpi	r24, 0xF0	; 240
  // set the contrast value
  message_key_released(CONTRAST_str);	// display Contrast and wait for key released
  contrast = eeprom_read_byte(&EE_Volume_Value);
  #ifdef POWER_OFF
  uint8_t times;
  for (times=0;times<240;)
    6a5a:	e0 f2       	brcs	.-72     	; 0x6a14 <set_contrast+0x16>
    6a5c:	6c 2f       	mov	r22, r28
#ifdef POWER_OFF
     times = Pwr_mode_check(times);	// no time limit with DC_Pwr_mode
#endif
  } /* end for times */

  eeprom_write_byte((uint8_t *)(&EE_Volume_Value), (int8_t)contrast);	// save contrast value
    6a5e:	88 e4       	ldi	r24, 0x48	; 72
    6a60:	93 e0       	ldi	r25, 0x03	; 3
    6a62:	0e 94 bd 3e 	call	0x7d7a	; 0x7d7a <eeprom_write_byte>
    6a66:	df 91       	pop	r29
}
    6a68:	cf 91       	pop	r28
    6a6a:	08 95       	ret
    6a6c:	c1 58       	subi	r28, 0x81	; 129
#endif
     if (key_pressed > 0) {
        if (key_pressed > 40) {
           contrast++; // longer key press select higher contrast value
        } else {
           contrast += MAX_CONTRAST;	// decrease the contrast 
    6a6e:	ee cf       	rjmp	.-36     	; 0x6a4c <set_contrast+0x4e>

00006a70 <set_big_cap_corr>:
    6a70:	0f 93       	push	r16
/* *************************************************** */
/* set the correction value for big capacitor measurement */
/* *************************************************** */
#define MIN_KORR (-20)
#define MAX_KORR 80
void set_big_cap_corr(void) {
    6a72:	1f 93       	push	r17
    6a74:	cf 93       	push	r28
    6a76:	df 93       	push	r29
uint8_t key_pressed;
int8_t korr;
  // set the contrast value
  message_key_released(SetCapCorr_str);	// display Capacity correction and wait for key released
    6a78:	81 ef       	ldi	r24, 0xF1	; 241
    6a7a:	91 e0       	ldi	r25, 0x01	; 1
    6a7c:	c6 d0       	rcall	.+396    	; 0x6c0a <message_key_released>
    6a7e:	8d e4       	ldi	r24, 0x4D	; 77
  korr = eeprom_read_byte((uint8_t *)&big_cap_corr);
    6a80:	93 e0       	ldi	r25, 0x03	; 3
    6a82:	0e 94 b0 3e 	call	0x7d60	; 0x7d60 <eeprom_read_byte>
    6a86:	c8 2f       	mov	r28, r24
    6a88:	d0 e0       	ldi	r29, 0x00	; 0
  #ifdef POWER_OFF
  uint8_t times;
  for (times=0;times<240;)
    6a8a:	0e 94 23 0d 	call	0x1a46	; 0x1a46 <lcd_line2>
  #else
  while (1)                     /* wait endless without option POWER_OFF */
  #endif
  {
     lcd_line2();
    6a8e:	0c 2f       	mov	r16, r28
    6a90:	0c 2e       	mov	r0, r28
    6a92:	00 0c       	add	r0, r0
    6a94:	11 0b       	sbc	r17, r17
    6a96:	c7 ff       	sbrs	r28, 7
     if (korr < 0) {
    6a98:	0b c0       	rjmp	.+22     	; 0x6ab0 <set_big_cap_corr+0x40>
    6a9a:	8d e2       	ldi	r24, 0x2D	; 45
       lcd_data('-');
    6a9c:	0e 94 0c 0e 	call	0x1c18	; 0x1c18 <lcd_data>
    6aa0:	23 e0       	ldi	r18, 0x03	; 3
       DisplayValue16(-korr,-1,'%',3);
    6aa2:	45 e2       	ldi	r20, 0x25	; 37
    6aa4:	6f ef       	ldi	r22, 0xFF	; 255
    6aa6:	88 27       	eor	r24, r24
    6aa8:	99 27       	eor	r25, r25
    6aaa:	80 1b       	sub	r24, r16
    6aac:	91 0b       	sbc	r25, r17
    6aae:	04 c0       	rjmp	.+8      	; 0x6ab8 <set_big_cap_corr+0x48>
    6ab0:	23 e0       	ldi	r18, 0x03	; 3
     } else {
       DisplayValue16(korr,-1,'%',3);
    6ab2:	45 e2       	ldi	r20, 0x25	; 37
    6ab4:	6f ef       	ldi	r22, 0xFF	; 255
    6ab6:	c8 01       	movw	r24, r16
    6ab8:	0e 94 e4 0f 	call	0x1fc8	; 0x1fc8 <DisplayValue16>
    6abc:	0e 94 6d 0e 	call	0x1cda	; 0x1cda <lcd_clear_line>
     }
     lcd_clear_line();		// clear to end of line
    6ac0:	80 e4       	ldi	r24, 0x40	; 64
     key_pressed = wait_for_key_ms(1600);
    6ac2:	96 e0       	ldi	r25, 0x06	; 6
    6ac4:	0e 94 52 11 	call	0x22a4	; 0x22a4 <wait_for_key_ms>
    6ac8:	88 23       	and	r24, r24
#ifdef POWER_OFF
 #ifdef WITH_ROTARY_SWITCH
     if ((key_pressed != 0) || (rotary.incre > 0)) times = 0;	// reset counter, operator is active
 #else
     if (key_pressed != 0)  times = 0;	// reset counter, operator is active
    6aca:	31 f0       	breq	.+12     	; 0x6ad8 <set_big_cap_corr+0x68>
    6acc:	82 38       	cpi	r24, 0x82	; 130
 #endif
#endif
     if(key_pressed >= 130) break;	// more than 1.3 seconds
    6ace:	88 f4       	brcc	.+34     	; 0x6af2 <set_big_cap_corr+0x82>
    6ad0:	89 32       	cpi	r24, 0x29	; 41
#ifdef WITH_ROTARY_SWITCH
     if (rotary.incre > FAST_ROTATION) break;		// fast rotation ends setting of korr
     korr += rotary.count;		// increase or decrease the korr by rotary.count
#endif
     if (key_pressed > 0) {
        if (key_pressed > 40) {
    6ad2:	c8 f0       	brcs	.+50     	; 0x6b06 <set_big_cap_corr+0x96>
    6ad4:	cf 5f       	subi	r28, 0xFF	; 255
           korr++; // longer key press select higher korr value
    6ad6:	d0 e0       	ldi	r29, 0x00	; 0
     key_pressed = wait_for_key_ms(1600);
#ifdef POWER_OFF
 #ifdef WITH_ROTARY_SWITCH
     if ((key_pressed != 0) || (rotary.incre > 0)) times = 0;	// reset counter, operator is active
 #else
     if (key_pressed != 0)  times = 0;	// reset counter, operator is active
    6ad8:	c1 35       	cpi	r28, 0x51	; 81
           korr++; // longer key press select higher korr value
        } else {
           korr--;	// decrease the korr 
        }
     }
     if (korr > MAX_KORR) korr -= (MAX_KORR - MIN_KORR + 1);
    6ada:	14 f0       	brlt	.+4      	; 0x6ae0 <set_big_cap_corr+0x70>
    6adc:	c5 56       	subi	r28, 0x65	; 101
    6ade:	03 c0       	rjmp	.+6      	; 0x6ae6 <set_big_cap_corr+0x76>
    6ae0:	cc 3e       	cpi	r28, 0xEC	; 236
     if (korr < MIN_KORR) korr += (MAX_KORR - MIN_KORR + 1);
    6ae2:	0c f4       	brge	.+2      	; 0x6ae6 <set_big_cap_corr+0x76>
    6ae4:	cb 59       	subi	r28, 0x9B	; 155
    6ae6:	8d 2f       	mov	r24, r29
#ifdef POWER_OFF
     times = Pwr_mode_check(times);	// no time limit with DC_Pwr_mode
    6ae8:	0e 94 39 2c 	call	0x5872	; 0x5872 <Pwr_mode_check>
    6aec:	d8 2f       	mov	r29, r24
    6aee:	80 3f       	cpi	r24, 0xF0	; 240
  // set the contrast value
  message_key_released(SetCapCorr_str);	// display Capacity correction and wait for key released
  korr = eeprom_read_byte((uint8_t *)&big_cap_corr);
  #ifdef POWER_OFF
  uint8_t times;
  for (times=0;times<240;)
    6af0:	60 f2       	brcs	.-104    	; 0x6a8a <set_big_cap_corr+0x1a>
    6af2:	6c 2f       	mov	r22, r28
#ifdef POWER_OFF
     times = Pwr_mode_check(times);	// no time limit with DC_Pwr_mode
#endif
  } /* end for times */

  eeprom_write_byte((uint8_t *)(&big_cap_corr), (int8_t)korr);	// save korr value
    6af4:	8d e4       	ldi	r24, 0x4D	; 77
    6af6:	93 e0       	ldi	r25, 0x03	; 3
    6af8:	0e 94 bd 3e 	call	0x7d7a	; 0x7d7a <eeprom_write_byte>
    6afc:	df 91       	pop	r29
}	/* end set_big_cap_corr() */
    6afe:	cf 91       	pop	r28
    6b00:	1f 91       	pop	r17
    6b02:	0f 91       	pop	r16
    6b04:	08 95       	ret
    6b06:	c1 50       	subi	r28, 0x01	; 1
#endif
     if (key_pressed > 0) {
        if (key_pressed > 40) {
           korr++; // longer key press select higher korr value
        } else {
           korr--;	// decrease the korr 
    6b08:	e6 cf       	rjmp	.-52     	; 0x6ad6 <set_big_cap_corr+0x66>

00006b0a <do_menu>:
    6b0a:	81 30       	cpi	r24, 0x01	; 1
//    u2lcd(func_number);
#ifndef NO_FREQ_COUNTER
 #ifdef WITH_FREQUENCY_DIVIDER
    if (func_number == MODE_FSCALER) setFScaler(); 	// set scaler to 1,2,4,8,16,32,64,128,256,512
 #endif
    if (func_number == MODE_FREQ) GetFrequency(0);
    6b0c:	19 f4       	brne	.+6      	; 0x6b14 <do_menu+0xa>
    6b0e:	80 e0       	ldi	r24, 0x00	; 0
    6b10:	98 ca       	rjmp	.-2768   	; 0x6042 <GetFrequency>
    6b12:	08 95       	ret
    6b14:	82 30       	cpi	r24, 0x02	; 2
#if PROCESSOR_TYP == 644
    if (func_number == MODE_HFREQ) GetFrequency(1);	// measure high frequency with 16:1 divider
    if (func_number == MODE_H_CRYSTAL) GetFrequency(5); // HF crystal input + 16:1 divider
    if (func_number == MODE_L_CRYSTAL) GetFrequency(6); // LF crystal input, 1:1 divider
#endif
    if (func_number == MODE_FGEN) {
    6b16:	11 f4       	brne	.+4      	; 0x6b1c <do_menu+0x12>
    6b18:	42 cd       	rjmp	.-1404   	; 0x659e <make_frequency>
       make_frequency();		// make some sample frequencies
    6b1a:	08 95       	ret
    6b1c:	83 30       	cpi	r24, 0x03	; 3
    6b1e:	11 f4       	brne	.+4      	; 0x6b24 <do_menu+0x1a>
    }
    if (func_number == MODE_PWM) {
    6b20:	d0 ce       	rjmp	.-608    	; 0x68c2 <do_10bit_PWM>
    6b22:	08 95       	ret
       do_10bit_PWM();		// generate 10bit PWM
    6b24:	84 30       	cpi	r24, 0x04	; 4
    6b26:	11 f4       	brne	.+4      	; 0x6b2c <do_menu+0x22>
    6b28:	db cc       	rjmp	.-1610   	; 0x64e0 <show_C_ESR>
    }
    if (func_number == MODE_ESR) {
    6b2a:	08 95       	ret
    6b2c:	85 30       	cpi	r24, 0x05	; 5
       show_C_ESR();		// measure capacity and ESR at TP1 and TP3
    6b2e:	19 f4       	brne	.+6      	; 0x6b36 <do_menu+0x2c>
    6b30:	0c 94 43 2c 	jmp	0x5886	; 0x5886 <show_Resis13>
    }
    if (func_number == MODE_RESIS) {
    6b34:	08 95       	ret
    6b36:	86 30       	cpi	r24, 0x06	; 6
       show_Resis13();		// measure resistor at TP1 and TP3
    6b38:	29 f4       	brne	.+10     	; 0x6b44 <do_menu+0x3a>
    6b3a:	0e 94 d7 0c 	call	0x19ae	; 0x19ae <lcd_clear>
    }
    if (func_number == MODE_CAP13) {
    6b3e:	0c 94 89 2c 	jmp	0x5912	; 0x5912 <show_Cap13>
   lcd_clear();
    6b42:	08 95       	ret
    6b44:	87 30       	cpi	r24, 0x07	; 7
       show_Cap13();		// measure capacitor at TP1 and TP3
    6b46:	11 f4       	brne	.+4      	; 0x6b4c <do_menu+0x42>
    6b48:	93 cf       	rjmp	.-218    	; 0x6a70 <set_big_cap_corr>
    6b4a:	08 95       	ret
#ifdef WITH_ROTARY_CHECK
    if (func_number == MODE_ROTARY) {
       CheckRotaryEncoder();		// check rotary encoder
    }
#endif
    if (func_number == MODE_BIG_CAP_CORR) {
    6b4c:	88 30       	cpi	r24, 0x08	; 8
    6b4e:	21 f4       	brne	.+8      	; 0x6b58 <do_menu+0x4e>
       set_big_cap_corr();
    6b50:	81 e1       	ldi	r24, 0x11	; 17
    6b52:	0c 94 69 12 	jmp	0x24d2	; 0x24d2 <AutoCheck>
    }
#ifdef WITH_SELFTEST
    if (func_number == MODE_SELFTEST) AutoCheck(0x11);	// Full selftest with calibration
    6b56:	08 95       	ret
    6b58:	89 30       	cpi	r24, 0x09	; 9
    6b5a:	11 f4       	brne	.+4      	; 0x6b60 <do_menu+0x56>
    6b5c:	50 cf       	rjmp	.-352    	; 0x69fe <set_contrast>
    6b5e:	08 95       	ret
    6b60:	8a 30       	cpi	r24, 0x0A	; 10
#endif
    if (func_number == MODE_VEXT) show_vext();
#if ((LCD_ST_TYPE == 7565) || (LCD_ST_TYPE == 1306) || (LCD_ST_TYPE == 8812) || (LCD_ST_TYPE == 8814) || defined(LCD_DOGM))
    if (func_number == MODE_CONTRAST) set_contrast();
    6b62:	11 f4       	brne	.+4      	; 0x6b68 <do_menu+0x5e>
    6b64:	a7 c1       	rjmp	.+846    	; 0x6eb4 <ShowData>
    6b66:	08 95       	ret
    6b68:	8b 30       	cpi	r24, 0x0B	; 11
    6b6a:	11 f4       	brne	.+4      	; 0x6b70 <do_menu+0x66>
#endif
#ifdef LCD_CHANGE_COLOR
    if (func_number == MODE_SELECT_FG) select_color(0);		// select foreground color
    if (func_number == MODE_SELECT_BG) select_color(1);		// select background color
#endif
    if (func_number == MODE_SHOW) {
    6b6c:	0c 94 05 12 	jmp	0x240a	; 0x240a <switch_tester_off>
       ShowData();			// Show Calibration Data
    6b70:	08 95       	ret

00006b72 <function_menu>:
    6b72:	ff 92       	push	r15
    6b74:	0f 93       	push	r16
    }
    if (func_number == MODE_OFF) {
    6b76:	1f 93       	push	r17
    6b78:	cf 93       	push	r28
       switch_tester_off();		//switch off power
    6b7a:	df 93       	push	r29
    6b7c:	83 e5       	ldi	r24, 0x53	; 83
    6b7e:	92 e0       	ldi	r25, 0x02	; 2
  rotary.count = 0;
 #endif
#endif

  func_number = 0;
  message_key_released(SELECTION_str);
    6b80:	44 d0       	rcall	.+136    	; 0x6c0a <message_key_released>
    6b82:	d0 e0       	ldi	r29, 0x00	; 0
 #ifdef POWER_OFF
  uint8_t ll;
  for (ll=0;ll<((MODE_LAST+1)*10);ll++) 
    6b84:	c0 e0       	ldi	r28, 0x00	; 0
 #ifdef WITH_ROTARY_SWITCH
  rotary.count = 0;
 #endif
#endif

  func_number = 0;
    6b86:	1b e0       	ldi	r17, 0x0B	; 11
    6b88:	1c 0f       	add	r17, r28
    6b8a:	00 e0       	ldi	r16, 0x00	; 0
        message2line(p_nr);			// show  page function
     } while (++mm < MENU_LINES);

 #else	/* no PAGE_MODE */
     uint8_t f_nr;
     mm = 0;
    6b8c:	ff 24       	eor	r15, r15
    6b8e:	f3 94       	inc	r15
    6b90:	f0 0e       	add	r15, r16
    6b92:	60 e0       	ldi	r22, 0x00	; 0
     do {
        lcd_set_cursor((mm+1)*PAGES_PER_LINE,0);
    6b94:	8f 2d       	mov	r24, r15
    6b96:	88 0f       	add	r24, r24
    6b98:	0e 94 a4 0c 	call	0x1948	; 0x1948 <lcd_set_cursor>
    6b9c:	01 30       	cpi	r16, 0x01	; 1
        if (mm == MENU_MIDDLE) {
    6b9e:	21 f4       	brne	.+8      	; 0x6ba8 <function_menu+0x36>
    6ba0:	8e e3       	ldi	r24, 0x3E	; 62
           lcd_data('>');				// put a '>' marker to row 1 of line 4
    6ba2:	0e 94 0c 0e 	call	0x1c18	; 0x1c18 <lcd_data>
    6ba6:	02 c0       	rjmp	.+4      	; 0x6bac <function_menu+0x3a>
    6ba8:	0e 94 59 0e 	call	0x1cb2	; 0x1cb2 <lcd_space>
        } else {
           lcd_space();				// put a blank to 1. row of line 2
    6bac:	1c 30       	cpi	r17, 0x0C	; 12
        } 
        f_nr = func_number + MODE_LAST + 1 - MENU_MIDDLE + mm;
        if (f_nr > MODE_LAST) f_nr -= (MODE_LAST +1);
    6bae:	18 f0       	brcs	.+6      	; 0x6bb6 <function_menu+0x44>
    6bb0:	84 ef       	ldi	r24, 0xF4	; 244
    6bb2:	81 0f       	add	r24, r17
    6bb4:	01 c0       	rjmp	.+2      	; 0x6bb8 <function_menu+0x46>
    6bb6:	81 2f       	mov	r24, r17
    6bb8:	4e dc       	rcall	.-1892   	; 0x6456 <message2line>
        message2line(f_nr);	// show function for this line
    6bba:	0f 2d       	mov	r16, r15
    6bbc:	1f 5f       	subi	r17, 0xFF	; 255
    6bbe:	03 30       	cpi	r16, 0x03	; 3
    6bc0:	29 f7       	brne	.-54     	; 0x6b8c <function_menu+0x1a>
     } while (++mm < MENU_LINES);
    6bc2:	80 e4       	ldi	r24, 0x40	; 64
    6bc4:	9f e1       	ldi	r25, 0x1F	; 31
#else	/* not LCD_LINES > 3 */
     lcd_line2();
     message2line(func_number);
#endif /* (LCD_LINES > 3) */
#ifdef POWER_OFF
     ii = wait_for_key_ms(SHORT_WAIT_TIME);	// wait about 5 seconds
    6bc6:	0e 94 52 11 	call	0x22a4	; 0x22a4 <wait_for_key_ms>
    6bca:	81 11       	cpse	r24, r1
    6bcc:	d0 e0       	ldi	r29, 0x00	; 0
     if (ii > 0) ll = 0;			// reset timer, operator present
    6bce:	90 91 2f 01 	lds	r25, 0x012F
     if (DC_Pwr_mode == 1) ll = 0;
    6bd2:	91 30       	cpi	r25, 0x01	; 1
    6bd4:	09 f4       	brne	.+2      	; 0x6bd8 <function_menu+0x66>
    6bd6:	d0 e0       	ldi	r29, 0x00	; 0
    6bd8:	82 33       	cpi	r24, 0x32	; 50
    6bda:	40 f0       	brcs	.+16     	; 0x6bec <function_menu+0x7a>
     ii = wait_for_key_ms(0);			// wait endless
#endif
#ifdef WITH_ROTARY_SWITCH
     if ((ii >= MIN_SELECT_TIME) || ((rotary_switch_present != 0) && (ii > 0)))
#else
     if (ii >= MIN_SELECT_TIME)
    6bdc:	cc 23       	and	r28, r28
    6bde:	79 f0       	breq	.+30     	; 0x6bfe <function_menu+0x8c>
#endif
     {
        // selection only with key-press
        if (func_number == MODE_TRANS) return 0;		// return to TransistorTester
    6be0:	8c 2f       	mov	r24, r28
    6be2:	93 df       	rcall	.-218    	; 0x6b0a <do_menu>
        do_menu(func_number);
    6be4:	83 e5       	ldi	r24, 0x53	; 83
    6be6:	92 e0       	ldi	r25, 0x02	; 2
    6be8:	10 d0       	rcall	.+32     	; 0x6c0a <message_key_released>
        ii = 0;			// function was executed before, do not increase func_number
#ifdef WITH_ROTARY_SWITCH
        rotary.incre = 0;	// reset all rotary information
        rotary.count = 0;
#endif
        message_key_released(SELECTION_str);	//write Line 1 with Selection:
    6bea:	02 c0       	rjmp	.+4      	; 0x6bf0 <function_menu+0x7e>
    6bec:	81 11       	cpse	r24, r1
    6bee:	cf 5f       	subi	r28, 0xFF	; 255
    6bf0:	df 5f       	subi	r29, 0xFF	; 255
    6bf2:	d8 37       	cpi	r29, 0x78	; 120
        func_number += rotary.count;	// function number is increased by rotary steps
     } else {
        func_number += (MODE_LAST + 1 + rotary.count);	// function is decreased by rotary steps
     }
#endif
     if (ii > 0) func_number++;	// increase the function number with key press
    6bf4:	20 f4       	brcc	.+8      	; 0x6bfe <function_menu+0x8c>
    6bf6:	cc 30       	cpi	r28, 0x0C	; 12

  func_number = 0;
  message_key_released(SELECTION_str);
 #ifdef POWER_OFF
  uint8_t ll;
  for (ll=0;ll<((MODE_LAST+1)*10);ll++) 
    6bf8:	30 f2       	brcs	.-116    	; 0x6b86 <function_menu+0x14>
    6bfa:	cc 50       	subi	r28, 0x0C	; 12
    6bfc:	c4 cf       	rjmp	.-120    	; 0x6b86 <function_menu+0x14>
 #else
  while (1)		/* without end, if no power off specified */
 #endif
  {
     if (func_number > MODE_LAST) func_number -= (MODE_LAST + 1);
    6bfe:	80 e0       	ldi	r24, 0x00	; 0
    6c00:	cd b7       	in	r28, 0x3d	; 61
    6c02:	de b7       	in	r29, 0x3e	; 62
    6c04:	e5 e0       	ldi	r30, 0x05	; 5
#endif
     if (ii > 0) func_number++;	// increase the function number with key press
  } /* end for ll */

  return 0;
 } // end function_menu()
    6c06:	0c 94 46 3e 	jmp	0x7c8c	; 0x7c8c <__epilogue_restores__+0x1a>

00006c0a <message_key_released>:

//=================================================================
// Clear display, show Message XX_str and wait for key release

#if FLASHEND > 0x3fff
void message_key_released(const unsigned char XX_str[]) {
    6c0a:	a2 e0       	ldi	r26, 0x02	; 2
    6c0c:	b0 e0       	ldi	r27, 0x00	; 0
    6c0e:	eb e0       	ldi	r30, 0x0B	; 11
    6c10:	f6 e3       	ldi	r31, 0x36	; 54
    6c12:	0c 94 2c 3e 	jmp	0x7c58	; 0x7c58 <__prologue_saves__+0x1e>
//  lcd_clear_line();
//  lcd_line2();
//  lcd_clear_line();
//  lcd_line1();
//#else
  lcd_clear();
    6c16:	89 83       	std	Y+1, r24	; 0x01
    6c18:	9a 83       	std	Y+2, r25	; 0x02
    6c1a:	0e 94 d7 0c 	call	0x19ae	; 0x19ae <lcd_clear>
//#endif
  lcd_MEM2_string(XX_str);		// display MEM2_str in row 1
    6c1e:	89 81       	ldd	r24, Y+1	; 0x01
    6c20:	9a 81       	ldd	r25, Y+2	; 0x02
    6c22:	0e 94 b5 0e 	call	0x1d6a	; 0x1d6a <lcd_fix_string>
    6c26:	14 e6       	ldi	r17, 0x64	; 100
  for (times=0;times<100;times++) {
     wait_about10ms();
    6c28:	82 e0       	ldi	r24, 0x02	; 2
    6c2a:	0e 94 9b 09 	call	0x1336	; 0x1336 <sleep_5ms>
    if((RST_PIN_REG & (1<<RST_PIN))) break;	// key is released
    6c2e:	4f 99       	sbic	0x09, 7	; 9
    6c30:	02 c0       	rjmp	.+4      	; 0x6c36 <message_key_released+0x2c>
    6c32:	11 50       	subi	r17, 0x01	; 1
//  lcd_line1();
//#else
  lcd_clear();
//#endif
  lcd_MEM2_string(XX_str);		// display MEM2_str in row 1
  for (times=0;times<100;times++) {
    6c34:	c9 f7       	brne	.-14     	; 0x6c28 <message_key_released+0x1e>
     wait_about10ms();
    if((RST_PIN_REG & (1<<RST_PIN))) break;	// key is released
  }
  lcd_line2();
    6c36:	0e 94 23 0d 	call	0x1a46	; 0x1a46 <lcd_line2>
  return;
} /* end message_key_released() */
    6c3a:	22 96       	adiw	r28, 0x02	; 2
    6c3c:	e3 e0       	ldi	r30, 0x03	; 3
    6c3e:	0c 94 48 3e 	jmp	0x7c90	; 0x7c90 <__epilogue_restores__+0x1e>

00006c42 <ReadBigCap>:
#include "Transistortester.h"


#ifdef WITH_MENU
//=================================================================
void ReadBigCap(uint8_t HighPin, uint8_t LowPin) {
    6c42:	a4 e0       	ldi	r26, 0x04	; 4
    6c44:	b0 e0       	ldi	r27, 0x00	; 0
    6c46:	e6 e2       	ldi	r30, 0x26	; 38
    6c48:	f6 e3       	ldi	r31, 0x36	; 54
    6c4a:	fe c7       	rjmp	.+4092   	; 0x7c48 <__prologue_saves__+0xe>
    6c4c:	18 2f       	mov	r17, r24
    6c4e:	06 2f       	mov	r16, r22
    6c50:	26 2f       	mov	r18, r22
//#endif

#if (((PIN_RL1 + 1) != PIN_RH1) || ((PIN_RL2 + 1) != PIN_RH2) || ((PIN_RL3 + 1) != PIN_RH3))
  LoADC = pgm_read_byte((&PinRLRHADCtab[6])+LowPin-TP_MIN) | TXD_MSK;
#else
  LoADC = pgm_read_byte((&PinRLRHADCtab[3])+LowPin-TP_MIN) | TXD_MSK;
    6c52:	30 e0       	ldi	r19, 0x00	; 0
    6c54:	f9 01       	movw	r30, r18
    6c56:	e8 5a       	subi	r30, 0xA8	; 168
    6c58:	fd 4f       	sbci	r31, 0xFD	; 253
    6c5a:	e4 91       	lpm	r30, Z
    6c5c:	e8 60       	ori	r30, 0x08	; 8
    6c5e:	fe 2e       	mov	r15, r30
    6c60:	e8 2f       	mov	r30, r24
#endif
  HiPinR_L = pgm_read_byte(&PinRLRHADCtab[HighPin-TP_MIN]);	//R_L mask for HighPin R_L load
    6c62:	f0 e0       	ldi	r31, 0x00	; 0
    6c64:	eb 5a       	subi	r30, 0xAB	; 171
    6c66:	fd 4f       	sbci	r31, 0xFD	; 253
    6c68:	a4 90       	lpm	r10, Z
    6c6a:	f9 01       	movw	r30, r18
  LoPinR_L = pgm_read_byte(&PinRLRHADCtab[LowPin-TP_MIN]);	//R_L mask for LowPin R_L load
    6c6c:	eb 5a       	subi	r30, 0xAB	; 171
    6c6e:	fd 4f       	sbci	r31, 0xFD	; 253
    6c70:	e4 90       	lpm	r14, Z
    6c72:	10 92 80 01 	sts	0x0180, r1

#if FLASHEND > 0x1fff
  cap.esr = 0;				// set ESR of capacitor to zero
    6c76:	10 92 7f 01 	sts	0x017F, r1
    6c7a:	10 92 73 01 	sts	0x0173, r1
#endif
  cap.cval = 0;				// set capacity value to zero
    6c7e:	10 92 74 01 	sts	0x0174, r1
    6c82:	10 92 75 01 	sts	0x0175, r1
    6c86:	10 92 76 01 	sts	0x0176, r1
    6c8a:	87 ef       	ldi	r24, 0xF7	; 247
  cap.cpre = -9;			//default unit is nF
    6c8c:	80 93 85 01 	sts	0x0185, r24
    6c90:	0e 94 42 26 	call	0x4c84	; 0x4c84 <EntladePins>
  EntladePins();			// discharge capacitor
    6c94:	88 e0       	ldi	r24, 0x08	; 8
  ADC_PORT = TXD_VAL;			// switch ADC-Port to GND
    6c96:	88 b9       	out	0x08, r24	; 8
    6c98:	f7 b8       	out	0x07, r15	; 7
// The polarity of residual voltage of the capacitor depends on the measurement
// history.   Because the ADC can not measure a negative Voltage,
// the LowPin voltage is shifted to 139mV with the R_L resistor.
// The voltage of the capacitor is build as difference between HighPin and LowPin voltage.
  ADC_DDR = LoADC;			// switch Low-Pin to output (GND)
    6c9a:	e4 b8       	out	0x04, r14	; 4
  R_DDR = LoPinR_L;			// switch R_L Port of LoPin to VCC
    6c9c:	e5 b8       	out	0x05, r14	; 5
  R_PORT = LoPinR_L;			// switch R_L Port of LoPin to VCC
    6c9e:	81 2f       	mov	r24, r17
  residual_voltage = ReadADC(HighPin) - ReadADC(LowPin);	// capacitor voltage before any load 
    6ca0:	0e 94 d3 09 	call	0x13a6	; 0x13a6 <ReadADC>
    6ca4:	7c 01       	movw	r14, r24
    6ca6:	80 2f       	mov	r24, r16
    6ca8:	0e 94 d3 09 	call	0x13a6	; 0x13a6 <ReadADC>
    6cac:	e8 1a       	sub	r14, r24
    6cae:	f9 0a       	sbc	r15, r25
    6cb0:	14 b8       	out	0x04, r1	; 4
  R_DDR = 0;				// switch all R_L Port to input
    6cb2:	10 92 4c 01 	sts	0x014C, r1
  cap_voltage1 = 0;			// preset to prevent compiler warning
  
  ovcnt16 = 0;
    6cb6:	10 92 4b 01 	sts	0x014B, r1
    6cba:	20 e0       	ldi	r18, 0x00	; 0
  ADC_DDR = LoADC;			// switch Low-Pin to output (GND)
  R_DDR = LoPinR_L;			// switch R_L Port of LoPin to VCC
  R_PORT = LoPinR_L;			// switch R_L Port of LoPin to VCC
  residual_voltage = ReadADC(HighPin) - ReadADC(LowPin);	// capacitor voltage before any load 
  R_DDR = 0;				// switch all R_L Port to input
  cap_voltage1 = 0;			// preset to prevent compiler warning
    6cbc:	30 e0       	ldi	r19, 0x00	; 0
    6cbe:	9c e2       	ldi	r25, 0x2C	; 44
  ovcnt16 = 0;
#define MAX_LOAD_TIME 12500
#define MIN_VOLTAGE 300
  while (ovcnt16 < MAX_LOAD_TIME) {
     R_PORT = HiPinR_L;			//R_L to 1 (VCC) 
     if ((ovcnt16 == 0) || ((MIN_VOLTAGE-cap_voltage1) < (cap_voltage1*10/ovcnt16))) {
    6cc0:	c9 2e       	mov	r12, r25
    6cc2:	dd 24       	eor	r13, r13
    6cc4:	d3 94       	inc	r13
    6cc6:	4a e0       	ldi	r20, 0x0A	; 10
    6cc8:	94 2e       	mov	r9, r20
    6cca:	54 e6       	ldi	r21, 0x64	; 100
        R_DDR = HiPinR_L;		//switch Pin to output, across R to VCC
        wait200us();			// wait exactly 0.2ms, do not sleep
        R_DDR = 0;			// switch back to input
        ovcnt16++;
     } else if ((ovcnt16 > 10) && ((MIN_VOLTAGE-cap_voltage1) > ((cap_voltage1*100)/ovcnt16))){
    6ccc:	b5 2e       	mov	r11, r21
    6cce:	80 91 4b 01 	lds	r24, 0x014B
  cap_voltage1 = 0;			// preset to prevent compiler warning
  
  ovcnt16 = 0;
#define MAX_LOAD_TIME 12500
#define MIN_VOLTAGE 300
  while (ovcnt16 < MAX_LOAD_TIME) {
    6cd2:	90 91 4c 01 	lds	r25, 0x014C
    6cd6:	84 3d       	cpi	r24, 0xD4	; 212
    6cd8:	90 43       	sbci	r25, 0x30	; 48
    6cda:	08 f0       	brcs	.+2      	; 0x6cde <ReadBigCap+0x9c>
    6cdc:	6f c0       	rjmp	.+222    	; 0x6dbc <ReadBigCap+0x17a>
    6cde:	a5 b8       	out	0x05, r10	; 5
     R_PORT = HiPinR_L;			//R_L to 1 (VCC) 
    6ce0:	80 91 4b 01 	lds	r24, 0x014B
     if ((ovcnt16 == 0) || ((MIN_VOLTAGE-cap_voltage1) < (cap_voltage1*10/ovcnt16))) {
    6ce4:	90 91 4c 01 	lds	r25, 0x014C
    6ce8:	89 2b       	or	r24, r25
    6cea:	81 f0       	breq	.+32     	; 0x6d0c <ReadBigCap+0xca>
    6cec:	f6 01       	movw	r30, r12
    6cee:	e2 1b       	sub	r30, r18
    6cf0:	f3 0b       	sbc	r31, r19
    6cf2:	60 91 4b 01 	lds	r22, 0x014B
    6cf6:	70 91 4c 01 	lds	r23, 0x014C
    6cfa:	92 9e       	mul	r9, r18
    6cfc:	c0 01       	movw	r24, r0
    6cfe:	93 9e       	mul	r9, r19
    6d00:	90 0d       	add	r25, r0
    6d02:	11 24       	eor	r1, r1
    6d04:	85 d6       	rcall	.+3338   	; 0x7a10 <__udivmodhi4>
    6d06:	e6 17       	cp	r30, r22
    6d08:	f7 07       	cpc	r31, r23
    6d0a:	50 f4       	brcc	.+20     	; 0x6d20 <ReadBigCap+0xde>
    6d0c:	a4 b8       	out	0x04, r10	; 4
    6d0e:	0e 94 8d 09 	call	0x131a	; 0x131a <wait200us>
        R_DDR = HiPinR_L;		//switch Pin to output, across R to VCC
        wait200us();			// wait exactly 0.2ms, do not sleep
    6d12:	14 b8       	out	0x04, r1	; 4
    6d14:	80 91 4b 01 	lds	r24, 0x014B
        R_DDR = 0;			// switch back to input
        ovcnt16++;
    6d18:	90 91 4c 01 	lds	r25, 0x014C
    6d1c:	01 96       	adiw	r24, 0x01	; 1
    6d1e:	27 c0       	rjmp	.+78     	; 0x6d6e <ReadBigCap+0x12c>
    6d20:	80 91 4b 01 	lds	r24, 0x014B
     } else if ((ovcnt16 > 10) && ((MIN_VOLTAGE-cap_voltage1) > ((cap_voltage1*100)/ovcnt16))){
    6d24:	90 91 4c 01 	lds	r25, 0x014C
    6d28:	0b 97       	sbiw	r24, 0x0b	; 11
    6d2a:	c0 f0       	brcs	.+48     	; 0x6d5c <ReadBigCap+0x11a>
    6d2c:	60 91 4b 01 	lds	r22, 0x014B
    6d30:	70 91 4c 01 	lds	r23, 0x014C
    6d34:	b2 9e       	mul	r11, r18
    6d36:	c0 01       	movw	r24, r0
    6d38:	b3 9e       	mul	r11, r19
    6d3a:	90 0d       	add	r25, r0
    6d3c:	11 24       	eor	r1, r1
    6d3e:	68 d6       	rcall	.+3280   	; 0x7a10 <__udivmodhi4>
    6d40:	6e 17       	cp	r22, r30
    6d42:	7f 07       	cpc	r23, r31
    6d44:	58 f4       	brcc	.+22     	; 0x6d5c <ReadBigCap+0x11a>
    6d46:	a4 b8       	out	0x04, r10	; 4
    6d48:	0e 94 82 09 	call	0x1304	; 0x1304 <wait20ms>
        R_DDR = HiPinR_L;		//switch Pin to output, across R to VCC
    6d4c:	14 b8       	out	0x04, r1	; 4
        wait20ms();			// wait exactly 20ms, do not sleep
    6d4e:	80 91 4b 01 	lds	r24, 0x014B
        R_DDR = 0;			// switch back to input
    6d52:	90 91 4c 01 	lds	r25, 0x014C
        ovcnt16 += 100;
    6d56:	8c 59       	subi	r24, 0x9C	; 156
    6d58:	9f 4f       	sbci	r25, 0xFF	; 255
    6d5a:	09 c0       	rjmp	.+18     	; 0x6d6e <ReadBigCap+0x12c>
    6d5c:	a4 b8       	out	0x04, r10	; 4
    6d5e:	0e 94 88 09 	call	0x1310	; 0x1310 <wait2ms>
     } else {
        R_DDR = HiPinR_L;		//switch Pin to output, across R to VCC
    6d62:	14 b8       	out	0x04, r1	; 4
        wait2ms();			// wait exactly 2ms, do not sleep
    6d64:	80 91 4b 01 	lds	r24, 0x014B
        R_DDR = 0;			// switch back to input
    6d68:	90 91 4c 01 	lds	r25, 0x014C
        ovcnt16 += 10;
    6d6c:	0a 96       	adiw	r24, 0x0a	; 10
    6d6e:	90 93 4c 01 	sts	0x014C, r25
    6d72:	80 93 4b 01 	sts	0x014B, r24
    6d76:	15 b8       	out	0x05, r1	; 5
    6d78:	0e 94 8f 09 	call	0x131e	; 0x131e <wait50us>
     }
     R_PORT = 0;			// no Pull up
    6d7c:	a8 95       	wdr
     wait50us();			//wait a little time
    6d7e:	81 2f       	mov	r24, r17
    6d80:	0e 94 d3 09 	call	0x13a6	; 0x13a6 <ReadADC>
     wdt_reset();
     // read voltage without current, is already charged enough?
     cap_voltage1 = ReadADC(HighPin) - residual_voltage;	// voltage loaded to capacitor
    6d84:	9c 01       	movw	r18, r24
    6d86:	2e 19       	sub	r18, r14
    6d88:	3f 09       	sbc	r19, r15
    6d8a:	80 91 4b 01 	lds	r24, 0x014B
    6d8e:	90 91 4c 01 	lds	r25, 0x014C
     if ((ovcnt16 > (MAX_LOAD_TIME/8)) && (cap_voltage1 < (MIN_VOLTAGE/8))) {
    6d92:	8b 31       	cpi	r24, 0x1B	; 27
    6d94:	96 40       	sbci	r25, 0x06	; 6
    6d96:	18 f0       	brcs	.+6      	; 0x6d9e <ReadBigCap+0x15c>
    6d98:	25 32       	cpi	r18, 0x25	; 37
    6d9a:	31 05       	cpc	r19, r1
    6d9c:	7c f0       	brlt	.+30     	; 0x6dbc <ReadBigCap+0x17a>
    6d9e:	2d 32       	cpi	r18, 0x2D	; 45
    6da0:	81 e0       	ldi	r24, 0x01	; 1
    6da2:	38 07       	cpc	r19, r24
        // 300mV can not be reached well-timed 
        break;		// don't try to load any more
     }
     // probably 50mF can be charged well-timed 
     if (cap_voltage1 > MIN_VOLTAGE) {
    6da4:	0c f4       	brge	.+2      	; 0x6da8 <ReadBigCap+0x166>
    6da6:	93 cf       	rjmp	.-218    	; 0x6cce <ReadBigCap+0x8c>
    6da8:	80 91 4b 01 	lds	r24, 0x014B
    6dac:	90 91 4c 01 	lds	r25, 0x014C
//  wdt_reset();
  if (cap_voltage1 <= MIN_VOLTAGE) {
     goto keinC;		// was never charged enough, >20mF or shorted
  }
  //voltage is rised properly and keeps the voltage enough
  if ((ovcnt16 == 1 ) && (cap_voltage1 > 1300)) {
    6db0:	01 97       	sbiw	r24, 0x01	; 1
    6db2:	61 f4       	brne	.+24     	; 0x6dcc <ReadBigCap+0x18a>
    6db4:	25 31       	cpi	r18, 0x15	; 21
    6db6:	85 e0       	ldi	r24, 0x05	; 5
    6db8:	38 07       	cpc	r19, r24
    6dba:	44 f0       	brlt	.+16     	; 0x6dcc <ReadBigCap+0x18a>
    6dbc:	88 e0       	ldi	r24, 0x08	; 8
    6dbe:	87 b9       	out	0x07, r24	; 7
    6dc0:	88 b9       	out	0x08, r24	; 8
keinC:
  // discharge capacitor again
//  EntladePins();		// discharge capacitors
  //ready
  // switch all ports to input
  ADC_DDR =  TXD_MSK;		// switch all ADC ports to input
    6dc2:	14 b8       	out	0x04, r1	; 4
    6dc4:	15 b8       	out	0x05, r1	; 5
  ADC_PORT = TXD_VAL;		// switch all ADC outputs to GND, no pull up
    6dc6:	24 96       	adiw	r28, 0x04	; 4
  R_DDR = 0;			// switch all resistor ports to input
    6dc8:	eb e0       	ldi	r30, 0x0B	; 11
  R_PORT = 0; 			// switch all resistor outputs to GND, no pull up
    6dca:	5a c7       	rjmp	.+3764   	; 0x7c80 <__epilogue_restores__+0xe>
  return;
 } // end ReadBigCap()
    6dcc:	40 91 4b 01 	lds	r20, 0x014B
    6dd0:	50 91 4c 01 	lds	r21, 0x014C
  //voltage is rised properly and keeps the voltage enough
  if ((ovcnt16 == 1 ) && (cap_voltage1 > 1300)) {
     goto keinC;		// Voltage of more than 1300mV is reached in one pulse, too fast loaded
  }
  // Capacity is more than about 50F
  cap.cval_uncorrected.dw = ovcnt16*2;
    6dd4:	44 0f       	add	r20, r20
    6dd6:	55 1f       	adc	r21, r21
    6dd8:	60 e0       	ldi	r22, 0x00	; 0
    6dda:	70 e0       	ldi	r23, 0x00	; 0
    6ddc:	40 93 7b 01 	sts	0x017B, r20
    6de0:	50 93 7c 01 	sts	0x017C, r21
    6de4:	60 93 7d 01 	sts	0x017D, r22
    6de8:	70 93 7e 01 	sts	0x017E, r23
    6dec:	c9 01       	movw	r24, r18
    6dee:	68 e2       	ldi	r22, 0x28	; 40
    6df0:	70 e0       	ldi	r23, 0x00	; 0
    6df2:	22 d6       	rcall	.+3140   	; 0x7a38 <__divmodhi4>
  // compute factor with load voltage + lost voltage during the voltage load time
//  cap.cval_uncorrected.dw *= GetRLmultip(cap_voltage1);	// get factor to convert time to capacity from table
  cap.cval_uncorrected.dw *= GetRLmultip(cap_voltage1 + cap_voltage1/40);	// get factor to convert time to capacity from table
    6df4:	c9 01       	movw	r24, r18
    6df6:	86 0f       	add	r24, r22
    6df8:	97 1f       	adc	r25, r23
    6dfa:	0e 94 c1 0a 	call	0x1582	; 0x1582 <GetRLmultip>
    6dfe:	20 91 7b 01 	lds	r18, 0x017B
    6e02:	30 91 7c 01 	lds	r19, 0x017C
    6e06:	40 91 7d 01 	lds	r20, 0x017D
    6e0a:	50 91 7e 01 	lds	r21, 0x017E
    6e0e:	dc 01       	movw	r26, r24
    6e10:	7f d6       	rcall	.+3326   	; 0x7b10 <__muluhisi3>
    6e12:	60 93 7b 01 	sts	0x017B, r22
    6e16:	70 93 7c 01 	sts	0x017C, r23
    6e1a:	80 93 7d 01 	sts	0x017D, r24
    6e1e:	90 93 7e 01 	sts	0x017E, r25
    6e22:	60 93 73 01 	sts	0x0173, r22
    6e26:	70 93 74 01 	sts	0x0174, r23
    6e2a:	80 93 75 01 	sts	0x0175, r24
   cap.cval = cap.cval_uncorrected.dw;	// set result to uncorrected
    6e2e:	90 93 76 01 	sts	0x0176, r25
    6e32:	0e 94 d2 26 	call	0x4da4	; 0x4da4 <Scale_C_with_vcc>
    6e36:	20 91 73 01 	lds	r18, 0x0173
    6e3a:	30 91 74 01 	lds	r19, 0x0174
   Scale_C_with_vcc();
    6e3e:	40 91 75 01 	lds	r20, 0x0175
   // cap.cval for this type is at least 40000nF, so the last digit will be never shown
//   cap.cval -= ((cap.cval * C_H_KORR) / 1000);	// correct with C_H_KORR with 0.1% resolution, but prevent overflow
//   cap.cval /= 10;
#ifdef WITH_MENU
   cap.cval *= (1000 - (int8_t)eeprom_read_byte((uint8_t *)&big_cap_corr));	// correct with actual big_cap_korr at 0.1% resolution
    6e42:	50 91 76 01 	lds	r21, 0x0176
    6e46:	8d e4       	ldi	r24, 0x4D	; 77
    6e48:	93 e0       	ldi	r25, 0x03	; 3
    6e4a:	29 83       	std	Y+1, r18	; 0x01
    6e4c:	3a 83       	std	Y+2, r19	; 0x02
    6e4e:	4b 83       	std	Y+3, r20	; 0x03
    6e50:	5c 83       	std	Y+4, r21	; 0x04
    6e52:	86 d7       	rcall	.+3852   	; 0x7d60 <eeprom_read_byte>
    6e54:	a8 ee       	ldi	r26, 0xE8	; 232
    6e56:	b3 e0       	ldi	r27, 0x03	; 3
    6e58:	a8 1b       	sub	r26, r24
    6e5a:	b1 09       	sbc	r27, r1
    6e5c:	87 fd       	sbrc	r24, 7
    6e5e:	b3 95       	inc	r27
    6e60:	29 81       	ldd	r18, Y+1	; 0x01
    6e62:	3a 81       	ldd	r19, Y+2	; 0x02
    6e64:	4b 81       	ldd	r20, Y+3	; 0x03
    6e66:	5c 81       	ldd	r21, Y+4	; 0x04
    6e68:	5d d6       	rcall	.+3258   	; 0x7b24 <__mulshisi3>
    6e6a:	20 e1       	ldi	r18, 0x10	; 16
    6e6c:	37 e2       	ldi	r19, 0x27	; 39
    6e6e:	40 e0       	ldi	r20, 0x00	; 0
    6e70:	50 e0       	ldi	r21, 0x00	; 0
    6e72:	f5 d5       	rcall	.+3050   	; 0x7a5e <__udivmodsi4>
    6e74:	20 93 73 01 	sts	0x0173, r18
    6e78:	30 93 74 01 	sts	0x0174, r19
#else
   cap.cval *= (1000 - C_H_KORR);	// correct with C_H_KORR at 0.1% resolution
#endif
   cap.cval /= 10000;
    6e7c:	40 93 75 01 	sts	0x0175, r20
    6e80:	50 93 76 01 	sts	0x0176, r21
    6e84:	88 e0       	ldi	r24, 0x08	; 8
    6e86:	80 93 13 01 	sts	0x0113, r24
    6e8a:	20 93 77 01 	sts	0x0177, r18
    6e8e:	30 93 78 01 	sts	0x0178, r19
    6e92:	40 93 79 01 	sts	0x0179, r20

//==================================================================================

   PartFound = PART_CAPACITOR;	//capacitor is found
    6e96:	50 93 7a 01 	sts	0x017A, r21
    6e9a:	80 91 85 01 	lds	r24, 0x0185
      cap.cval_max = cap.cval;
    6e9e:	80 93 86 01 	sts	0x0186, r24
    6ea2:	10 92 82 01 	sts	0x0182, r1
    6ea6:	10 92 81 01 	sts	0x0181, r1
    6eaa:	00 93 83 01 	sts	0x0183, r16
      cap.cpre_max = cap.cpre;
    6eae:	10 93 84 01 	sts	0x0184, r17
    6eb2:	84 cf       	rjmp	.-248    	; 0x6dbc <ReadBigCap+0x17a>

00006eb4 <ShowData>:
#include "Transistortester.h"
/*  ShowData shows the Software version number and */
/*  the calibration data at the 2-line or 4-line LCD */
#ifdef WITH_MENU
void ShowData(void) {
    6eb4:	cf 92       	push	r12
    6eb6:	df 92       	push	r13
    6eb8:	ff 92       	push	r15
    6eba:	0f 93       	push	r16
    6ebc:	1f 93       	push	r17
    6ebe:	cf 93       	push	r28
    6ec0:	df 93       	push	r29
#endif

#ifdef WITH_ROTARY_SWITCH
show_page_1:
#endif
  lcd_clear();
    6ec2:	0e 94 d7 0c 	call	0x19ae	; 0x19ae <lcd_clear>
  lcd_MEM_string(VERSION_str);	// "Version x.xxk"
    6ec6:	85 e0       	ldi	r24, 0x05	; 5
    6ec8:	91 e0       	ldi	r25, 0x01	; 1
    6eca:	0e 94 b5 0e 	call	0x1d6a	; 0x1d6a <lcd_fix_string>
  lcd_line2();
    6ece:	0e 94 23 0d 	call	0x1a46	; 0x1a46 <lcd_line2>
  lcd_MEM2_string(R0_str);	// "R0="
    6ed2:	81 ec       	ldi	r24, 0xC1	; 193
    6ed4:	90 e0       	ldi	r25, 0x00	; 0
    6ed6:	0e 94 b5 0e 	call	0x1d6a	; 0x1d6a <lcd_fix_string>
  DisplayValue16(eeprom_read_byte(&EE_ESR_ZEROtab[2]),-2,' ',3);
    6eda:	8b e4       	ldi	r24, 0x4B	; 75
    6edc:	93 e0       	ldi	r25, 0x03	; 3
    6ede:	40 d7       	rcall	.+3712   	; 0x7d60 <eeprom_read_byte>
    6ee0:	23 e0       	ldi	r18, 0x03	; 3
    6ee2:	40 e2       	ldi	r20, 0x20	; 32
    6ee4:	6e ef       	ldi	r22, 0xFE	; 254
    6ee6:	90 e0       	ldi	r25, 0x00	; 0
    6ee8:	0e 94 e4 0f 	call	0x1fc8	; 0x1fc8 <DisplayValue16>
    6eec:	8c e4       	ldi	r24, 0x4C	; 76
  DisplayValue16(eeprom_read_byte(&EE_ESR_ZEROtab[3]),-2,' ',3);
    6eee:	93 e0       	ldi	r25, 0x03	; 3
    6ef0:	37 d7       	rcall	.+3694   	; 0x7d60 <eeprom_read_byte>
    6ef2:	23 e0       	ldi	r18, 0x03	; 3
    6ef4:	40 e2       	ldi	r20, 0x20	; 32
    6ef6:	6e ef       	ldi	r22, 0xFE	; 254
    6ef8:	90 e0       	ldi	r25, 0x00	; 0
    6efa:	0e 94 e4 0f 	call	0x1fc8	; 0x1fc8 <DisplayValue16>
    6efe:	8a e4       	ldi	r24, 0x4A	; 74
    6f00:	93 e0       	ldi	r25, 0x03	; 3
  DisplayValue16(eeprom_read_byte(&EE_ESR_ZEROtab[1]),-2,LCD_CHAR_OMEGA,3);
    6f02:	2e d7       	rcall	.+3676   	; 0x7d60 <eeprom_read_byte>
    6f04:	23 e0       	ldi	r18, 0x03	; 3
    6f06:	44 e0       	ldi	r20, 0x04	; 4
    6f08:	6e ef       	ldi	r22, 0xFE	; 254
    6f0a:	90 e0       	ldi	r25, 0x00	; 0
    6f0c:	0e 94 e4 0f 	call	0x1fc8	; 0x1fc8 <DisplayValue16>
    6f10:	0e 94 2b 0d 	call	0x1a56	; 0x1a56 <lcd_line3>
    6f14:	8a eb       	ldi	r24, 0xBA	; 186
#if (LCD_LINES > 3)
  lcd_line3();
    6f16:	90 e0       	ldi	r25, 0x00	; 0
    6f18:	0e 94 b5 0e 	call	0x1d6a	; 0x1d6a <lcd_fix_string>
show_page_2:
 #endif
  lcd_clear();
#endif
  /* output line 3 */
  lcd_MEM_string(RIHI_str); // "RiHi="
    6f1c:	23 e0       	ldi	r18, 0x03	; 3
    6f1e:	44 e0       	ldi	r20, 0x04	; 4
    6f20:	6f ef       	ldi	r22, 0xFF	; 255
  DisplayValue16(RRpinPL,-1,LCD_CHAR_OMEGA,3);
    6f22:	80 91 2b 01 	lds	r24, 0x012B
    6f26:	90 91 2c 01 	lds	r25, 0x012C
    6f2a:	0e 94 e4 0f 	call	0x1fc8	; 0x1fc8 <DisplayValue16>
    6f2e:	0e 94 33 0d 	call	0x1a66	; 0x1a66 <lcd_line4>
    6f32:	83 eb       	ldi	r24, 0xB3	; 179
#if (LCD_LINES > 3)
  lcd_line4();
    6f34:	90 e0       	ldi	r25, 0x00	; 0
    6f36:	0e 94 b5 0e 	call	0x1d6a	; 0x1d6a <lcd_fix_string>
#else
  lcd_line2();
#endif
  /* output line 4 */
  lcd_MEM_string(RILO_str); // "RiLo="
    6f3a:	23 e0       	ldi	r18, 0x03	; 3
    6f3c:	44 e0       	ldi	r20, 0x04	; 4
    6f3e:	6f ef       	ldi	r22, 0xFF	; 255
  DisplayValue16(RRpinMI,-1,LCD_CHAR_OMEGA,3);
    6f40:	80 91 32 01 	lds	r24, 0x0132
    6f44:	90 91 33 01 	lds	r25, 0x0133
    6f48:	0e 94 e4 0f 	call	0x1fc8	; 0x1fc8 <DisplayValue16>
    6f4c:	88 e9       	ldi	r24, 0x98	; 152
    6f4e:	9a e3       	ldi	r25, 0x3A	; 58
    6f50:	0e 94 52 11 	call	0x22a4	; 0x22a4 <wait_for_key_ms>

  wait_for_key_ms(MIDDLE_WAIT_TIME);
    6f54:	0e 94 d7 0c 	call	0x19ae	; 0x19ae <lcd_clear>
    6f58:	8f ea       	ldi	r24, 0xAF	; 175
  if (rotary.count < -1) goto show_page_1;
  if (rotary.count < 0) goto show_page_2;
 #endif
show_page_3:
#endif
  lcd_clear();
    6f5a:	90 e0       	ldi	r25, 0x00	; 0
    6f5c:	0e 94 b5 0e 	call	0x1d6a	; 0x1d6a <lcd_fix_string>
  lcd_MEM_string(C0_str);                       //output "C0 "
    6f60:	8f e6       	ldi	r24, 0x6F	; 111
    6f62:	93 e0       	ldi	r25, 0x03	; 3
    6f64:	fd d6       	rcall	.+3578   	; 0x7d60 <eeprom_read_byte>
  u2lcd_space(eeprom_read_byte(&c_zero_tab[5]) -(COMP_SLEW1 / (CC0 + CABLE_CAP + COMP_SLEW2)));		//output cap0 1:3
    6f66:	90 e0       	ldi	r25, 0x00	; 0
    6f68:	42 97       	sbiw	r24, 0x12	; 18
    6f6a:	0e 94 80 08 	call	0x1100	; 0x1100 <u2lcd_space>
    6f6e:	80 e7       	ldi	r24, 0x70	; 112
    6f70:	93 e0       	ldi	r25, 0x03	; 3
    6f72:	f6 d6       	rcall	.+3564   	; 0x7d60 <eeprom_read_byte>
    6f74:	90 e0       	ldi	r25, 0x00	; 0
  u2lcd_space(eeprom_read_byte(&c_zero_tab[6]) -(COMP_SLEW1 / (CC0 + CABLE_CAP + COMP_SLEW2)));		//output cap0 2:3
    6f76:	42 97       	sbiw	r24, 0x12	; 18
    6f78:	0e 94 80 08 	call	0x1100	; 0x1100 <u2lcd_space>
    6f7c:	8c e6       	ldi	r24, 0x6C	; 108
    6f7e:	93 e0       	ldi	r25, 0x03	; 3
    6f80:	ef d6       	rcall	.+3550   	; 0x7d60 <eeprom_read_byte>
    6f82:	90 e0       	ldi	r25, 0x00	; 0
    6f84:	23 e0       	ldi	r18, 0x03	; 3
  DisplayValue16(eeprom_read_byte(&c_zero_tab[2]) -(COMP_SLEW1 / (CC0 + CABLE_CAP + COMP_SLEW2)) ,-12,'F',3);		//output cap0 1:2
    6f86:	46 e4       	ldi	r20, 0x46	; 70
    6f88:	64 ef       	ldi	r22, 0xF4	; 244
    6f8a:	42 97       	sbiw	r24, 0x12	; 18
    6f8c:	0e 94 e4 0f 	call	0x1fc8	; 0x1fc8 <DisplayValue16>
    6f90:	0e 94 23 0d 	call	0x1a46	; 0x1a46 <lcd_line2>
    6f94:	83 e0       	ldi	r24, 0x03	; 3
    6f96:	0e 94 5c 0e 	call	0x1cb8	; 0x1cb8 <lcd_spaces>
    6f9a:	8b e6       	ldi	r24, 0x6B	; 107
  lcd_line2();
    6f9c:	93 e0       	ldi	r25, 0x03	; 3
    6f9e:	e0 d6       	rcall	.+3520   	; 0x7d60 <eeprom_read_byte>
  lcd_spaces(3);
    6fa0:	90 e0       	ldi	r25, 0x00	; 0
    6fa2:	42 97       	sbiw	r24, 0x12	; 18
    6fa4:	0e 94 80 08 	call	0x1100	; 0x1100 <u2lcd_space>
  u2lcd_space(eeprom_read_byte(&c_zero_tab[1]) -(COMP_SLEW1 / (CC0 + CABLE_CAP + COMP_SLEW2)));		//output cap0 3:1
    6fa8:	8e e6       	ldi	r24, 0x6E	; 110
    6faa:	93 e0       	ldi	r25, 0x03	; 3
    6fac:	d9 d6       	rcall	.+3506   	; 0x7d60 <eeprom_read_byte>
    6fae:	90 e0       	ldi	r25, 0x00	; 0
    6fb0:	42 97       	sbiw	r24, 0x12	; 18
    6fb2:	0e 94 80 08 	call	0x1100	; 0x1100 <u2lcd_space>
  u2lcd_space(eeprom_read_byte(&c_zero_tab[4]) -(COMP_SLEW1 / (CC0 + CABLE_CAP + COMP_SLEW2)));		//output cap0 3:2
    6fb6:	8a e6       	ldi	r24, 0x6A	; 106
    6fb8:	93 e0       	ldi	r25, 0x03	; 3
    6fba:	d2 d6       	rcall	.+3492   	; 0x7d60 <eeprom_read_byte>
    6fbc:	90 e0       	ldi	r25, 0x00	; 0
    6fbe:	23 e0       	ldi	r18, 0x03	; 3
    6fc0:	46 e4       	ldi	r20, 0x46	; 70
    6fc2:	64 ef       	ldi	r22, 0xF4	; 244
    6fc4:	42 97       	sbiw	r24, 0x12	; 18
  DisplayValue16(eeprom_read_byte(&c_zero_tab[0]) -(COMP_SLEW1 / (CC0 + CABLE_CAP + COMP_SLEW2)) ,-12,'F',3);		//output cap0 2:1
    6fc6:	0e 94 e4 0f 	call	0x1fc8	; 0x1fc8 <DisplayValue16>
    6fca:	0e 94 2b 0d 	call	0x1a56	; 0x1a56 <lcd_line3>
    6fce:	8d e1       	ldi	r24, 0x1D	; 29
    6fd0:	90 e0       	ldi	r25, 0x00	; 0
    6fd2:	0e 94 b5 0e 	call	0x1d6a	; 0x1d6a <lcd_fix_string>
    6fd6:	81 e7       	ldi	r24, 0x71	; 113
    6fd8:	93 e0       	ldi	r25, 0x03	; 3
    6fda:	ca d6       	rcall	.+3476   	; 0x7d70 <eeprom_read_word>
#if (LCD_LINES > 3)
  lcd_line3();
    6fdc:	0e 94 6c 08 	call	0x10d8	; 0x10d8 <i2lcd>
show_page_4:
 #endif
  lcd_clear();
#endif
  /* output line 7 */
  lcd_MEM2_string(REF_C_str);	// "REF_C="
    6fe0:	0e 94 33 0d 	call	0x1a66	; 0x1a66 <lcd_line4>
    6fe4:	86 e1       	ldi	r24, 0x16	; 22
    6fe6:	90 e0       	ldi	r25, 0x00	; 0
  i2lcd((int16_t)eeprom_read_word((uint16_t *)(&ref_offset)));
    6fe8:	0e 94 b5 0e 	call	0x1d6a	; 0x1d6a <lcd_fix_string>
    6fec:	83 e7       	ldi	r24, 0x73	; 115
    6fee:	93 e0       	ldi	r25, 0x03	; 3
    6ff0:	b7 d6       	rcall	.+3438   	; 0x7d60 <eeprom_read_byte>
    6ff2:	08 2e       	mov	r0, r24
#if (LCD_LINES > 3)
  lcd_line4();
    6ff4:	00 0c       	add	r0, r0
    6ff6:	99 0b       	sbc	r25, r25
#else
  lcd_line2();
#endif
  /* output line 8 */
  lcd_MEM2_string(REF_R_str);  // "REF_R="
    6ff8:	0e 94 6c 08 	call	0x10d8	; 0x10d8 <i2lcd>
    6ffc:	60 e0       	ldi	r22, 0x00	; 0
    6ffe:	86 e0       	ldi	r24, 0x06	; 6
  i2lcd((int8_t)eeprom_read_byte((uint8_t *)(&RefDiff)));
    7000:	0e 94 a4 0c 	call	0x1948	; 0x1948 <lcd_set_cursor>
    7004:	c0 e0       	ldi	r28, 0x00	; 0
    7006:	fc 2e       	mov	r15, r28
    7008:	ff 0c       	add	r15, r15
    700a:	fc 0e       	add	r15, r28
    700c:	d0 e0       	ldi	r29, 0x00	; 0
    700e:	fa 94       	dec	r15
    7010:	cd 17       	cp	r28, r29
#ifdef SamplingADC
#ifdef WITH_ROTARY_SWITCH
show_page_5:
#endif
  /* modified output from sampling_cap_calibrate */
  lcd_set_cursor((LCD_LINES-1)*PAGES_PER_LINE,0);      // set for initial clear screen
    7012:	c9 f1       	breq	.+114    	; 0x7086 <ShowData+0x1d2>
    7014:	0f 2d       	mov	r16, r15
    7016:	0d 0f       	add	r16, r29
    7018:	10 e0       	ldi	r17, 0x00	; 0
  for (ii=0;ii<=2;ii++)
    701a:	00 0f       	add	r16, r16
    701c:	11 1f       	adc	r17, r17
    701e:	c8 01       	movw	r24, r16
    7020:	84 5a       	subi	r24, 0xA4	; 164
#include "Transistortester.h"
/*  ShowData shows the Software version number and */
/*  the calibration data at the 2-line or 4-line LCD */
#ifdef WITH_MENU
void ShowData(void) {
    7022:	9c 4f       	sbci	r25, 0xFC	; 252
    7024:	a5 d6       	rcall	.+3402   	; 0x7d70 <eeprom_read_word>
#endif
  /* modified output from sampling_cap_calibrate */
  lcd_set_cursor((LCD_LINES-1)*PAGES_PER_LINE,0);      // set for initial clear screen
  for (ii=0;ii<=2;ii++)
    for (jj=0;jj<=2;jj++)
       if (ii != jj) {
    7026:	6c 01       	movw	r12, r24
    7028:	c8 01       	movw	r24, r16
    702a:	82 5b       	subi	r24, 0xB2	; 178
    702c:	9c 4f       	sbci	r25, 0xFC	; 252
          kk = (ii * 3) + jj - 1;
          cc = eeprom_read_word((void *)(c_zero_tab2_lo+kk));
    702e:	a0 d6       	rcall	.+3392   	; 0x7d70 <eeprom_read_word>
    7030:	8c 01       	movw	r16, r24
    7032:	80 91 a5 01 	lds	r24, 0x01A5
    7036:	83 30       	cpi	r24, 0x03	; 3
    7038:	38 f0       	brcs	.+14     	; 0x7048 <ShowData+0x194>
    703a:	88 e9       	ldi	r24, 0x98	; 152
    703c:	9a e3       	ldi	r25, 0x3A	; 58
    703e:	0e 94 52 11 	call	0x22a4	; 0x22a4 <wait_for_key_ms>
          dd = eeprom_read_word((void *)(c_zero_tab2_hi+kk));
    7042:	0e 94 d7 0c 	call	0x19ae	; 0x19ae <lcd_clear>
    7046:	03 c0       	rjmp	.+6      	; 0x704e <ShowData+0x19a>
    7048:	80 e0       	ldi	r24, 0x00	; 0
    704a:	0e 94 73 0e 	call	0x1ce6	; 0x1ce6 <lcd_next_line>
          if (lcd_text_line > (LCD_LINES - 2)) {
    704e:	87 ea       	ldi	r24, 0xA7	; 167
    7050:	90 e0       	ldi	r25, 0x00	; 0
    7052:	0e 94 b5 0e 	call	0x1d6a	; 0x1d6a <lcd_fix_string>
             wait_for_key_ms(MIDDLE_WAIT_TIME);
    7056:	8c 2f       	mov	r24, r28
    7058:	0e 94 56 0e 	call	0x1cac	; 0x1cac <lcd_testpin>
             if (rotary.count < -2) goto show_page_3;
             if (rotary.count < -1) goto show_page_4;
             if (rotary.count < 0) goto show_page_5;
  #endif
 #endif  /* WITH_ROTARY_SWITCH */
             lcd_clear();
    705c:	8a e3       	ldi	r24, 0x3A	; 58
    705e:	0e 94 0c 0e 	call	0x1c18	; 0x1c18 <lcd_data>
          } else {  
	     lcd_next_line(0);
    7062:	8d 2f       	mov	r24, r29
    7064:	0e 94 56 0e 	call	0x1cac	; 0x1cac <lcd_testpin>
          }
          lcd_MEM_string(C0samp_str);	// "C0samp "
    7068:	80 e0       	ldi	r24, 0x00	; 0
    706a:	0e 94 73 0e 	call	0x1ce6	; 0x1ce6 <lcd_next_line>
    706e:	23 e0       	ldi	r18, 0x03	; 3
	  lcd_testpin(ii);
    7070:	40 e2       	ldi	r20, 0x20	; 32
    7072:	6e ef       	ldi	r22, 0xFE	; 254
    7074:	c6 01       	movw	r24, r12
	  lcd_data(':');
    7076:	0e 94 e4 0f 	call	0x1fc8	; 0x1fc8 <DisplayValue16>
    707a:	23 e0       	ldi	r18, 0x03	; 3
          lcd_testpin(jj);
    707c:	46 e4       	ldi	r20, 0x46	; 70
    707e:	62 ef       	ldi	r22, 0xF2	; 242
    7080:	c8 01       	movw	r24, r16
	  lcd_next_line(0);
    7082:	0e 94 e4 0f 	call	0x1fc8	; 0x1fc8 <DisplayValue16>
    7086:	df 5f       	subi	r29, 0xFF	; 255
	  DisplayValue16(cc,-2,' ',3);
    7088:	d3 30       	cpi	r29, 0x03	; 3
    708a:	09 f0       	breq	.+2      	; 0x708e <ShowData+0x1da>
    708c:	c1 cf       	rjmp	.-126    	; 0x7010 <ShowData+0x15c>
    708e:	cf 5f       	subi	r28, 0xFF	; 255
    7090:	c3 30       	cpi	r28, 0x03	; 3
    7092:	09 f0       	breq	.+2      	; 0x7096 <ShowData+0x1e2>
	  DisplayValue16(dd,-12-2,'F',3);
    7094:	b8 cf       	rjmp	.-144    	; 0x7006 <ShowData+0x152>
    7096:	88 e9       	ldi	r24, 0x98	; 152
    7098:	9a e3       	ldi	r25, 0x3A	; 58
    709a:	0e 94 52 11 	call	0x22a4	; 0x22a4 <wait_for_key_ms>
    709e:	0e 94 34 10 	call	0x2068	; 0x2068 <ShowIcons>
show_page_5:
#endif
  /* modified output from sampling_cap_calibrate */
  lcd_set_cursor((LCD_LINES-1)*PAGES_PER_LINE,0);      // set for initial clear screen
  for (ii=0;ii<=2;ii++)
    for (jj=0;jj<=2;jj++)
    70a2:	df 91       	pop	r29
    70a4:	cf 91       	pop	r28
    70a6:	1f 91       	pop	r17
#ifdef WITH_ROTARY_SWITCH
show_page_5:
#endif
  /* modified output from sampling_cap_calibrate */
  lcd_set_cursor((LCD_LINES-1)*PAGES_PER_LINE,0);      // set for initial clear screen
  for (ii=0;ii<=2;ii++)
    70a8:	0f 91       	pop	r16
    70aa:	ff 90       	pop	r15
    70ac:	df 90       	pop	r13
    70ae:	cf 90       	pop	r12
  if (rotary.count < 0) goto show_page_4;
  #endif
 #endif

#endif  /* SamplingADC */
  wait_for_key_ms(MIDDLE_WAIT_TIME);
    70b0:	08 95       	ret

000070b2 <mylog>:



// calculate -32768*ln(1-y/32768)
static unsigned int mylog(unsigned int y)
{
    70b2:	8f 92       	push	r8
    70b4:	9f 92       	push	r9
    70b6:	af 92       	push	r10
    70b8:	bf 92       	push	r11
    70ba:	cf 92       	push	r12
    70bc:	df 92       	push	r13
    70be:	ef 92       	push	r14
    70c0:	ff 92       	push	r15
    70c2:	ac 01       	movw	r20, r24
*/

   // newer version: uses one more term for better accuracy (0.2% instead of 1% in the test mentioned above)
   // only 30 bytes longer than the 1% version
   unsigned short int bb;
   b=y;
    70c4:	4c 01       	movw	r8, r24
    70c6:	a1 2c       	mov	r10, r1
    70c8:	b1 2c       	mov	r11, r1
   a = (b<<16);
    70ca:	74 01       	movw	r14, r8
    70cc:	dd 24       	eor	r13, r13
    70ce:	cc 24       	eor	r12, r12
   a += b* (y+(y>>4)+(y>>8));
    70d0:	e5 2f       	mov	r30, r21
    70d2:	ff 27       	eor	r31, r31
   b = b*y;
    70d4:	9a 01       	movw	r18, r20
    70d6:	da 01       	movw	r26, r20
    70d8:	06 d5       	rcall	.+2572   	; 0x7ae6 <__umulhisi3>
    70da:	96 95       	lsr	r25
   bb = b>>16;
   bb>>=2;                                     // not integrated in previous line because then compiler does an 18-position shift of a 32-bit variable :-(
    70dc:	87 95       	ror	r24
    70de:	96 95       	lsr	r25
    70e0:	87 95       	ror	r24
    70e2:	9c 01       	movw	r18, r24
   unsigned short bb2=bb>>2;                   // without this intermediate variable, compiler does some of >> multiple times
    70e4:	36 95       	lsr	r19
    70e6:	27 95       	ror	r18
    70e8:	36 95       	lsr	r19
    70ea:	27 95       	ror	r18
    70ec:	b9 01       	movw	r22, r18
   a += y * (unsigned long int) (bb - bb2);
   bb = (bb2>>1)*(y>>8);            
    70ee:	76 95       	lsr	r23
    70f0:	67 95       	ror	r22
    70f2:	6e 9f       	mul	r22, r30
    70f4:	d0 01       	movw	r26, r0
    70f6:	6f 9f       	mul	r22, r31
    70f8:	b0 0d       	add	r27, r0
    70fa:	7e 9f       	mul	r23, r30
    70fc:	b0 0d       	add	r27, r0
    70fe:	11 24       	eor	r1, r1
    7100:	82 1b       	sub	r24, r18
   a += b* (y+(y>>4)+(y>>8));
   b = b*y;
   bb = b>>16;
   bb>>=2;                                     // not integrated in previous line because then compiler does an 18-position shift of a 32-bit variable :-(
   unsigned short bb2=bb>>2;                   // without this intermediate variable, compiler does some of >> multiple times
   a += y * (unsigned long int) (bb - bb2);
    7102:	93 0b       	sbc	r25, r19
    7104:	9a 01       	movw	r18, r20
   // newer version: uses one more term for better accuracy (0.2% instead of 1% in the test mentioned above)
   // only 30 bytes longer than the 1% version
   unsigned short int bb;
   b=y;
   a = (b<<16);
   a += b* (y+(y>>4)+(y>>8));
    7106:	64 e0       	ldi	r22, 0x04	; 4
    7108:	36 95       	lsr	r19
    710a:	27 95       	ror	r18
    710c:	6a 95       	dec	r22
    710e:	e1 f7       	brne	.-8      	; 0x7108 <mylog+0x56>
    7110:	e2 0f       	add	r30, r18
    7112:	f3 1f       	adc	r31, r19
    7114:	e4 0f       	add	r30, r20
    7116:	f5 1f       	adc	r31, r21
    7118:	af 01       	movw	r20, r30
    711a:	60 e0       	ldi	r22, 0x00	; 0
    711c:	70 e0       	ldi	r23, 0x00	; 0
    711e:	48 0f       	add	r20, r24
    7120:	59 1f       	adc	r21, r25
    7122:	61 1d       	adc	r22, r1
    7124:	71 1d       	adc	r23, r1
    7126:	cd 01       	movw	r24, r26
   bb = b>>16;
   bb>>=2;                                     // not integrated in previous line because then compiler does an 18-position shift of a 32-bit variable :-(
   unsigned short bb2=bb>>2;                   // without this intermediate variable, compiler does some of >> multiple times
   a += y * (unsigned long int) (bb - bb2);
   bb = (bb2>>1)*(y>>8);            
   a += y * (unsigned long int)(bb - (bb>>3));
    7128:	e3 e0       	ldi	r30, 0x03	; 3
    712a:	96 95       	lsr	r25
    712c:	87 95       	ror	r24
    712e:	ea 95       	dec	r30
    7130:	e1 f7       	brne	.-8      	; 0x712a <mylog+0x78>
    7132:	a8 1b       	sub	r26, r24
    7134:	b9 0b       	sbc	r27, r25
    7136:	9a 01       	movw	r18, r20
    7138:	ab 01       	movw	r20, r22
    713a:	2a 0f       	add	r18, r26
    713c:	3b 1f       	adc	r19, r27
    713e:	41 1d       	adc	r20, r1
    7140:	51 1d       	adc	r21, r1
    7142:	c5 01       	movw	r24, r10
    7144:	b4 01       	movw	r22, r8
    7146:	49 d4       	rcall	.+2194   	; 0x79da <__mulsi3>
    7148:	6c 0d       	add	r22, r12
    714a:	7d 1d       	adc	r23, r13
    714c:	8e 1d       	adc	r24, r14
    714e:	9f 1d       	adc	r25, r15
    7150:	ff 90       	pop	r15
    7152:	ef 90       	pop	r14
   return a>>16;
} /* end mylog */
    7154:	df 90       	pop	r13
    7156:	cf 90       	pop	r12
    7158:	bf 90       	pop	r11
    715a:	af 90       	pop	r10
    715c:	9f 90       	pop	r9
    715e:	8f 90       	pop	r8
    7160:	08 95       	ret

00007162 <sampling_cap>:
    7162:	a5 e0       	ldi	r26, 0x05	; 5
    7164:	b2 e0       	ldi	r27, 0x02	; 2


int32_t sampling_cap(byte HighPin, byte LowPin, byte opts)
{
    7166:	e6 eb       	ldi	r30, 0xB6	; 182
    7168:	f8 e3       	ldi	r31, 0x38	; 56
    716a:	67 c5       	rjmp	.+2766   	; 0x7c3a <__prologue_saves__>
    716c:	18 2f       	mov	r17, r24
    716e:	b6 2e       	mov	r11, r22
    7170:	cf 5f       	subi	r28, 0xFF	; 255
    7172:	dd 4f       	sbci	r29, 0xFD	; 253
    7174:	48 83       	st	Y, r20
    7176:	c1 50       	subi	r28, 0x01	; 1
    7178:	d2 40       	sbci	r29, 0x02	; 2
    717a:	0e 94 42 26 	call	0x4c84	; 0x4c84 <EntladePins>
  EntladePins();
    717e:	e1 2f       	mov	r30, r17

  uint8_t HiPinR_L, HiPinR_H;
  uint8_t LoADC;
  uint16_t samp_opt;
  HiPinR_L = pgm_read_byte(&PinRLRHADCtab[HighPin]);	//R_L mask for HighPin R_L load
    7180:	f0 e0       	ldi	r31, 0x00	; 0
    7182:	eb 5a       	subi	r30, 0xAB	; 171
    7184:	fd 4f       	sbci	r31, 0xFD	; 253
    7186:	84 90       	lpm	r8, Z
    7188:	98 2c       	mov	r9, r8
#if (((PIN_RL1 + 1) != PIN_RH1) || ((PIN_RL2 + 1) != PIN_RH2) || ((PIN_RL3 + 1) != PIN_RH3))
  HiPinR_H = pgm_read_byte((&PinRLRHADCtab[3])+HighPin);	//R_H mask for HighPin R_H load
  LoADC = pgm_read_byte((&PinRLRHADCtab[6])+LowPin) | TXD_MSK;
#else
  HiPinR_H = HiPinR_L + HiPinR_L;	//double for HighPin R_H load
    718a:	99 0c       	add	r9, r9
    718c:	eb 2d       	mov	r30, r11
  LoADC = pgm_read_byte((&PinRLRHADCtab[3])+LowPin) | TXD_MSK;
    718e:	f0 e0       	ldi	r31, 0x00	; 0
    7190:	e8 5a       	subi	r30, 0xA8	; 168
    7192:	fd 4f       	sbci	r31, 0xFD	; 253
    7194:	e4 91       	lpm	r30, Z
    7196:	e8 60       	ori	r30, 0x08	; 8
    7198:	e7 b9       	out	0x07, r30	; 7
#endif

   byte i=0;

   unsigned int uu[256];
   ADC_DDR = LoADC;			// switch Low-Pin to output (GND)
    719a:	15 b8       	out	0x05, r1	; 5
   R_PORT = 0;			//R_L to 0 (GND) 
    719c:	84 b8       	out	0x04, r8	; 4
   R_DDR = HiPinR_L;			
    719e:	81 2f       	mov	r24, r17
//   wait200us();			// let the last ADC cycle finish

   ADMUX = HighPin|(1<<REFS0);	// switch Multiplexer to Highpin and use 5V reference voltage
    71a0:	80 64       	ori	r24, 0x40	; 64
    71a2:	80 93 7c 00 	sts	0x007C, r24
    71a6:	0e 94 8e 09 	call	0x131c	; 0x131c <wait100us>
#ifdef NO_AREF_CAP
    wait100us(); /* time for voltage stabilization */
    71aa:	cf 5f       	subi	r28, 0xFF	; 255
#ifdef SamplingADC_CNT
   samp_opt = 1;		// sample distance 1
#else
   samp_opt = 0;
#endif
   byte d=( (opts&1) ? HiPinR_L : HiPinR_H );
    71ac:	dd 4f       	sbci	r29, 0xFD	; 253
    71ae:	28 81       	ld	r18, Y
    71b0:	c1 50       	subi	r28, 0x01	; 1
    71b2:	d2 40       	sbci	r29, 0x02	; 2
    71b4:	21 70       	andi	r18, 0x01	; 1
    71b6:	a2 2e       	mov	r10, r18
    71b8:	cf 5f       	subi	r28, 0xFF	; 255
    71ba:	dd 4f       	sbci	r29, 0xFD	; 253
    71bc:	38 81       	ld	r19, Y
    71be:	c1 50       	subi	r28, 0x01	; 1
    71c0:	d2 40       	sbci	r29, 0x02	; 2
    71c2:	30 fd       	sbrc	r19, 0
    71c4:	02 c0       	rjmp	.+4      	; 0x71ca <sampling_cap+0x68>
    71c6:	d9 2c       	mov	r13, r9
    71c8:	01 c0       	rjmp	.+2      	; 0x71cc <sampling_cap+0x6a>
    71ca:	d8 2c       	mov	r13, r8
    71cc:	00 e2       	ldi	r16, 0x20	; 32
    71ce:	f0 2e       	mov	r15, r16
    71d0:	80 e0       	ldi	r24, 0x00	; 0
   #define sumx (unsigned long)((N2*(N2+1l)/2)-(N4*(N4-1l)/2)+(N3*(N3-1l)/2)-(N1*(N1-1l)/2))
   unsigned long sumxx=(unsigned long)((N2*(N2+1l)*(2*N2+1l)/6)-(N4*(N4-1l)*(2*N4-1l)/6)+(N3*(N3-1l)*(2*N3-1l)/6)-(N1*(N1-1l)*(2*N1-1l)/6));
#ifdef SamplingADC_CNT
   samp_opt = 1;		// sample distance 1
#else
   samp_opt = 0;
    71d2:	90 e0       	ldi	r25, 0x00	; 0
    71d4:	c8 2c       	mov	r12, r8
#endif
   byte d=( (opts&1) ? HiPinR_L : HiPinR_H );

   for (i=0;i<32;i++) {
      samplingADC(samp_opt, uu, N2+1, d, HiPinR_H, d, HiPinR_L);
    71d6:	ed 2c       	mov	r14, r13
    71d8:	09 2d       	mov	r16, r9
    71da:	2d 2d       	mov	r18, r13
    71dc:	47 ee       	ldi	r20, 0xE7	; 231
    71de:	be 01       	movw	r22, r28
    71e0:	6f 5f       	subi	r22, 0xFF	; 255
    71e2:	7f 4f       	sbci	r23, 0xFF	; 255
    71e4:	0e 94 3e 00 	call	0x7c	; 0x7c <samplingADC>
    71e8:	fa 94       	dec	r15
    71ea:	80 e4       	ldi	r24, 0x40	; 64
      samp_opt |= samplingADC_cumul;
    71ec:	90 e0       	ldi	r25, 0x00	; 0
    71ee:	f1 10       	cpse	r15, r1
#else
   samp_opt = 0;
#endif
   byte d=( (opts&1) ? HiPinR_L : HiPinR_H );

   for (i=0;i<32;i++) {
    71f0:	f1 cf       	rjmp	.-30     	; 0x71d4 <sampling_cap+0x72>
    71f2:	14 b8       	out	0x04, r1	; 4
      samplingADC(samp_opt, uu, N2+1, d, HiPinR_H, d, HiPinR_L);
      samp_opt |= samplingADC_cumul;
   }
//   uart_newline(); for (i=0;i<N2;i++) { myuart_putc('a'); myuart_putc(' '); uart_int(uu[i]); uart_newline(); wdt_reset(); }

   R_DDR = 0;			
    71f4:	c1 2c       	mov	r12, r1
#endif

   // we use the least-squares algorithm to find the slope
   // cf. e.g. https://en.wikipedia.org/wiki/Ordinary_least_squares
   unsigned long sumy, sumxy;
   sumy=sumxy=0;
    71f6:	d1 2c       	mov	r13, r1
    71f8:	76 01       	movw	r14, r12
    71fa:	21 2c       	mov	r2, r1
    71fc:	31 2c       	mov	r3, r1
    71fe:	21 01       	movw	r4, r2
    7200:	06 e4       	ldi	r16, 0x46	; 70
   for (i=N1;i<=N2;i++) {	/* 70-230 @16MHz, 35-115 @8MHz */
    7202:	81 2c       	mov	r8, r1
      if (i==N3) i=N4;		// skip from N3 to (N4-1), 182-192 @16MHz, 200-200 @8MHz
      unsigned int z;
      if (opts&1) z=mylog(32768-uu[i]);
    7204:	b0 e8       	ldi	r27, 0x80	; 128
    7206:	9b 2e       	mov	r9, r27
    7208:	60 2e       	mov	r6, r16
    720a:	71 2c       	mov	r7, r1
    720c:	f3 01       	movw	r30, r6
    720e:	ee 0f       	add	r30, r30
    7210:	ff 1f       	adc	r31, r31
    7212:	41 e0       	ldi	r20, 0x01	; 1
    7214:	50 e0       	ldi	r21, 0x00	; 0
    7216:	4c 0f       	add	r20, r28
    7218:	5d 1f       	adc	r21, r29
    721a:	e4 0f       	add	r30, r20
    721c:	f5 1f       	adc	r31, r21
    721e:	80 81       	ld	r24, Z
    7220:	91 81       	ldd	r25, Z+1	; 0x01
    7222:	aa 20       	and	r10, r10
    7224:	21 f0       	breq	.+8      	; 0x722e <sampling_cap+0xcc>
    7226:	94 01       	movw	r18, r8
    7228:	28 1b       	sub	r18, r24
    722a:	39 0b       	sbc	r19, r25
    722c:	c9 01       	movw	r24, r18
    722e:	41 df       	rcall	.-382    	; 0x70b2 <mylog>
      else z=mylog(uu[i]);
    7230:	28 0e       	add	r2, r24
    7232:	39 1e       	adc	r3, r25
      sumy+=z;
    7234:	41 1c       	adc	r4, r1
    7236:	51 1c       	adc	r5, r1
    7238:	9c 01       	movw	r18, r24
    723a:	d3 01       	movw	r26, r6
      sumxy+=(unsigned long int)i*z;
    723c:	54 d4       	rcall	.+2216   	; 0x7ae6 <__umulhisi3>
    723e:	c6 0e       	add	r12, r22
    7240:	d7 1e       	adc	r13, r23
    7242:	e8 1e       	adc	r14, r24
    7244:	f9 1e       	adc	r15, r25
    7246:	0f 5f       	subi	r16, 0xFF	; 255
    7248:	07 3e       	cpi	r16, 0xE7	; 231
    724a:	20 f4       	brcc	.+8      	; 0x7254 <sampling_cap+0xf2>

   // we use the least-squares algorithm to find the slope
   // cf. e.g. https://en.wikipedia.org/wiki/Ordinary_least_squares
   unsigned long sumy, sumxy;
   sumy=sumxy=0;
   for (i=N1;i<=N2;i++) {	/* 70-230 @16MHz, 35-115 @8MHz */
    724c:	06 3b       	cpi	r16, 0xB6	; 182
    724e:	e1 f6       	brne	.-72     	; 0x7208 <sampling_cap+0xa6>
    7250:	01 ec       	ldi	r16, 0xC1	; 193
      if (i==N3) i=N4;		// skip from N3 to (N4-1), 182-192 @16MHz, 200-200 @8MHz
    7252:	da cf       	rjmp	.-76     	; 0x7208 <sampling_cap+0xa6>
    7254:	c2 01       	movw	r24, r4
    7256:	b1 01       	movw	r22, r2
    7258:	26 e9       	ldi	r18, 0x96	; 150
   // sumy ~ 2^22
   // sumxy ~ 2^30
   // at 8 MHz, we sum roughly half as many sample samples, and x will get only half as big, so sumxy will be about 1/4, and sumxx 1/8
   sumxx -= sumx*sumx/N;
   // now sumxx ~ <2^19 , as it turns out; note that sumxx is a constant, depending only on N and N1..4; it was a variable previously, hence this code
   sumxy -= sumx*(sumy/N);
    725a:	30 e0       	ldi	r19, 0x00	; 0
    725c:	40 e0       	ldi	r20, 0x00	; 0
    725e:	50 e0       	ldi	r21, 0x00	; 0
    7260:	fe d3       	rcall	.+2044   	; 0x7a5e <__udivmodsi4>
    7262:	ad e4       	ldi	r26, 0x4D	; 77
    7264:	b6 e5       	ldi	r27, 0x56	; 86
    7266:	54 d4       	rcall	.+2216   	; 0x7b10 <__muluhisi3>
    7268:	a7 01       	movw	r20, r14
    726a:	96 01       	movw	r18, r12
    726c:	26 1b       	sub	r18, r22
    726e:	37 0b       	sbc	r19, r23
    7270:	48 0b       	sbc	r20, r24
    7272:	59 0b       	sbc	r21, r25
    7274:	76 e0       	ldi	r23, 0x06	; 6
    7276:	56 95       	lsr	r21
    7278:	47 95       	ror	r20
    727a:	37 95       	ror	r19
    727c:	27 95       	ror	r18
   // at 16 MHz, and aiming for units of 10^{-14} Farad, the constant becomes 32768e14/16e6/R = 2048e8/R
   // for R=470000, this is 435744.68
   // if 8 MHz, we correct for the extra factor 2 in the bitshift of sumxx, so as to not lose bits
#if MHZ_CPU>=16
   sumxx>>=3;   // bitshift such that sumxx fits in 16 bits
   sumxy>>=6;   // we shift sumxy by 3 bits more than sumxx because a few lines down we have an extra /8 to make things fit 
    727e:	7a 95       	dec	r23
    7280:	d1 f7       	brne	.-12     	; 0x7276 <sampling_cap+0x114>
    7282:	6c ea       	ldi	r22, 0xAC	; 172
    7284:	77 e4       	ldi	r23, 0x47	; 71
    7286:	85 e8       	ldi	r24, 0x85	; 133
    7288:	96 e8       	ldi	r25, 0x86	; 134
    728a:	e9 d3       	rcall	.+2002   	; 0x7a5e <__udivmodsi4>
   unsigned long int c3;
#if MHZ_CPU == 20
   // at 20 MHz, and aiming for units of 10^{-14} Farad, the constant becomes 32768e14/20e6/R = 16384e7/R
   c3 = sumxx*((uint32_t)(((16384000000./R_H_VAL)+4)/8))/sumxy;  // units of 0.01 pF
#else
   c3 = sumxx*((uint32_t)(((20480000000./R_H_VAL)+4)/8))/sumxy;  // units of 0.01 pF
    728c:	cf 5f       	subi	r28, 0xFF	; 255
    728e:	dd 4f       	sbci	r29, 0xFD	; 253
    7290:	88 81       	ld	r24, Y
    7292:	c1 50       	subi	r28, 0x01	; 1
    7294:	d2 40       	sbci	r29, 0x02	; 2
    7296:	81 fd       	sbrc	r24, 1
#endif
   // the /8 is to make the (...) factor (about 435745) fit in 16 bits
   // note that the /8 is compensated for by the different bitshifts of sumxx and sumxy, and the +4 rounds this number properly
   if (!(opts&2)) 
    7298:	3e c0       	rjmp	.+124    	; 0x7316 <sampling_cap+0x1b4>
    729a:	8f ef       	ldi	r24, 0xFF	; 255
    729c:	8b 0d       	add	r24, r11
    729e:	91 2f       	mov	r25, r17
    72a0:	99 0f       	add	r25, r25
    72a2:	19 0f       	add	r17, r25
    72a4:	18 0f       	add	r17, r24
    72a6:	81 2f       	mov	r24, r17
    72a8:	90 e0       	ldi	r25, 0x00	; 0
   {
      byte k = ((HighPin - TP_MIN)*3) + LowPin - TP_MIN -1;
    72aa:	88 0f       	add	r24, r24
    72ac:	99 1f       	adc	r25, r25
    72ae:	aa 20       	and	r10, r10
    72b0:	19 f0       	breq	.+6      	; 0x72b8 <sampling_cap+0x156>
    72b2:	82 5b       	subi	r24, 0xB2	; 178
    72b4:	9c 4f       	sbci	r25, 0xFC	; 252
      if (opts&1) c3-= eeprom_read_word(c_zero_tab2_hi+k);
    72b6:	02 c0       	rjmp	.+4      	; 0x72bc <sampling_cap+0x15a>
    72b8:	84 5a       	subi	r24, 0xA4	; 164
    72ba:	9c 4f       	sbci	r25, 0xFC	; 252
    72bc:	ce 5f       	subi	r28, 0xFE	; 254
    72be:	dd 4f       	sbci	r29, 0xFD	; 253
    72c0:	28 83       	st	Y, r18
    72c2:	c2 50       	subi	r28, 0x02	; 2
      else c3-= eeprom_read_word(c_zero_tab2_lo+k);
    72c4:	d2 40       	sbci	r29, 0x02	; 2
    72c6:	cd 5f       	subi	r28, 0xFD	; 253
    72c8:	dd 4f       	sbci	r29, 0xFD	; 253
    72ca:	38 83       	st	Y, r19
    72cc:	c3 50       	subi	r28, 0x03	; 3
    72ce:	d2 40       	sbci	r29, 0x02	; 2
    72d0:	cc 5f       	subi	r28, 0xFC	; 252
    72d2:	dd 4f       	sbci	r29, 0xFD	; 253
    72d4:	48 83       	st	Y, r20
    72d6:	c4 50       	subi	r28, 0x04	; 4
    72d8:	d2 40       	sbci	r29, 0x02	; 2
    72da:	cb 5f       	subi	r28, 0xFB	; 251
    72dc:	dd 4f       	sbci	r29, 0xFD	; 253
    72de:	58 83       	st	Y, r21
    72e0:	c5 50       	subi	r28, 0x05	; 5
    72e2:	d2 40       	sbci	r29, 0x02	; 2
    72e4:	45 d5       	rcall	.+2698   	; 0x7d70 <eeprom_read_word>
    72e6:	ce 5f       	subi	r28, 0xFE	; 254
    72e8:	dd 4f       	sbci	r29, 0xFD	; 253
    72ea:	28 81       	ld	r18, Y
    72ec:	c2 50       	subi	r28, 0x02	; 2
    72ee:	d2 40       	sbci	r29, 0x02	; 2
    72f0:	cd 5f       	subi	r28, 0xFD	; 253
    72f2:	dd 4f       	sbci	r29, 0xFD	; 253
    72f4:	38 81       	ld	r19, Y
    72f6:	c3 50       	subi	r28, 0x03	; 3
    72f8:	d2 40       	sbci	r29, 0x02	; 2
    72fa:	cc 5f       	subi	r28, 0xFC	; 252
    72fc:	dd 4f       	sbci	r29, 0xFD	; 253
    72fe:	48 81       	ld	r20, Y
    7300:	c4 50       	subi	r28, 0x04	; 4
    7302:	d2 40       	sbci	r29, 0x02	; 2
    7304:	cb 5f       	subi	r28, 0xFB	; 251
    7306:	dd 4f       	sbci	r29, 0xFD	; 253
    7308:	58 81       	ld	r21, Y
    730a:	c5 50       	subi	r28, 0x05	; 5
    730c:	d2 40       	sbci	r29, 0x02	; 2
    730e:	28 1b       	sub	r18, r24
    7310:	39 0b       	sbc	r19, r25
    7312:	41 09       	sbc	r20, r1
    7314:	51 09       	sbc	r21, r1
    7316:	ca 01       	movw	r24, r20
    7318:	b9 01       	movw	r22, r18
    731a:	cb 5f       	subi	r28, 0xFB	; 251
    731c:	dd 4f       	sbci	r29, 0xFD	; 253
    731e:	e2 e1       	ldi	r30, 0x12	; 18
    7320:	a8 c4       	rjmp	.+2384   	; 0x7c72 <__epilogue_restores__>

00007322 <sampling_cap_calibrate>:
    7322:	4f 92       	push	r4
   }
   return c3;
}  /* end sampling_cap */
    7324:	5f 92       	push	r5
    7326:	6f 92       	push	r6
    7328:	7f 92       	push	r7
    732a:	8f 92       	push	r8
    732c:	9f 92       	push	r9
    732e:	af 92       	push	r10
    7330:	bf 92       	push	r11




void sampling_cap_calibrate()
{
    7332:	ff 92       	push	r15
    7334:	0f 93       	push	r16
    7336:	1f 93       	push	r17
    7338:	cf 93       	push	r28
    733a:	df 93       	push	r29
   // measure capacitance of all combinations without anything connected
   byte i,j;
   for (i=0;i<=2;i++)
    733c:	c0 e0       	ldi	r28, 0x00	; 0
    733e:	fc 2e       	mov	r15, r28
    7340:	ff 0c       	add	r15, r15
    7342:	fc 0e       	add	r15, r28




void sampling_cap_calibrate()
{
    7344:	d0 e0       	ldi	r29, 0x00	; 0
    7346:	fa 94       	dec	r15
   // measure capacitance of all combinations without anything connected
   byte i,j;
   for (i=0;i<=2;i++)
      for (j=0;j<=2;j++)
         if (i!=j) {
    7348:	cd 17       	cp	r28, r29
    734a:	09 f4       	brne	.+2      	; 0x734e <sampling_cap_calibrate+0x2c>
    734c:	3e c0       	rjmp	.+124    	; 0x73ca <sampling_cap_calibrate+0xa8>
            unsigned int c;
            c=sampling_cap(i,j,2);
    734e:	42 e0       	ldi	r20, 0x02	; 2
    7350:	6d 2f       	mov	r22, r29
    7352:	8c 2f       	mov	r24, r28
    7354:	06 df       	rcall	.-500    	; 0x7162 <sampling_cap>
    7356:	2b 01       	movw	r4, r22
    7358:	3c 01       	movw	r6, r24
    735a:	43 e0       	ldi	r20, 0x03	; 3
#ifdef PULLUP_DISABLE
            unsigned int d;
            d=sampling_cap(i,j,3);
    735c:	6d 2f       	mov	r22, r29
    735e:	8c 2f       	mov	r24, r28
    7360:	00 df       	rcall	.-512    	; 0x7162 <sampling_cap>
    7362:	4b 01       	movw	r8, r22
    7364:	5c 01       	movw	r10, r24
    7366:	0e 94 d7 0c 	call	0x19ae	; 0x19ae <lcd_clear>
#endif
            lcd_clear();
    736a:	87 ea       	ldi	r24, 0xA7	; 167
    736c:	90 e0       	ldi	r25, 0x00	; 0
            lcd_MEM2_string(C0samp_str);			//output "C0samp "
    736e:	0e 94 b5 0e 	call	0x1d6a	; 0x1d6a <lcd_fix_string>
    7372:	0e 94 59 0e 	call	0x1cb2	; 0x1cb2 <lcd_space>
            lcd_space();				// lcd_data(' ');
    7376:	8c 2f       	mov	r24, r28
    7378:	0e 94 56 0e 	call	0x1cac	; 0x1cac <lcd_testpin>
            lcd_testpin(i);
    737c:	8a e3       	ldi	r24, 0x3A	; 58
    737e:	0e 94 0c 0e 	call	0x1c18	; 0x1c18 <lcd_data>
            lcd_data(':');
    7382:	8d 2f       	mov	r24, r29
    7384:	0e 94 56 0e 	call	0x1cac	; 0x1cac <lcd_testpin>
            lcd_testpin(j);
    7388:	0e 94 59 0e 	call	0x1cb2	; 0x1cb2 <lcd_space>
            lcd_space();				//lcd_data(' ');
    738c:	0e 94 23 0d 	call	0x1a46	; 0x1a46 <lcd_line2>
            lcd_line2();
    7390:	24 e0       	ldi	r18, 0x04	; 4
    7392:	40 e2       	ldi	r20, 0x20	; 32
            byte k=3*i+j-1;
#ifdef PULLUP_DISABLE
            DisplayValue16(c,-2,' ',4);
    7394:	6e ef       	ldi	r22, 0xFE	; 254
    7396:	c2 01       	movw	r24, r4
    7398:	0e 94 e4 0f 	call	0x1fc8	; 0x1fc8 <DisplayValue16>
    739c:	24 e0       	ldi	r18, 0x04	; 4
    739e:	46 e4       	ldi	r20, 0x46	; 70
            DisplayValue16(d,-14,'F',4);
    73a0:	62 ef       	ldi	r22, 0xF2	; 242
    73a2:	c4 01       	movw	r24, r8
    73a4:	0e 94 e4 0f 	call	0x1fc8	; 0x1fc8 <DisplayValue16>
    73a8:	0f 2d       	mov	r16, r15
    73aa:	0d 0f       	add	r16, r29
            eeprom_write_word((void*)(c_zero_tab2_lo+k),c); /* C0 from 0 to 1 */
    73ac:	10 e0       	ldi	r17, 0x00	; 0
    73ae:	00 0f       	add	r16, r16
    73b0:	11 1f       	adc	r17, r17
    73b2:	b2 01       	movw	r22, r4
    73b4:	c8 01       	movw	r24, r16
    73b6:	84 5a       	subi	r24, 0xA4	; 164
    73b8:	9c 4f       	sbci	r25, 0xFC	; 252
    73ba:	ed d4       	rcall	.+2522   	; 0x7d96 <eeprom_write_word>
    73bc:	b4 01       	movw	r22, r8
    73be:	c8 01       	movw	r24, r16
    73c0:	82 5b       	subi	r24, 0xB2	; 178
            eeprom_write_word((void*)(c_zero_tab2_hi+k),d); /* C0 from 1 to 0 */
    73c2:	9c 4f       	sbci	r25, 0xFC	; 252
    73c4:	e8 d4       	rcall	.+2512   	; 0x7d96 <eeprom_write_word>
    73c6:	0e 94 6d 0e 	call	0x1cda	; 0x1cda <lcd_clear_line>
    73ca:	df 5f       	subi	r29, 0xFF	; 255
    73cc:	d3 30       	cpi	r29, 0x03	; 3
#else
            DisplayValue16(c,-14,' ',4);
            eeprom_write_word((void*)(c_zero_tab2_lo+k),c); /* C0 from 0 to 1 */
            eeprom_write_word((void*)(c_zero_tab2_hi+k),c); /* set 1to0 same as 0to1 */
#endif
            lcd_clear_line();
    73ce:	09 f0       	breq	.+2      	; 0x73d2 <sampling_cap_calibrate+0xb0>
    73d0:	bb cf       	rjmp	.-138    	; 0x7348 <sampling_cap_calibrate+0x26>
void sampling_cap_calibrate()
{
   // measure capacitance of all combinations without anything connected
   byte i,j;
   for (i=0;i<=2;i++)
      for (j=0;j<=2;j++)
    73d2:	cf 5f       	subi	r28, 0xFF	; 255
    73d4:	c3 30       	cpi	r28, 0x03	; 3
    73d6:	09 f0       	breq	.+2      	; 0x73da <sampling_cap_calibrate+0xb8>
    73d8:	b2 cf       	rjmp	.-156    	; 0x733e <sampling_cap_calibrate+0x1c>

void sampling_cap_calibrate()
{
   // measure capacitance of all combinations without anything connected
   byte i,j;
   for (i=0;i<=2;i++)
    73da:	0e 94 d0 0c 	call	0x19a0	; 0x19a0 <lcd_line1>
    73de:	85 eb       	ldi	r24, 0xB5	; 181
    73e0:	91 e0       	ldi	r25, 0x01	; 1
            eeprom_write_word((void*)(c_zero_tab2_hi+k),c); /* set 1to0 same as 0to1 */
#endif
            lcd_clear_line();
            lcd_refresh();
         }
   lcd_line1();
    73e2:	0e 94 b5 0e 	call	0x1d6a	; 0x1d6a <lcd_fix_string>
   lcd_MEM_string(OK_str);	// "OK"
    73e6:	0e 94 6d 0e 	call	0x1cda	; 0x1cda <lcd_clear_line>
    73ea:	88 e2       	ldi	r24, 0x28	; 40
    73ec:	0e 94 9b 09 	call	0x1336	; 0x1336 <sleep_5ms>
   lcd_clear_line();
    73f0:	df 91       	pop	r29
   lcd_refresh();
   wait_about200ms();
    73f2:	cf 91       	pop	r28
    73f4:	1f 91       	pop	r17
    73f6:	0f 91       	pop	r16
} /* end sampling_cap_calibrate */
    73f8:	ff 90       	pop	r15
    73fa:	bf 90       	pop	r11
    73fc:	af 90       	pop	r10
    73fe:	9f 90       	pop	r9
    7400:	8f 90       	pop	r8
    7402:	7f 90       	pop	r7
    7404:	6f 90       	pop	r6
    7406:	5f 90       	pop	r5
    7408:	4f 90       	pop	r4
    740a:	08 95       	ret

0000740c <peaksearch>:
    740c:	a2 e1       	ldi	r26, 0x12	; 18
    740e:	b0 e0       	ldi	r27, 0x00	; 0
    7410:	eb e0       	ldi	r30, 0x0B	; 11
    7412:	fa e3       	ldi	r31, 0x3A	; 58

static unsigned int peaksearch(unsigned int uu[], unsigned int *qptr)
// searches uu[256] for peaks, using averaging over dist samples 
// writes measured Q *10 into *qptr if non-NULL
// returns measured period, with 6 bits of fraction, or 256*64 if no resonance found
{  
    7414:	12 c4       	rjmp	.+2084   	; 0x7c3a <__prologue_saves__>
    7416:	2c 01       	movw	r4, r24
    7418:	7c 83       	std	Y+4, r23	; 0x04
    741a:	6b 83       	std	Y+3, r22	; 0x03
    741c:	dd 24       	eor	r13, r13
   unsigned int mean_per;		// average period; the (ipk>>2) provides for rounding
   unsigned int last_per;		// length of last period with 6 bits of fraction
   unsigned int sum_ab;
   unsigned int rr;
   
   dist = 1;		// begin peak search with dist=1
    741e:	d3 94       	inc	r13
    7420:	2d 2c       	mov	r2, r13
 #define MinPK 1
   sawzero = 0;		// flag: did we allready encounter a growing signal?
#endif
   prevdelta=1;
   mean_per = 256<<6;	// set period illegal
   for (ii=0;ii<255-dist;ii++) 
    7422:	31 2c       	mov	r3, r1
    7424:	83 e0       	ldi	r24, 0x03	; 3

#if PeakSearchMethod == 1
         if (ipk != 0)
#endif
         {
            if (sum_ab < (3*dist)) break;  // stop if peak not significantly high
    7426:	d8 9e       	mul	r13, r24
    7428:	a0 01       	movw	r20, r0
    742a:	11 24       	eor	r1, r1
    742c:	5c 87       	std	Y+12, r21	; 0x0c
    742e:	4b 87       	std	Y+11, r20	; 0x0b
    7430:	f1 01       	movw	r30, r2
#if PeakSearchMethod == 1
            if (ipk==1)
#else
            if (ii < (dist*4)) goto illegal_peak;
    7432:	ee 0f       	add	r30, r30
    7434:	ff 1f       	adc	r31, r31
    7436:	ee 0f       	add	r30, r30
    7438:	ff 1f       	adc	r31, r31
    743a:	fe 87       	std	Y+14, r31	; 0x0e
    743c:	ed 87       	std	Y+13, r30	; 0x0d
    743e:	81 2c       	mov	r8, r1
#else
 #define MinPK 1
   sawzero = 0;		// flag: did we allready encounter a growing signal?
#endif
   prevdelta=1;
   mean_per = 256<<6;	// set period illegal
    7440:	30 e4       	ldi	r19, 0x40	; 64
    7442:	93 2e       	mov	r9, r19
    7444:	50 e0       	ldi	r21, 0x00	; 0
#if PeakSearchMethod == 1
 #define MinPK 2
   sawzero=1;                // flag: did we already encounter a zero?
#else
 #define MinPK 1
   sawzero = 0;		// flag: did we allready encounter a growing signal?
    7446:	61 2c       	mov	r6, r1
   ipk=0;    // peak counter
   firstpeak_sum=0;      // height of first peak
   prevpeak_sum=0;       // height of previous peak
   sumpeak=0;        // sum of peaks
   firstpeak_x=0;     // time of first peak, with 6 bits of fraction
   prevpeak_x=0;      // time of previous peak, with 6 bits of fraction
    7448:	71 2c       	mov	r7, r1
    744a:	18 86       	std	Y+8, r1	; 0x08
   bb = 0;
   ipk=0;    // peak counter
   firstpeak_sum=0;      // height of first peak
   prevpeak_sum=0;       // height of previous peak
   sumpeak=0;        // sum of peaks
   firstpeak_x=0;     // time of first peak, with 6 bits of fraction
    744c:	1f 82       	std	Y+7, r1	; 0x07
    744e:	a1 2c       	mov	r10, r1
   aa = 0;
   bb = 0;
   ipk=0;    // peak counter
   firstpeak_sum=0;      // height of first peak
   prevpeak_sum=0;       // height of previous peak
   sumpeak=0;        // sum of peaks
    7450:	b1 2c       	mov	r11, r1
    7452:	1a 82       	std	Y+2, r1	; 0x02
repeat:
   aa = 0;
   bb = 0;
   ipk=0;    // peak counter
   firstpeak_sum=0;      // height of first peak
   prevpeak_sum=0;       // height of previous peak
    7454:	19 82       	std	Y+1, r1	; 0x01
    7456:	1e 82       	std	Y+6, r1	; 0x06

repeat:
   aa = 0;
   bb = 0;
   ipk=0;    // peak counter
   firstpeak_sum=0;      // height of first peak
    7458:	1d 82       	std	Y+5, r1	; 0x05
    745a:	40 e0       	ldi	r20, 0x00	; 0
   dist = 1;		// begin peak search with dist=1

repeat:
   aa = 0;
   bb = 0;
   ipk=0;    // peak counter
    745c:	c1 2c       	mov	r12, r1
 #define MinPK 1
   sawzero = 0;		// flag: did we allready encounter a growing signal?
#endif
   prevdelta=1;
   mean_per = 256<<6;	// set period illegal
   for (ii=0;ii<255-dist;ii++) 
    745e:	e0 e0       	ldi	r30, 0x00	; 0
   
   dist = 1;		// begin peak search with dist=1

repeat:
   aa = 0;
   bb = 0;
    7460:	f0 e0       	ldi	r31, 0x00	; 0
    7462:	20 e0       	ldi	r18, 0x00	; 0
   unsigned int rr;
   
   dist = 1;		// begin peak search with dist=1

repeat:
   aa = 0;
    7464:	30 e0       	ldi	r19, 0x00	; 0
    7466:	61 e0       	ldi	r22, 0x01	; 1
   sawzero=1;                // flag: did we already encounter a zero?
#else
 #define MinPK 1
   sawzero = 0;		// flag: did we allready encounter a growing signal?
#endif
   prevdelta=1;
    7468:	70 e0       	ldi	r23, 0x00	; 0
    746a:	8f ef       	ldi	r24, 0xFF	; 255
   mean_per = 256<<6;	// set period illegal
   for (ii=0;ii<255-dist;ii++) 
    746c:	90 e0       	ldi	r25, 0x00	; 0
    746e:	82 19       	sub	r24, r2
    7470:	93 09       	sbc	r25, r3
    7472:	98 8b       	std	Y+16, r25	; 0x10
    7474:	8f 87       	std	Y+15, r24	; 0x0f
    7476:	0c 2d       	mov	r16, r12
    7478:	10 e0       	ldi	r17, 0x00	; 0
    747a:	8f 85       	ldd	r24, Y+15	; 0x0f
    747c:	98 89       	ldd	r25, Y+16	; 0x10
    747e:	08 17       	cp	r16, r24
    7480:	19 07       	cpc	r17, r25
    7482:	0c f0       	brlt	.+2      	; 0x7486 <peaksearch+0x7a>
    7484:	5e c0       	rjmp	.+188    	; 0x7542 <peaksearch+0x136>
    7486:	d8 01       	movw	r26, r16
   {
      bb += uu[ii+dist];
    7488:	a2 0d       	add	r26, r2
    748a:	b3 1d       	adc	r27, r3
    748c:	aa 0f       	add	r26, r26
    748e:	bb 1f       	adc	r27, r27
    7490:	a4 0d       	add	r26, r4
    7492:	b5 1d       	adc	r27, r5
    7494:	8d 91       	ld	r24, X+
    7496:	9c 91       	ld	r25, X
    7498:	e8 0f       	add	r30, r24
    749a:	f9 1f       	adc	r31, r25
    749c:	d8 01       	movw	r26, r16
      aa += uu[ii];
    749e:	aa 0f       	add	r26, r26
    74a0:	bb 1f       	adc	r27, r27
    74a2:	a4 0d       	add	r26, r4
    74a4:	b5 1d       	adc	r27, r5
    74a6:	8d 91       	ld	r24, X+
    74a8:	9c 91       	ld	r25, X
    74aa:	28 0f       	add	r18, r24
    74ac:	39 1f       	adc	r19, r25
    74ae:	cd 14       	cp	r12, r13
      if (ii < dist) continue;
    74b0:	08 f4       	brcc	.+2      	; 0x74b4 <peaksearch+0xa8>
    74b2:	8d c0       	rjmp	.+282    	; 0x75ce <peaksearch+0x1c2>
    74b4:	d8 01       	movw	r26, r16
      aa -= uu[ii-dist];
    74b6:	a2 19       	sub	r26, r2
    74b8:	b3 09       	sbc	r27, r3
    74ba:	aa 0f       	add	r26, r26
    74bc:	bb 1f       	adc	r27, r27
    74be:	a4 0d       	add	r26, r4
    74c0:	b5 1d       	adc	r27, r5
    74c2:	0d 90       	ld	r0, X+
    74c4:	bc 91       	ld	r27, X
    74c6:	a0 2d       	mov	r26, r0
    74c8:	2a 1b       	sub	r18, r26
    74ca:	3b 0b       	sbc	r19, r27
    74cc:	e8 1b       	sub	r30, r24
      bb -= uu[ii];
    74ce:	f9 0b       	sbc	r31, r25
    74d0:	7f 01       	movw	r14, r30
#ifdef Special_dist1
      if (dist > 1) {
#endif
        sum_ab = aa + bb;
    74d2:	e2 0e       	add	r14, r18
    74d4:	f3 1e       	adc	r15, r19
    74d6:	c9 01       	movw	r24, r18
        delta = aa - bb;
    74d8:	8e 1b       	sub	r24, r30
    74da:	9f 0b       	sbc	r25, r31
    74dc:	89 87       	std	Y+9, r24	; 0x09
    74de:	9a 87       	std	Y+10, r25	; 0x0a
    74e0:	d7 01       	movw	r26, r14
      // the detection of zero is replaced by  detection of rising  (kubi)
#if PeakSearchMethod == 1
        if (((int)(sum_ab/32)+delta) < 0)
#else
        if (((int)(sum_ab/4)+delta) < 0)
    74e2:	b6 95       	lsr	r27
    74e4:	a7 95       	ror	r26
    74e6:	b6 95       	lsr	r27
    74e8:	a7 95       	ror	r26
    74ea:	a8 0f       	add	r26, r24
    74ec:	b9 1f       	adc	r27, r25
    74ee:	b7 fd       	sbrc	r27, 7
    74f0:	9e c0       	rjmp	.+316    	; 0x762e <peaksearch+0x222>
    74f2:	e2 17       	cp	r30, r18
        delta =  uu[ii-dist] - bb;
        sawzero = (aa > uu[ii-dist]);
      }
#endif

      if ((bb < aa) && (sawzero == 1)) {
    74f4:	f3 07       	cpc	r31, r19
    74f6:	08 f0       	brcs	.+2      	; 0x74fa <peaksearch+0xee>
    74f8:	72 c0       	rjmp	.+228    	; 0x75de <peaksearch+0x1d2>
    74fa:	51 30       	cpi	r21, 0x01	; 1
    74fc:	09 f0       	breq	.+2      	; 0x7500 <peaksearch+0xf4>
    74fe:	6f c0       	rjmp	.+222    	; 0x75de <peaksearch+0x1d2>
    7500:	d8 01       	movw	r26, r16
         // found (local) maximum
         xx = (ii<<6);
    7502:	56 e0       	ldi	r21, 0x06	; 6
    7504:	aa 0f       	add	r26, r26
    7506:	bb 1f       	adc	r27, r27
    7508:	5a 95       	dec	r21
    750a:	e1 f7       	brne	.-8      	; 0x7504 <peaksearch+0xf8>
    750c:	ba 8b       	std	Y+18, r27	; 0x12
    750e:	a9 8b       	std	Y+17, r26	; 0x11
    7510:	dc 01       	movw	r26, r24
       // (delta - prevdelta) is same as ((2*uu[ii]) - uu[ii-dist] - uu[ii+dist])
       // For a correct size of delta the uu[ii-dist] and uu[ii+dist] are low against 2*uu[ii].
       // By dividing with 2*uu[ii] alone, the interpolation can be used with dist=1.
         uint16_t kdiv;
//         kdiv = 2 * uu[ii];
         kdiv = delta - prevdelta;
    7512:	a6 1b       	sub	r26, r22
    7514:	b7 0b       	sbc	r27, r23
    7516:	bd 01       	movw	r22, r26
    7518:	a8 17       	cp	r26, r24
#if PeakSearchMethod == 1
         if (kdiv >= delta) xx -= (((long)delta * 64)+ 32) / kdiv;
#else
         if (kdiv >= delta) xx -= ((delta * 64)+ 32) / kdiv;
    751a:	b9 07       	cpc	r27, r25
    751c:	68 f0       	brcs	.+26     	; 0x7538 <peaksearch+0x12c>
    751e:	a6 e0       	ldi	r26, 0x06	; 6
    7520:	88 0f       	add	r24, r24
    7522:	99 1f       	adc	r25, r25
    7524:	aa 95       	dec	r26
    7526:	e1 f7       	brne	.-8      	; 0x7520 <peaksearch+0x114>
    7528:	80 96       	adiw	r24, 0x20	; 32
    752a:	72 d2       	rcall	.+1252   	; 0x7a10 <__udivmodhi4>
    752c:	89 89       	ldd	r24, Y+17	; 0x11
    752e:	9a 89       	ldd	r25, Y+18	; 0x12
    7530:	86 1b       	sub	r24, r22
    7532:	97 0b       	sbc	r25, r23
    7534:	9a 8b       	std	Y+18, r25	; 0x12
    7536:	89 8b       	std	Y+17, r24	; 0x11
    7538:	ab 85       	ldd	r26, Y+11	; 0x0b
    753a:	bc 85       	ldd	r27, Y+12	; 0x0c

#if PeakSearchMethod == 1
         if (ipk != 0)
#endif
         {
            if (sum_ab < (3*dist)) break;  // stop if peak not significantly high
    753c:	ea 16       	cp	r14, r26
    753e:	fb 06       	cpc	r15, r27
    7540:	30 f4       	brcc	.+12     	; 0x754e <peaksearch+0x142>
    7542:	eb 81       	ldd	r30, Y+3	; 0x03
    7544:	fc 81       	ldd	r31, Y+4	; 0x04
      prevdelta = delta;
   } /* end for ii */

   /* total data are analysed, ipk is now the count of peaks + 1 */
//   if (firstzero>(per>>6)) return 0;     // sanity check: first zero should be within first period
   if (qptr) {
    7546:	ef 2b       	or	r30, r31
    7548:	09 f0       	breq	.+2      	; 0x754c <peaksearch+0x140>
    754a:	4d c0       	rjmp	.+154    	; 0x75e6 <peaksearch+0x1da>
    754c:	7a c0       	rjmp	.+244    	; 0x7642 <peaksearch+0x236>
    754e:	8d 85       	ldd	r24, Y+13	; 0x0d
    7550:	9e 85       	ldd	r25, Y+14	; 0x0e
         {
            if (sum_ab < (3*dist)) break;  // stop if peak not significantly high
#if PeakSearchMethod == 1
            if (ipk==1)
#else
            if (ii < (dist*4)) goto illegal_peak;
    7552:	08 17       	cp	r16, r24
    7554:	19 07       	cpc	r17, r25
    7556:	c4 f1       	brlt	.+112    	; 0x75c8 <peaksearch+0x1bc>
    7558:	a9 89       	ldd	r26, Y+17	; 0x11
    755a:	ba 89       	ldd	r27, Y+18	; 0x12
            if (ipk==0)
#endif
            {
               firstpeak_sum = sum_ab;		// amplitude sum of first peak
               firstpeak_x = xx;		// position of first peak
    755c:	44 23       	and	r20, r20
    755e:	b1 f0       	breq	.+44     	; 0x758c <peaksearch+0x180>
            if (sum_ab < (3*dist)) break;  // stop if peak not significantly high
#if PeakSearchMethod == 1
            if (ipk==1)
#else
            if (ii < (dist*4)) goto illegal_peak;
            if (ipk==0)
    7560:	a6 19       	sub	r26, r6
    7562:	b7 09       	sbc	r27, r7
#endif
            {
               firstpeak_sum = sum_ab;		// amplitude sum of first peak
               firstpeak_x = xx;		// position of first peak
            } else {  // ipk > 1
               last_per = xx - prevpeak_x;	// length of last period
    7564:	43 30       	cpi	r20, 0x03	; 3
    7566:	60 f0       	brcs	.+24     	; 0x7580 <peaksearch+0x174>
               if ((ipk > (MinPK+1)) && (last_per > (mean_per + mean_per/2 + 32))) break;  // gap between peaks
    7568:	c4 01       	movw	r24, r8
    756a:	96 95       	lsr	r25
    756c:	87 95       	ror	r24
    756e:	b4 01       	movw	r22, r8
    7570:	60 5e       	subi	r22, 0xE0	; 224
    7572:	7f 4f       	sbci	r23, 0xFF	; 255
    7574:	86 0f       	add	r24, r22
    7576:	97 1f       	adc	r25, r23
    7578:	8a 17       	cp	r24, r26
    757a:	9b 07       	cpc	r25, r27
    757c:	08 f4       	brcc	.+2      	; 0x7580 <peaksearch+0x174>
    757e:	5d c0       	rjmp	.+186    	; 0x763a <peaksearch+0x22e>
    7580:	db 16       	cp	r13, r27
    7582:	40 f4       	brcc	.+16     	; 0x7594 <peaksearch+0x188>
            // sanity check: distance between peaks is expected to be 4*dist samples
               unsigned char smp_per;
               smp_per = last_per>>8;	// period with 4 sample units
               if (smp_per > dist) {		// dist is lower than 1/4 period without rounding
    7584:	dd 24       	eor	r13, r13
    7586:	d3 94       	inc	r13
                  dist = smp_per+1;		// set dist to the found period / 4, rounded up
    7588:	db 0e       	add	r13, r27
    758a:	4a cf       	rjmp	.-364    	; 0x7420 <peaksearch+0x14>
    758c:	b8 87       	std	Y+8, r27	; 0x08
                  goto repeat;
    758e:	af 83       	std	Y+7, r26	; 0x07
            if (ii < (dist*4)) goto illegal_peak;
            if (ipk==0)
#endif
            {
               firstpeak_sum = sum_ab;		// amplitude sum of first peak
               firstpeak_x = xx;		// position of first peak
    7590:	fe 82       	std	Y+6, r15	; 0x06
    7592:	ed 82       	std	Y+5, r14	; 0x05
    7594:	ae 0c       	add	r10, r14
    7596:	bf 1c       	adc	r11, r15
               if (smp_per > dist) {		// dist is lower than 1/4 period without rounding
                  dist = smp_per+1;		// set dist to the found period / 4, rounded up
                  goto repeat;
               }
            }  /* ipk > 1 */
            sumpeak += sum_ab;		// build sum of amplitude
    7598:	4f 5f       	subi	r20, 0xFF	; 255
    759a:	42 30       	cpi	r20, 0x02	; 2
            }
#endif
         }  /* ipk != 0 */
         prevpeak_sum = sum_ab;		// save amplitude of last peak
         prevpeak_x = xx;		// save position of last peak
         ipk++;			// one more peak found
    759c:	d8 f0       	brcs	.+54     	; 0x75d4 <peaksearch+0x1c8>
         if (ipk > MinPK) {
    759e:	64 2f       	mov	r22, r20
    75a0:	70 e0       	ldi	r23, 0x00	; 0
            mean_per = (prevpeak_x - firstpeak_x + ((ipk-MinPK)>>1)) / (ipk-MinPK);  // average period with rounding
    75a2:	61 50       	subi	r22, 0x01	; 1
    75a4:	71 09       	sbc	r23, r1
    75a6:	cb 01       	movw	r24, r22
    75a8:	95 95       	asr	r25
    75aa:	87 95       	ror	r24
    75ac:	a9 89       	ldd	r26, Y+17	; 0x11
    75ae:	ba 89       	ldd	r27, Y+18	; 0x12
    75b0:	8a 0f       	add	r24, r26
    75b2:	9b 1f       	adc	r25, r27
    75b4:	af 81       	ldd	r26, Y+7	; 0x07
    75b6:	b8 85       	ldd	r27, Y+8	; 0x08
    75b8:	8a 1b       	sub	r24, r26
    75ba:	9b 0b       	sbc	r25, r27
    75bc:	29 d2       	rcall	.+1106   	; 0x7a10 <__udivmodhi4>
    75be:	4b 01       	movw	r8, r22
    75c0:	69 88       	ldd	r6, Y+17	; 0x11
    75c2:	7a 88       	ldd	r7, Y+18	; 0x12
    75c4:	fa 82       	std	Y+2, r15	; 0x02
               wait_about500ms();
            }
#endif
         }  /* ipk != 0 */
         prevpeak_sum = sum_ab;		// save amplitude of last peak
         prevpeak_x = xx;		// save position of last peak
    75c6:	e9 82       	std	Y+1, r14	; 0x01
    75c8:	45 31       	cpi	r20, 0x15	; 21
         ipk++;			// one more peak found
         if (ipk > MinPK) {
            mean_per = (prevpeak_x - firstpeak_x + ((ipk-MinPK)>>1)) / (ipk-MinPK);  // average period with rounding
    75ca:	40 f0       	brcs	.+16     	; 0x75dc <peaksearch+0x1d0>
    75cc:	36 c0       	rjmp	.+108    	; 0x763a <peaksearch+0x22e>
         }
#if PeakSearchMethod != 1
illegal_peak:
#endif
         sawzero=0;
         if (ipk > Maxpk) break;	// count of requested peaks is found
    75ce:	69 87       	std	Y+9, r22	; 0x09
    75d0:	7a 87       	std	Y+10, r23	; 0x0a
    75d2:	05 c0       	rjmp	.+10     	; 0x75de <peaksearch+0x1d2>
    75d4:	69 88       	ldd	r6, Y+17	; 0x11
    75d6:	7a 88       	ldd	r7, Y+18	; 0x12
    75d8:	fa 82       	std	Y+2, r15	; 0x02
               wait_about500ms();
            }
#endif
         }  /* ipk != 0 */
         prevpeak_sum = sum_ab;		// save amplitude of last peak
         prevpeak_x = xx;		// save position of last peak
    75da:	e9 82       	std	Y+1, r14	; 0x01
    75dc:	50 e0       	ldi	r21, 0x00	; 0
    75de:	c3 94       	inc	r12
    75e0:	69 85       	ldd	r22, Y+9	; 0x09
            mean_per = (prevpeak_x - firstpeak_x + ((ipk-MinPK)>>1)) / (ipk-MinPK);  // average period with rounding
         }
#if PeakSearchMethod != 1
illegal_peak:
#endif
         sawzero=0;
    75e2:	7a 85       	ldd	r23, Y+10	; 0x0a
 #define MinPK 1
   sawzero = 0;		// flag: did we allready encounter a growing signal?
#endif
   prevdelta=1;
   mean_per = 256<<6;	// set period illegal
   for (ii=0;ii<255-dist;ii++) 
    75e4:	48 cf       	rjmp	.-368    	; 0x7476 <peaksearch+0x6a>
    75e6:	42 30       	cpi	r20, 0x02	; 2
    75e8:	d8 f0       	brcs	.+54     	; 0x7620 <peaksearch+0x214>
    75ea:	95 01       	movw	r18, r10
      // calculate r = ratio of amplitude between two consecutive peaks (*1000 for scaling)
      // but we use all peaks seen in this calculation for better accuracy
      // r is weighted average of peak2/peak1, peak3/peak2 and so on, weighed by respectively peak1, peak2 and so on
      // this can be calculated as r = (peak2+peak3+...+peak_m)/(peak1+peak2+peak_{m-1})
      rr = 0;
      if (ipk > MinPK) {
    75ec:	ed 81       	ldd	r30, Y+5	; 0x05
    75ee:	fe 81       	ldd	r31, Y+6	; 0x06
         unsigned int sumdiff = sumpeak - prevpeak_sum;
         rr = ((unsigned long)(sumpeak-firstpeak_sum)*1000)/sumdiff;
    75f0:	2e 1b       	sub	r18, r30
    75f2:	3f 0b       	sbc	r19, r31
    75f4:	a8 ee       	ldi	r26, 0xE8	; 232
    75f6:	b3 e0       	ldi	r27, 0x03	; 3
    75f8:	76 d2       	rcall	.+1260   	; 0x7ae6 <__umulhisi3>
    75fa:	95 01       	movw	r18, r10
    75fc:	49 81       	ldd	r20, Y+1	; 0x01
    75fe:	5a 81       	ldd	r21, Y+2	; 0x02
    7600:	24 1b       	sub	r18, r20
      // but we use all peaks seen in this calculation for better accuracy
      // r is weighted average of peak2/peak1, peak3/peak2 and so on, weighed by respectively peak1, peak2 and so on
      // this can be calculated as r = (peak2+peak3+...+peak_m)/(peak1+peak2+peak_{m-1})
      rr = 0;
      if (ipk > MinPK) {
         unsigned int sumdiff = sumpeak - prevpeak_sum;
    7602:	35 0b       	sbc	r19, r21
    7604:	40 e0       	ldi	r20, 0x00	; 0
    7606:	50 e0       	ldi	r21, 0x00	; 0
    7608:	2a d2       	rcall	.+1108   	; 0x7a5e <__udivmodsi4>
    760a:	88 ee       	ldi	r24, 0xE8	; 232
         rr = ((unsigned long)(sumpeak-firstpeak_sum)*1000)/sumdiff;
    760c:	93 e0       	ldi	r25, 0x03	; 3
    760e:	82 1b       	sub	r24, r18
    7610:	93 0b       	sbc	r25, r19
    7612:	0e 94 9d 0a 	call	0x153a	; 0x153a <get_log>
         // rr = exp(-pi/Q)  so Q = -pi/(ln(rr))
         // for r almost 1 (i.e., high Q), this is approx. pi/(1-rr)
         rr = 31416u/get_log(1000-rr);
    7616:	bc 01       	movw	r22, r24
    7618:	88 eb       	ldi	r24, 0xB8	; 184
    761a:	9a e7       	ldi	r25, 0x7A	; 122
    761c:	f9 d1       	rcall	.+1010   	; 0x7a10 <__udivmodhi4>
    761e:	02 c0       	rjmp	.+4      	; 0x7624 <peaksearch+0x218>
    7620:	60 e0       	ldi	r22, 0x00	; 0
    7622:	70 e0       	ldi	r23, 0x00	; 0
    7624:	ab 81       	ldd	r26, Y+3	; 0x03
    7626:	bc 81       	ldd	r27, Y+4	; 0x04
    7628:	6d 93       	st	X+, r22
    762a:	7c 93       	st	X, r23
   if (qptr) {
      // calculate r = ratio of amplitude between two consecutive peaks (*1000 for scaling)
      // but we use all peaks seen in this calculation for better accuracy
      // r is weighted average of peak2/peak1, peak3/peak2 and so on, weighed by respectively peak1, peak2 and so on
      // this can be calculated as r = (peak2+peak3+...+peak_m)/(peak1+peak2+peak_{m-1})
      rr = 0;
    762c:	0a c0       	rjmp	.+20     	; 0x7642 <peaksearch+0x236>
    762e:	e2 17       	cp	r30, r18
         // rr = exp(-pi/Q)  so Q = -pi/(ln(rr))
         // for r almost 1 (i.e., high Q), this is approx. pi/(1-rr)
         rr = 31416u/get_log(1000-rr);
         // note scaling: the get_log is *1000, and we now compute Q in multiples of .1, hence the numerator being 10000*pi
      }
      *qptr = (unsigned int)rr;
    7630:	f3 07       	cpc	r31, r19
    7632:	08 f4       	brcc	.+2      	; 0x7636 <peaksearch+0x22a>
    7634:	65 cf       	rjmp	.-310    	; 0x7500 <peaksearch+0xf4>
    7636:	51 e0       	ldi	r21, 0x01	; 1
    7638:	d2 cf       	rjmp	.-92     	; 0x75de <peaksearch+0x1d2>
        delta =  uu[ii-dist] - bb;
        sawzero = (aa > uu[ii-dist]);
      }
#endif

      if ((bb < aa) && (sawzero == 1)) {
    763a:	eb 81       	ldd	r30, Y+3	; 0x03
    763c:	fc 81       	ldd	r31, Y+4	; 0x04
    763e:	ef 2b       	or	r30, r31
    7640:	a1 f6       	brne	.-88     	; 0x75ea <peaksearch+0x1de>
        if (((int)(sum_ab/32)+delta) < 0)
#else
        if (((int)(sum_ab/4)+delta) < 0)
#endif
        {
           sawzero=1;
    7642:	c4 01       	movw	r24, r8
    7644:	62 96       	adiw	r28, 0x12	; 18
      prevdelta = delta;
   } /* end for ii */

   /* total data are analysed, ipk is now the count of peaks + 1 */
//   if (firstzero>(per>>6)) return 0;     // sanity check: first zero should be within first period
   if (qptr) {
    7646:	e2 e1       	ldi	r30, 0x12	; 18
    7648:	14 c3       	rjmp	.+1576   	; 0x7c72 <__epilogue_restores__>

0000764a <sampling_lc>:
    764a:	a6 e2       	ldi	r26, 0x26	; 38
    764c:	b2 e0       	ldi	r27, 0x02	; 2
   DisplayValue(ipk,0,' ',3);
   DisplayValue(((unsigned long)mean_per*25)/16,-2,' ',6);
   DisplayValue(dist,0,' ',5);
#endif
   return mean_per;
}  /* end of peaksearch */
    764e:	ea e2       	ldi	r30, 0x2A	; 42
    7650:	fb e3       	ldi	r31, 0x3B	; 59
    7652:	f3 c2       	rjmp	.+1510   	; 0x7c3a <__prologue_saves__>
    7654:	f8 2e       	mov	r15, r24
    7656:	06 2f       	mov	r16, r22




void sampling_lc(byte LowPin, byte HighPin)
{
    7658:	81 e8       	ldi	r24, 0x81	; 129
   uint16_t lc_cpar;    // value of parallel capacitor used for calculating inductance, in pF
   uint16_t period;
   lc_cpar=eeprom_read_word((uint16_t *)&lc_cpar_ee);
    765a:	93 e0       	ldi	r25, 0x03	; 3
    765c:	89 d3       	rcall	.+1810   	; 0x7d70 <eeprom_read_word>
    765e:	4c 01       	movw	r8, r24
    7660:	e0 2f       	mov	r30, r16
    7662:	f0 e0       	ldi	r31, 0x00	; 0

//###################################################################################################
 // new version of the code, with pulses via the ADC port, i.e., without 680 ohm series resistor

   byte HiPinR_L, LoADC;
   HiPinR_L = pinmaskRL(HighPin);
    7664:	eb 5a       	subi	r30, 0xAB	; 171
    7666:	fd 4f       	sbci	r31, 0xFD	; 253
    7668:	14 91       	lpm	r17, Z
    766a:	ef 2d       	mov	r30, r15
    766c:	f0 e0       	ldi	r31, 0x00	; 0
   LoADC = pinmaskADC(LowPin);
    766e:	e8 5a       	subi	r30, 0xA8	; 168
    7670:	fd 4f       	sbci	r31, 0xFD	; 253
    7672:	e4 91       	lpm	r30, Z
    7674:	10 92 b2 01 	sts	0x01B2, r1

   lc_fx=0;
    7678:	10 92 b3 01 	sts	0x01B3, r1
    767c:	10 92 b4 01 	sts	0x01B4, r1
    7680:	10 92 b5 01 	sts	0x01B5, r1
    7684:	10 92 b9 01 	sts	0x01B9, r1
   lc_qx=0;
    7688:	10 92 b8 01 	sts	0x01B8, r1
    768c:	10 92 ba 01 	sts	0x01BA, r1
   lc_lx=0;
    7690:	10 92 bb 01 	sts	0x01BB, r1
    7694:	10 92 bc 01 	sts	0x01BC, r1
    7698:	10 92 bd 01 	sts	0x01BD, r1
    769c:	80 91 13 01 	lds	r24, 0x0113
   if ((PartFound != PART_RESISTOR) || (inductor_lpre > 0)) {
    76a0:	81 30       	cpi	r24, 0x01	; 1
    76a2:	09 f0       	breq	.+2      	; 0x76a6 <sampling_lc+0x5c>
    76a4:	50 c1       	rjmp	.+672    	; 0x7946 <sampling_lc+0x2fc>
    76a6:	80 91 19 01 	lds	r24, 0x0119
    76aa:	18 16       	cp	r1, r24
    76ac:	0c f4       	brge	.+2      	; 0x76b0 <sampling_lc+0x66>
    76ae:	4b c1       	rjmp	.+662    	; 0x7946 <sampling_lc+0x2fc>
    76b0:	88 e0       	ldi	r24, 0x08	; 8
    76b2:	88 b9       	out	0x08, r24	; 8
   byte i=0;

   unsigned int uu[255];


   ADC_PORT = TXD_VAL;
    76b4:	e8 60       	ori	r30, 0x08	; 8
    76b6:	e7 b9       	out	0x07, r30	; 7
//###################################################################################################
 // new version of the code, with pulses via the ADC port, i.e., without 680 ohm series resistor

   byte HiPinR_L, LoADC;
   HiPinR_L = pinmaskRL(HighPin);
   LoADC = pinmaskADC(LowPin);
    76b8:	0e 94 8e 09 	call	0x131c	; 0x131c <wait100us>
   unsigned int uu[255];


   ADC_PORT = TXD_VAL;
   ADC_DDR = LoADC;			// switch Low-Pin to output (GND)
   wait100us();
    76bc:	00 6c       	ori	r16, 0xC0	; 192
    76be:	b0 2e       	mov	r11, r16

   // first, acquire data at maximum speed:
   ADMUX=HighPin|ADref1V1;   // use built-in reference, about 1.1 V;
    76c0:	00 93 7c 00 	sts	0x007C, r16
    76c4:	0e 94 8e 09 	call	0x131c	; 0x131c <wait100us>
                             // that's enough, because peaks more than about 0.6 V are not of interest
                             // (because the negative peak would be chopped by the protection diodes)
   wait_aref_stabilize();                               
    76c8:	c1 2e       	mov	r12, r17
    76ca:	e1 2c       	mov	r14, r1

   // run a first measurement, using the narrow full-current impulse
   samplingADC((1<<smplADC_span)|(1<<smplADC_direct), uu, 255, HiPinR_L, 0, 0, HiPinR_L);
    76cc:	00 e0       	ldi	r16, 0x00	; 0
    76ce:	21 2f       	mov	r18, r17
    76d0:	4f ef       	ldi	r20, 0xFF	; 255
    76d2:	be 01       	movw	r22, r28
    76d4:	6f 5f       	subi	r22, 0xFF	; 255
    76d6:	7f 4f       	sbci	r23, 0xFF	; 255
    76d8:	80 e1       	ldi	r24, 0x10	; 16
    76da:	91 e0       	ldi	r25, 0x01	; 1
    76dc:	0e 94 3e 00 	call	0x7c	; 0x7c <samplingADC>
    76e0:	8f 2d       	mov	r24, r15
    76e2:	80 6c       	ori	r24, 0xC0	; 192

   // also measure some 20 samples at the "cold side" of the coil, and subtract
   // at highest frequencies, this is useful because the on-chip ADC has an RC lowpass which gives an exponentially decaying "DC" offset
   unsigned int uu0[20];
   ADMUX=LowPin|ADref1V1;   // switch to "cold" side for reference measurement
    76e4:	f8 2e       	mov	r15, r24
    76e6:	80 93 7c 00 	sts	0x007C, r24
    76ea:	21 2f       	mov	r18, r17
    76ec:	44 e1       	ldi	r20, 0x14	; 20
   samplingADC((1<<smplADC_span)|(1<<smplADC_direct), uu0, 20, HiPinR_L, 0, 0, HiPinR_L);
    76ee:	be 01       	movw	r22, r28
    76f0:	61 50       	subi	r22, 0x01	; 1
    76f2:	7e 4f       	sbci	r23, 0xFE	; 254
    76f4:	80 e1       	ldi	r24, 0x10	; 16
    76f6:	91 e0       	ldi	r25, 0x01	; 1
    76f8:	0e 94 3e 00 	call	0x7c	; 0x7c <samplingADC>
    76fc:	fe 01       	movw	r30, r28
    76fe:	31 96       	adiw	r30, 0x01	; 1
    7700:	de 01       	movw	r26, r28
    7702:	a1 50       	subi	r26, 0x01	; 1
    7704:	be 4f       	sbci	r27, 0xFE	; 254
    7706:	ae 01       	movw	r20, r28
    7708:	47 5d       	subi	r20, 0xD7	; 215
    770a:	5f 4f       	sbci	r21, 0xFF	; 255
    770c:	80 81       	ld	r24, Z
    770e:	91 81       	ldd	r25, Z+1	; 0x01
   for (i=0;i<20;i++)
   {
      if (uu[i]>=uu0[i]) uu[i]-=uu0[i];
    7710:	2d 91       	ld	r18, X+
    7712:	3d 91       	ld	r19, X+
    7714:	82 17       	cp	r24, r18
    7716:	93 07       	cpc	r25, r19
    7718:	28 f0       	brcs	.+10     	; 0x7724 <sampling_lc+0xda>
    771a:	82 1b       	sub	r24, r18
    771c:	93 0b       	sbc	r25, r19
    771e:	91 83       	std	Z+1, r25	; 0x01
    7720:	80 83       	st	Z, r24
    7722:	02 c0       	rjmp	.+4      	; 0x7728 <sampling_lc+0xde>
    7724:	11 82       	std	Z+1, r1	; 0x01
    7726:	10 82       	st	Z, r1
      else uu[i]=0;
    7728:	32 96       	adiw	r30, 0x02	; 2
    772a:	e4 17       	cp	r30, r20
    772c:	f5 07       	cpc	r31, r21
   // also measure some 20 samples at the "cold side" of the coil, and subtract
   // at highest frequencies, this is useful because the on-chip ADC has an RC lowpass which gives an exponentially decaying "DC" offset
   unsigned int uu0[20];
   ADMUX=LowPin|ADref1V1;   // switch to "cold" side for reference measurement
   samplingADC((1<<smplADC_span)|(1<<smplADC_direct), uu0, 20, HiPinR_L, 0, 0, HiPinR_L);
   for (i=0;i<20;i++)
    772e:	71 f7       	brne	.-36     	; 0x770c <sampling_lc+0xc2>
    7730:	b0 92 7c 00 	sts	0x007C, r11
   {
      if (uu[i]>=uu0[i]) uu[i]-=uu0[i];
      else uu[i]=0;
   }
   ADMUX=HighPin|ADref1V1;   // back to "hot" side
    7734:	60 e0       	ldi	r22, 0x00	; 0
    7736:	70 e0       	ldi	r23, 0x00	; 0

   byte dist0;         // estimate of duration of 1/4 of a period, used to set averaging interval in peaksearch()
   unsigned shift=0;   // by how many bit positions measured period needs to be shifted due to measuring with span>1

   // check how long until signal reaches 0: that gives us a first guess of 1/4 of the resonance period (because we apply an impulse, so we start at the maximum of the sinewave)
   period = peaksearch(uu,NULL);
    7738:	ce 01       	movw	r24, r28
    773a:	01 96       	adiw	r24, 0x01	; 1
    773c:	67 de       	rcall	.-818    	; 0x740c <peaksearch>
    773e:	9f 5f       	subi	r25, 0xFF	; 255
    7740:	91 31       	cpi	r25, 0x11	; 17
    7742:	48 f0       	brcs	.+18     	; 0x7756 <sampling_lc+0x10c>
   dist0 = 1+(period>>8);    // >>6 because of fraction bits, plus >>2 because dist0 should be about a quarter period, plus +1 to round up
    7744:	90 34       	cpi	r25, 0x40	; 64
         report_buf(uu,6);
 #endif
	
#define samplingADC_direct (1<<smplADC_direct)
     par = (1<<smplADC_span) | samplingADC_direct;
     if (dist0>16) {
    7746:	70 f0       	brcs	.+28     	; 0x7764 <sampling_lc+0x11a>
    7748:	f0 e1       	ldi	r31, 0x10	; 16
      // rather slow resonance: then re-sample with 4 or 16 times larger interval; shift variable serves to take this into account in later calculations
        if (dist0<64) {
    774a:	af 2e       	mov	r10, r31
    774c:	ba 2c       	mov	r11, r10
           shift = 2;
           par = (4<<smplADC_span) | samplingADC_direct;
        } else {
           shift = 4;
           par = (16<<smplADC_span) | samplingADC_direct;
    774e:	a4 e0       	ldi	r26, 0x04	; 4
    7750:	6a 2e       	mov	r6, r26
    7752:	71 2c       	mov	r7, r1
      // rather slow resonance: then re-sample with 4 or 16 times larger interval; shift variable serves to take this into account in later calculations
        if (dist0<64) {
           shift = 2;
           par = (4<<smplADC_span) | samplingADC_direct;
        } else {
           shift = 4;
    7754:	0e c0       	rjmp	.+28     	; 0x7772 <sampling_lc+0x128>
    7756:	e0 e1       	ldi	r30, 0x10	; 16
    7758:	ae 2e       	mov	r10, r30
    775a:	bb 24       	eor	r11, r11
	 DisplayValue(((unsigned long)period*10)/64,-1,' ',5);
         report_buf(uu,6);
 #endif
	
#define samplingADC_direct (1<<smplADC_direct)
     par = (1<<smplADC_span) | samplingADC_direct;
    775c:	b3 94       	inc	r11
    775e:	61 2c       	mov	r6, r1
    7760:	71 2c       	mov	r7, r1
    7762:	07 c0       	rjmp	.+14     	; 0x7772 <sampling_lc+0x128>
   ADMUX=HighPin|ADref1V1;   // back to "hot" side

//   uart_newline(); for (i=0;i<255;i++) { myuart_putc('A'); myuart_putc(' '); uart_int(uu[i]); uart_int(uu0[i]); uart_newline(); wdt_reset(); }

   byte dist0;         // estimate of duration of 1/4 of a period, used to set averaging interval in peaksearch()
   unsigned shift=0;   // by how many bit positions measured period needs to be shifted due to measuring with span>1
    7764:	60 e1       	ldi	r22, 0x10	; 16
    7766:	a6 2e       	mov	r10, r22
    7768:	64 e0       	ldi	r22, 0x04	; 4
     par = (1<<smplADC_span) | samplingADC_direct;
     if (dist0>16) {
      // rather slow resonance: then re-sample with 4 or 16 times larger interval; shift variable serves to take this into account in later calculations
        if (dist0<64) {
           shift = 2;
           par = (4<<smplADC_span) | samplingADC_direct;
    776a:	b6 2e       	mov	r11, r22
    776c:	72 e0       	ldi	r23, 0x02	; 2
    776e:	67 2e       	mov	r6, r23
    7770:	71 2c       	mov	r7, r1
#define samplingADC_direct (1<<smplADC_direct)
     par = (1<<smplADC_span) | samplingADC_direct;
     if (dist0>16) {
      // rather slow resonance: then re-sample with 4 or 16 times larger interval; shift variable serves to take this into account in later calculations
        if (dist0<64) {
           shift = 2;
    7772:	58 e0       	ldi	r21, 0x08	; 8
    7774:	d5 2e       	mov	r13, r21
    7776:	a8 95       	wdr
           par = (4<<smplADC_span) | samplingADC_direct;
        } else {
           shift = 4;
    7778:	c1 2e       	mov	r12, r17
    777a:	e1 2c       	mov	r14, r1
        }
     }

   // we take the average of 8 measurements, to increase S/N, except when using span>1, since then the sampling takes annoyingly long and S/N usually is better anyway at these lower frequencies
     for (i=0;i<8;i++) {
        wdt_reset();
    777c:	00 e0       	ldi	r16, 0x00	; 0
        samplingADC(par, uu, 255, HiPinR_L, 0, 0, HiPinR_L);
    777e:	21 2f       	mov	r18, r17
    7780:	4f ef       	ldi	r20, 0xFF	; 255
    7782:	be 01       	movw	r22, r28
    7784:	6f 5f       	subi	r22, 0xFF	; 255
    7786:	7f 4f       	sbci	r23, 0xFF	; 255
    7788:	c5 01       	movw	r24, r10
    778a:	0e 94 3e 00 	call	0x7c	; 0x7c <samplingADC>
    778e:	61 14       	cp	r6, r1
    7790:	71 04       	cpc	r7, r1
    7792:	79 f0       	breq	.+30     	; 0x77b2 <sampling_lc+0x168>
//        if (par > (2<<smplADC_span)) goto noavg;
        if (shift > 0) goto noavg;
    7794:	68 eb       	ldi	r22, 0xB8	; 184
    7796:	71 e0       	ldi	r23, 0x01	; 1
    7798:	ce 01       	movw	r24, r28
    while (i--) uu[i]>>=3;   // divide all samples by 8
//   }


noavg:;
   period = peaksearch(uu,&lc_qx);
    779a:	01 96       	adiw	r24, 0x01	; 1
    779c:	37 de       	rcall	.-914    	; 0x740c <peaksearch>
    779e:	5c 01       	movw	r10, r24
    77a0:	81 ec       	ldi	r24, 0xC1	; 193
    77a2:	a8 16       	cp	r10, r24
    77a4:	8f e3       	ldi	r24, 0x3F	; 63
    77a6:	b8 06       	cpc	r11, r24
   if (period > (255<<6)) period = 0;		// set implausible period to zero
    77a8:	08 f4       	brcc	.+2      	; 0x77ac <sampling_lc+0x162>
    77aa:	5a c0       	rjmp	.+180    	; 0x7860 <sampling_lc+0x216>
    77ac:	a1 2c       	mov	r10, r1
    77ae:	b1 2c       	mov	r11, r1
    77b0:	57 c0       	rjmp	.+174    	; 0x7860 <sampling_lc+0x216>
    77b2:	68 94       	set
    77b4:	a6 f8       	bld	r10, 6
    77b6:	da 94       	dec	r13
    77b8:	d1 10       	cpse	r13, r1
     for (i=0;i<8;i++) {
        wdt_reset();
        samplingADC(par, uu, 255, HiPinR_L, 0, 0, HiPinR_L);
//        if (par > (2<<smplADC_span)) goto noavg;
        if (shift > 0) goto noavg;
        par |= samplingADC_cumul;
    77ba:	dd cf       	rjmp	.-70     	; 0x7776 <sampling_lc+0x12c>
    77bc:	a1 14       	cp	r10, r1
    77be:	84 e0       	ldi	r24, 0x04	; 4
           par = (16<<smplADC_span) | samplingADC_direct;
        }
     }

   // we take the average of 8 measurements, to increase S/N, except when using span>1, since then the sampling takes annoyingly long and S/N usually is better anyway at these lower frequencies
     for (i=0;i<8;i++) {
    77c0:	b8 06       	cpc	r11, r24
    77c2:	10 f0       	brcs	.+4      	; 0x77c8 <sampling_lc+0x17e>
        samplingADC(par, uu, 255, HiPinR_L, 0, 0, HiPinR_L);
//        if (par > (2<<smplADC_span)) goto noavg;
        if (shift > 0) goto noavg;
        par |= samplingADC_cumul;
     }
   if ((par >> smplADC_span) < 4) {
    77c4:	8e ef       	ldi	r24, 0xFE	; 254
    77c6:	38 c0       	rjmp	.+112    	; 0x7838 <sampling_lc+0x1ee>
    77c8:	f0 92 7c 00 	sts	0x007C, r15
    77cc:	e8 94       	clt
    77ce:	a6 f8       	bld	r10, 6
    // case of high frequency: subtract reference measurement, and do no scaling down of accumulated amplitudes since they are small in this case
      ADMUX=LowPin|ADref1V1;   // switch to "cold" side for reference measurement
    77d0:	48 e0       	ldi	r20, 0x08	; 8
    77d2:	f4 2e       	mov	r15, r20
      par &= ~samplingADC_cumul;
    77d4:	c1 2e       	mov	r12, r17
    77d6:	e1 2c       	mov	r14, r1
    77d8:	00 e0       	ldi	r16, 0x00	; 0
    77da:	21 2f       	mov	r18, r17
      for (i=0;i<8;i++) {
         samplingADC(par, uu0, 20, HiPinR_L, 0, 0, HiPinR_L);
    77dc:	44 e1       	ldi	r20, 0x14	; 20
    77de:	be 01       	movw	r22, r28
    77e0:	61 50       	subi	r22, 0x01	; 1
    77e2:	7e 4f       	sbci	r23, 0xFE	; 254
    77e4:	c5 01       	movw	r24, r10
    77e6:	0e 94 3e 00 	call	0x7c	; 0x7c <samplingADC>
    77ea:	68 94       	set
    77ec:	a6 f8       	bld	r10, 6
    77ee:	fa 94       	dec	r15
    77f0:	f1 10       	cpse	r15, r1
         par |= samplingADC_cumul;
    77f2:	f0 cf       	rjmp	.-32     	; 0x77d4 <sampling_lc+0x18a>
    77f4:	24 e1       	ldi	r18, 0x14	; 20
    77f6:	21 50       	subi	r18, 0x01	; 1
     }
   if ((par >> smplADC_span) < 4) {
    // case of high frequency: subtract reference measurement, and do no scaling down of accumulated amplitudes since they are small in this case
      ADMUX=LowPin|ADref1V1;   // switch to "cold" side for reference measurement
      par &= ~samplingADC_cumul;
      for (i=0;i<8;i++) {
    77f8:	28 f3       	brcs	.-54     	; 0x77c4 <sampling_lc+0x17a>
    77fa:	82 2f       	mov	r24, r18
    77fc:	90 e0       	ldi	r25, 0x00	; 0
         samplingADC(par, uu0, 20, HiPinR_L, 0, 0, HiPinR_L);
         par |= samplingADC_cumul;
      }
      i=20; while (i--)         // equivalent to for (i=0;i<20;i++) but saves 48 bytes of flash????
    77fe:	88 0f       	add	r24, r24
    7800:	99 1f       	adc	r25, r25
      {
         if (uu[i]>=uu0[i]) uu[i]-=uu0[i];
    7802:	e1 e0       	ldi	r30, 0x01	; 1
    7804:	f0 e0       	ldi	r31, 0x00	; 0
    7806:	ec 0f       	add	r30, r28
    7808:	fd 1f       	adc	r31, r29
    780a:	e8 0f       	add	r30, r24
    780c:	f9 1f       	adc	r31, r25
    780e:	40 81       	ld	r20, Z
    7810:	51 81       	ldd	r21, Z+1	; 0x01
    7812:	af ef       	ldi	r26, 0xFF	; 255
    7814:	b1 e0       	ldi	r27, 0x01	; 1
    7816:	ac 0f       	add	r26, r28
    7818:	bd 1f       	adc	r27, r29
    781a:	a8 0f       	add	r26, r24
    781c:	b9 1f       	adc	r27, r25
    781e:	8d 91       	ld	r24, X+
    7820:	9c 91       	ld	r25, X
    7822:	48 17       	cp	r20, r24
    7824:	59 07       	cpc	r21, r25
    7826:	28 f0       	brcs	.+10     	; 0x7832 <sampling_lc+0x1e8>
    7828:	48 1b       	sub	r20, r24
    782a:	59 0b       	sbc	r21, r25
    782c:	51 83       	std	Z+1, r21	; 0x01
    782e:	40 83       	st	Z, r20
    7830:	e2 cf       	rjmp	.-60     	; 0x77f6 <sampling_lc+0x1ac>
    7832:	11 82       	std	Z+1, r1	; 0x01
    7834:	10 82       	st	Z, r1
    7836:	df cf       	rjmp	.-66     	; 0x77f6 <sampling_lc+0x1ac>
    7838:	8f 3f       	cpi	r24, 0xFF	; 255
         else uu[i]=0;
    783a:	09 f4       	brne	.+2      	; 0x783e <sampling_lc+0x1f4>
    783c:	ab cf       	rjmp	.-170    	; 0x7794 <sampling_lc+0x14a>
    783e:	fe 01       	movw	r30, r28
      }
//   } else {
    }
    // low frequency: no reference measurement needed, but do scale amplitude by number of accumulated samples
    i=255;
    while (i--) uu[i]>>=3;   // divide all samples by 8
    7840:	31 96       	adiw	r30, 0x01	; 1
    7842:	e8 0f       	add	r30, r24
    7844:	f1 1d       	adc	r31, r1
    7846:	e8 0f       	add	r30, r24
    7848:	f1 1d       	adc	r31, r1
    784a:	20 81       	ld	r18, Z
    784c:	31 81       	ldd	r19, Z+1	; 0x01
    784e:	b3 e0       	ldi	r27, 0x03	; 3
    7850:	36 95       	lsr	r19
    7852:	27 95       	ror	r18
    7854:	ba 95       	dec	r27
    7856:	e1 f7       	brne	.-8      	; 0x7850 <sampling_lc+0x206>
    7858:	31 83       	std	Z+1, r19	; 0x01
    785a:	20 83       	st	Z, r18
    785c:	81 50       	subi	r24, 0x01	; 1
    785e:	ec cf       	rjmp	.-40     	; 0x7838 <sampling_lc+0x1ee>
    7860:	65 01       	movw	r12, r10
    7862:	e1 2c       	mov	r14, r1
    7864:	f1 2c       	mov	r15, r1
    7866:	95 01       	movw	r18, r10
	 lcd_data('p');
         DisplayValue16((period*10)/64,-1,' ',4);
 #endif

   unsigned long vv;
   vv = (unsigned long)period;         // measured period with 6 fraction bits, before applying shift, is < 256*64 = 2^14
    7868:	d5 01       	movw	r26, r10
    786a:	3d d1       	rcall	.+634    	; 0x7ae6 <__umulhisi3>
    786c:	23 e3       	ldi	r18, 0x33	; 51
   vv = vv*vv;                            // vv < 2^28   ; this is (except for shift)  d<<12
    786e:	30 e0       	ldi	r19, 0x00	; 0
    7870:	40 e0       	ldi	r20, 0x00	; 0
    7872:	50 e0       	ldi	r21, 0x00	; 0
    7874:	f4 d0       	rcall	.+488    	; 0x7a5e <__udivmodsi4>
//   vv=(vv>>10)*12368;		// vv < 2^32   ; is (d<<2)/(2*pi*fclock)^2 * 1e21 >>3
				// that 12368 is calculated as 1/(2*pi*16e6)**2*1e21 /8, for 16 MHz CPU clock
				// 1e21 / (2*pi*16e6)**2 / (8 * 1024)      = 12.07842632, which can be computed
				// with a divide by 51 and a mul with 616 (= 12.07843137) .
				// whith better accuracy than   12368/1024 = 12.07812500
   vv = (vv/51)*616;
    7876:	a8 e6       	ldi	r26, 0x68	; 104
    7878:	b2 e0       	ldi	r27, 0x02	; 2
    787a:	4a d1       	rcall	.+660    	; 0x7b10 <__muluhisi3>
    787c:	96 94       	lsr	r9
    787e:	87 94       	ror	r8
    7880:	94 01       	movw	r18, r8
    7882:	40 e0       	ldi	r20, 0x00	; 0
    7884:	50 e0       	ldi	r21, 0x00	; 0
    7886:	eb d0       	rcall	.+470    	; 0x7a5e <__udivmodsi4>
    7888:	c3 01       	movw	r24, r6
#else
   #error "CPU clocks other than 8, 16  and 20 MHz not yet supported for SamplingADC"
   vv = 0;
#endif
//   vv/=lc_cpar;                          //          ; is (d<<2)/(2*pi*fclock)^2/c * 1e9 >>3
   vv /= (lc_cpar>>1);                          //          ; is (d<<2)/(2*pi*fclock)^2/c * 1e9 >>2
    788a:	88 0f       	add	r24, r24
    788c:	99 1f       	adc	r25, r25
    788e:	19 01       	movw	r2, r18
    7890:	2a 01       	movw	r4, r20
    7892:	04 c0       	rjmp	.+8      	; 0x789c <sampling_lc+0x252>
    7894:	22 0c       	add	r2, r2
    7896:	33 1c       	adc	r3, r3
	// shift for 16 MHz 0, 2,  4; for 8 MHz 1, 3,  5
        // resulting factor 2,32,512            8,128,2048 
//   vv<<=1+2*shift;                      //          ; is L in 1e-9 H  
   vv <<= 2*shift;                      //          ; is L in 1e-9 H  
    7898:	44 1c       	adc	r4, r4
    789a:	55 1c       	adc	r5, r5
    789c:	8a 95       	dec	r24
    789e:	d2 f7       	brpl	.-12     	; 0x7894 <sampling_lc+0x24a>
    78a0:	20 92 ba 01 	sts	0x01BA, r2
    78a4:	30 92 bb 01 	sts	0x01BB, r3
    78a8:	40 92 bc 01 	sts	0x01BC, r4
    78ac:	50 92 bd 01 	sts	0x01BD, r5
                        // not nice: the nH number will always be even; then again, do we really measure that precisely?
   lc_lx = vv;
    78b0:	80 91 a1 01 	lds	r24, 0x01A1
    78b4:	90 91 a2 01 	lds	r25, 0x01A2
    78b8:	a0 91 a3 01 	lds	r26, 0x01A3
    78bc:	b0 91 a4 01 	lds	r27, 0x01A4
   // inductor_lpre = 0, no Inductor found 
   // unductor_lpre = 1,  rx is above 2100 Ohm
   // inductor_lpre = -5, Inductance searched without 680 Ohm, rx is below 24 Ohm
   // inductor_lpre = -4,  Inductance is searched with 680i Ohm, 24 < rx < 2100
   // probably search of 
   if (inductor_lx>2) {
    78c0:	03 97       	sbiw	r24, 0x03	; 3
    78c2:	a1 05       	cpc	r26, r1
    78c4:	b1 05       	cpc	r27, r1
    78c6:	40 f0       	brcs	.+16     	; 0x78d8 <sampling_lc+0x28e>
    78c8:	10 92 ba 01 	sts	0x01BA, r1
    78cc:	10 92 bb 01 	sts	0x01BB, r1
    78d0:	10 92 bc 01 	sts	0x01BC, r1
    78d4:	10 92 bd 01 	sts	0x01BD, r1
      // if traditional measurement gave some meaningful-looking value ( > 20 uH, but that's rather arbitrary)
      // discard the new one, it's probably self-resonance
      // note that if a sizeable cap is in parallel, the normal measurement doesn't come up with an answer
      lc_lx=0;
    78d8:	a1 14       	cp	r10, r1
    78da:	b1 04       	cpc	r11, r1
    78dc:	69 f4       	brne	.+26     	; 0x78f8 <sampling_lc+0x2ae>
    78de:	10 92 b9 01 	sts	0x01B9, r1
    78e2:	10 92 b8 01 	sts	0x01B8, r1
    78e6:	10 92 ba 01 	sts	0x01BA, r1
   }

   // freq/Hz = F_CPU/d
   if (period==0) {
    78ea:	10 92 bb 01 	sts	0x01BB, r1
      lc_qx = 0;
    78ee:	10 92 bc 01 	sts	0x01BC, r1
    78f2:	10 92 bd 01 	sts	0x01BD, r1
      lc_lx = 0;
    78f6:	27 c0       	rjmp	.+78     	; 0x7946 <sampling_lc+0x2fc>
    78f8:	27 e0       	ldi	r18, 0x07	; 7
    78fa:	30 e0       	ldi	r19, 0x00	; 0
    78fc:	26 19       	sub	r18, r6
    78fe:	37 09       	sbc	r19, r7
    7900:	80 e0       	ldi	r24, 0x00	; 0
    7902:	94 e2       	ldi	r25, 0x24	; 36
    7904:	a4 ef       	ldi	r26, 0xF4	; 244
   DisplayValue16(shift,0,' ',3);
   DisplayValue16(dist0,0,' ',4);
   report_buf(ii,6);
   lcd_refresh();
#endif
      return;
    7906:	b0 e0       	ldi	r27, 0x00	; 0
#if F_CPU>=16000000UL
   vv = (unsigned long)period<<1;
#else
   vv = (unsigned long)period;
#endif
   lc_fx = ((F_CPU<<(7-shift))/vv);
    7908:	bc 01       	movw	r22, r24
    790a:	cd 01       	movw	r24, r26
    790c:	04 c0       	rjmp	.+8      	; 0x7916 <sampling_lc+0x2cc>
    790e:	66 0f       	add	r22, r22
    7910:	77 1f       	adc	r23, r23
    7912:	88 1f       	adc	r24, r24
    7914:	99 1f       	adc	r25, r25
    7916:	2a 95       	dec	r18
    7918:	d2 f7       	brpl	.-12     	; 0x790e <sampling_lc+0x2c4>
    791a:	a7 01       	movw	r20, r14
    791c:	96 01       	movw	r18, r12
    791e:	22 0f       	add	r18, r18
    7920:	33 1f       	adc	r19, r19
    7922:	44 1f       	adc	r20, r20
    7924:	55 1f       	adc	r21, r21
    7926:	9b d0       	rcall	.+310    	; 0x7a5e <__udivmodsi4>
    7928:	20 93 b2 01 	sts	0x01B2, r18
   lcd_refresh();
#endif
      return;
   }
#if F_CPU>=16000000UL
   vv = (unsigned long)period<<1;
    792c:	30 93 b3 01 	sts	0x01B3, r19
    7930:	40 93 b4 01 	sts	0x01B4, r20
    7934:	50 93 b5 01 	sts	0x01B5, r21
#else
   vv = (unsigned long)period;
#endif
   lc_fx = ((F_CPU<<(7-shift))/vv);
    7938:	80 91 19 01 	lds	r24, 0x0119
    793c:	87 fd       	sbrc	r24, 7
    793e:	03 c0       	rjmp	.+6      	; 0x7946 <sampling_lc+0x2fc>
    7940:	8f ef       	ldi	r24, 0xFF	; 255
    7942:	80 93 19 01 	sts	0x0119, r24
    7946:	ca 5d       	subi	r28, 0xDA	; 218
    7948:	dd 4f       	sbci	r29, 0xFD	; 253

   if (inductor_lpre >= 0) inductor_lpre = -1; 	/* no ESR measurement! */
    794a:	e2 e1       	ldi	r30, 0x12	; 18
    794c:	92 c1       	rjmp	.+804    	; 0x7c72 <__epilogue_restores__>

0000794e <sampling_lc_calibrate>:
    794e:	cf 93       	push	r28
    7950:	df 93       	push	r29
    7952:	d8 2f       	mov	r29, r24
    7954:	0e 94 d0 0c 	call	0x19a0	; 0x19a0 <lcd_line1>
   return;
} /* end of sampling_lc() */
    7958:	86 e0       	ldi	r24, 0x06	; 6
    795a:	90 e0       	ldi	r25, 0x00	; 0
    795c:	0e 94 b5 0e 	call	0x1d6a	; 0x1d6a <lcd_fix_string>
    7960:	0e 94 6d 0e 	call	0x1cda	; 0x1cda <lcd_clear_line>
 #define C_DIFF_LIMIT 200   /* Tolerance of capacity to rewrite eeprom */
//   lcd_clear();
   lcd_line1();
   lcd_MEM2_string(cap_for_l_meas_str);		// "Cap for L meas?"
   lcd_clear_line();
   byte i = 0;		// no legal capacity value found
    7964:	c0 e0       	ldi	r28, 0x00	; 0
   do { 
      lc_cpartmp = 0;
    7966:	10 92 b7 01 	sts	0x01B7, r1
    796a:	10 92 b6 01 	sts	0x01B6, r1
      wait_about100ms();
    796e:	84 e1       	ldi	r24, 0x14	; 20
    7970:	0e 94 9b 09 	call	0x1336	; 0x1336 <sleep_5ms>
      ReadCapacity(TP1,TP3);
    7974:	62 e0       	ldi	r22, 0x02	; 2
    7976:	80 e0       	ldi	r24, 0x00	; 0
    7978:	0e 94 12 27 	call	0x4e24	; 0x4e24 <ReadCapacity>
      lcd_line2();
    797c:	0e 94 23 0d 	call	0x1a46	; 0x1a46 <lcd_line2>
      DisplayValue16(lc_cpartmp,-12,'F',4);
    7980:	24 e0       	ldi	r18, 0x04	; 4
    7982:	46 e4       	ldi	r20, 0x46	; 70
    7984:	64 ef       	ldi	r22, 0xF4	; 244
    7986:	80 91 b6 01 	lds	r24, 0x01B6
    798a:	90 91 b7 01 	lds	r25, 0x01B7
    798e:	0e 94 e4 0f 	call	0x1fc8	; 0x1fc8 <DisplayValue16>
      i++;
//      if ((lc_cpartmp<9500) || (lc_cpartmp>33000)) i=0;		// unstable or not connected
      if ((lc_cpartmp<3900) || (lc_cpartmp>34000)) i=0;		// unstable or not connected
    7992:	60 91 b6 01 	lds	r22, 0x01B6
    7996:	70 91 b7 01 	lds	r23, 0x01B7
    799a:	cb 01       	movw	r24, r22
    799c:	8c 53       	subi	r24, 0x3C	; 60
    799e:	9f 40       	sbci	r25, 0x0F	; 15
    79a0:	85 39       	cpi	r24, 0x95	; 149
    79a2:	95 47       	sbci	r25, 0x75	; 117
    79a4:	80 f4       	brcc	.+32     	; 0x79c6 <sampling_lc_calibrate+0x78>
      lc_cpartmp = 0;
      wait_about100ms();
      ReadCapacity(TP1,TP3);
      lcd_line2();
      DisplayValue16(lc_cpartmp,-12,'F',4);
      i++;
    79a6:	cf 5f       	subi	r28, 0xFF	; 255
//      if ((lc_cpartmp<9500) || (lc_cpartmp>33000)) i=0;		// unstable or not connected
      if ((lc_cpartmp<3900) || (lc_cpartmp>34000)) i=0;		// unstable or not connected
 #ifdef AUTO_LC_CAP
      if ((lc_cpartmp == 0) && (ww > 249)) break;	// a coil is connected in the AUTO_LC_CAP mode
 #endif
      if (i > 4) {	// Cx measurement was stable
    79a8:	c5 30       	cpi	r28, 0x05	; 5
    79aa:	70 f0       	brcs	.+28     	; 0x79c8 <sampling_lc_calibrate+0x7a>
           /* new cap value is out of tolerance */
 #else
        if (1)
 #endif
         {  /* rewrite new capacity value to eeprom and report OK */
            eeprom_write_word((uint16_t *)&lc_cpar_ee,lc_cpartmp);
    79ac:	81 e8       	ldi	r24, 0x81	; 129
    79ae:	93 e0       	ldi	r25, 0x03	; 3
    79b0:	f2 d1       	rcall	.+996    	; 0x7d96 <eeprom_write_word>
    79b2:	0e 94 59 0e 	call	0x1cb2	; 0x1cb2 <lcd_space>
	    lcd_space();
    79b6:	85 eb       	ldi	r24, 0xB5	; 181
            lcd_MEM_string(OK_str);	// Output "OK"
    79b8:	91 e0       	ldi	r25, 0x01	; 1
    79ba:	0e 94 b5 0e 	call	0x1d6a	; 0x1d6a <lcd_fix_string>
    79be:	84 e6       	ldi	r24, 0x64	; 100
            lcd_refresh();
            wait_about500ms();
    79c0:	0e 94 9b 09 	call	0x1336	; 0x1336 <sleep_5ms>
    79c4:	05 c0       	rjmp	.+10     	; 0x79d0 <sampling_lc_calibrate+0x82>
         }
         break;
    79c6:	c0 e0       	ldi	r28, 0x00	; 0
      ReadCapacity(TP1,TP3);
      lcd_line2();
      DisplayValue16(lc_cpartmp,-12,'F',4);
      i++;
//      if ((lc_cpartmp<9500) || (lc_cpartmp>33000)) i=0;		// unstable or not connected
      if ((lc_cpartmp<3900) || (lc_cpartmp>34000)) i=0;		// unstable or not connected
    79c8:	0e 94 6d 0e 	call	0x1cda	; 0x1cda <lcd_clear_line>
            lcd_refresh();
            wait_about500ms();
         }
         break;
      }  /* end (i > 4) */
      lcd_clear_line();
    79cc:	df 5f       	subi	r29, 0xFF	; 255
      lcd_refresh();
   } while (++ww != 0);
    79ce:	59 f6       	brne	.-106    	; 0x7966 <sampling_lc_calibrate+0x18>
    79d0:	0e 94 d0 0c 	call	0x19a0	; 0x19a0 <lcd_line1>
   lcd_line1();
    79d4:	df 91       	pop	r29
}
    79d6:	cf 91       	pop	r28
    79d8:	08 95       	ret

000079da <__mulsi3>:
    79da:	db 01       	movw	r26, r22
    79dc:	8f 93       	push	r24
    79de:	9f 93       	push	r25
    79e0:	97 d0       	rcall	.+302    	; 0x7b10 <__muluhisi3>
    79e2:	bf 91       	pop	r27
    79e4:	af 91       	pop	r26
    79e6:	a2 9f       	mul	r26, r18
    79e8:	80 0d       	add	r24, r0
    79ea:	91 1d       	adc	r25, r1
    79ec:	a3 9f       	mul	r26, r19
    79ee:	90 0d       	add	r25, r0
    79f0:	b2 9f       	mul	r27, r18
    79f2:	90 0d       	add	r25, r0
    79f4:	11 24       	eor	r1, r1
    79f6:	08 95       	ret

000079f8 <__udivmodqi4>:
    79f8:	99 1b       	sub	r25, r25
    79fa:	79 e0       	ldi	r23, 0x09	; 9
    79fc:	04 c0       	rjmp	.+8      	; 0x7a06 <__udivmodqi4_ep>

000079fe <__udivmodqi4_loop>:
    79fe:	99 1f       	adc	r25, r25
    7a00:	96 17       	cp	r25, r22
    7a02:	08 f0       	brcs	.+2      	; 0x7a06 <__udivmodqi4_ep>
    7a04:	96 1b       	sub	r25, r22

00007a06 <__udivmodqi4_ep>:
    7a06:	88 1f       	adc	r24, r24
    7a08:	7a 95       	dec	r23
    7a0a:	c9 f7       	brne	.-14     	; 0x79fe <__udivmodqi4_loop>
    7a0c:	80 95       	com	r24
    7a0e:	08 95       	ret

00007a10 <__udivmodhi4>:
    7a10:	aa 1b       	sub	r26, r26
    7a12:	bb 1b       	sub	r27, r27
    7a14:	51 e1       	ldi	r21, 0x11	; 17
    7a16:	07 c0       	rjmp	.+14     	; 0x7a26 <__udivmodhi4_ep>

00007a18 <__udivmodhi4_loop>:
    7a18:	aa 1f       	adc	r26, r26
    7a1a:	bb 1f       	adc	r27, r27
    7a1c:	a6 17       	cp	r26, r22
    7a1e:	b7 07       	cpc	r27, r23
    7a20:	10 f0       	brcs	.+4      	; 0x7a26 <__udivmodhi4_ep>
    7a22:	a6 1b       	sub	r26, r22
    7a24:	b7 0b       	sbc	r27, r23

00007a26 <__udivmodhi4_ep>:
    7a26:	88 1f       	adc	r24, r24
    7a28:	99 1f       	adc	r25, r25
    7a2a:	5a 95       	dec	r21
    7a2c:	a9 f7       	brne	.-22     	; 0x7a18 <__udivmodhi4_loop>
    7a2e:	80 95       	com	r24
    7a30:	90 95       	com	r25
    7a32:	bc 01       	movw	r22, r24
    7a34:	cd 01       	movw	r24, r26
    7a36:	08 95       	ret

00007a38 <__divmodhi4>:
    7a38:	97 fb       	bst	r25, 7
    7a3a:	07 2e       	mov	r0, r23
    7a3c:	16 f4       	brtc	.+4      	; 0x7a42 <__divmodhi4+0xa>
    7a3e:	00 94       	com	r0
    7a40:	06 d0       	rcall	.+12     	; 0x7a4e <__divmodhi4_neg1>
    7a42:	77 fd       	sbrc	r23, 7
    7a44:	08 d0       	rcall	.+16     	; 0x7a56 <__divmodhi4_neg2>
    7a46:	e4 df       	rcall	.-56     	; 0x7a10 <__udivmodhi4>
    7a48:	07 fc       	sbrc	r0, 7
    7a4a:	05 d0       	rcall	.+10     	; 0x7a56 <__divmodhi4_neg2>
    7a4c:	3e f4       	brtc	.+14     	; 0x7a5c <__divmodhi4_exit>

00007a4e <__divmodhi4_neg1>:
    7a4e:	90 95       	com	r25
    7a50:	81 95       	neg	r24
    7a52:	9f 4f       	sbci	r25, 0xFF	; 255
    7a54:	08 95       	ret

00007a56 <__divmodhi4_neg2>:
    7a56:	70 95       	com	r23
    7a58:	61 95       	neg	r22
    7a5a:	7f 4f       	sbci	r23, 0xFF	; 255

00007a5c <__divmodhi4_exit>:
    7a5c:	08 95       	ret

00007a5e <__udivmodsi4>:
    7a5e:	a1 e2       	ldi	r26, 0x21	; 33
    7a60:	1a 2e       	mov	r1, r26
    7a62:	aa 1b       	sub	r26, r26
    7a64:	bb 1b       	sub	r27, r27
    7a66:	fd 01       	movw	r30, r26
    7a68:	0d c0       	rjmp	.+26     	; 0x7a84 <__udivmodsi4_ep>

00007a6a <__udivmodsi4_loop>:
    7a6a:	aa 1f       	adc	r26, r26
    7a6c:	bb 1f       	adc	r27, r27
    7a6e:	ee 1f       	adc	r30, r30
    7a70:	ff 1f       	adc	r31, r31
    7a72:	a2 17       	cp	r26, r18
    7a74:	b3 07       	cpc	r27, r19
    7a76:	e4 07       	cpc	r30, r20
    7a78:	f5 07       	cpc	r31, r21
    7a7a:	20 f0       	brcs	.+8      	; 0x7a84 <__udivmodsi4_ep>
    7a7c:	a2 1b       	sub	r26, r18
    7a7e:	b3 0b       	sbc	r27, r19
    7a80:	e4 0b       	sbc	r30, r20
    7a82:	f5 0b       	sbc	r31, r21

00007a84 <__udivmodsi4_ep>:
    7a84:	66 1f       	adc	r22, r22
    7a86:	77 1f       	adc	r23, r23
    7a88:	88 1f       	adc	r24, r24
    7a8a:	99 1f       	adc	r25, r25
    7a8c:	1a 94       	dec	r1
    7a8e:	69 f7       	brne	.-38     	; 0x7a6a <__udivmodsi4_loop>
    7a90:	60 95       	com	r22
    7a92:	70 95       	com	r23
    7a94:	80 95       	com	r24
    7a96:	90 95       	com	r25
    7a98:	9b 01       	movw	r18, r22
    7a9a:	ac 01       	movw	r20, r24
    7a9c:	bd 01       	movw	r22, r26
    7a9e:	cf 01       	movw	r24, r30
    7aa0:	08 95       	ret

00007aa2 <__divmodsi4>:
    7aa2:	05 2e       	mov	r0, r21
    7aa4:	97 fb       	bst	r25, 7
    7aa6:	16 f4       	brtc	.+4      	; 0x7aac <__divmodsi4+0xa>
    7aa8:	00 94       	com	r0
    7aaa:	0f d0       	rcall	.+30     	; 0x7aca <__negsi2>
    7aac:	57 fd       	sbrc	r21, 7
    7aae:	05 d0       	rcall	.+10     	; 0x7aba <__divmodsi4_neg2>
    7ab0:	d6 df       	rcall	.-84     	; 0x7a5e <__udivmodsi4>
    7ab2:	07 fc       	sbrc	r0, 7
    7ab4:	02 d0       	rcall	.+4      	; 0x7aba <__divmodsi4_neg2>
    7ab6:	46 f4       	brtc	.+16     	; 0x7ac8 <__divmodsi4_exit>
    7ab8:	08 c0       	rjmp	.+16     	; 0x7aca <__negsi2>

00007aba <__divmodsi4_neg2>:
    7aba:	50 95       	com	r21
    7abc:	40 95       	com	r20
    7abe:	30 95       	com	r19
    7ac0:	21 95       	neg	r18
    7ac2:	3f 4f       	sbci	r19, 0xFF	; 255
    7ac4:	4f 4f       	sbci	r20, 0xFF	; 255
    7ac6:	5f 4f       	sbci	r21, 0xFF	; 255

00007ac8 <__divmodsi4_exit>:
    7ac8:	08 95       	ret

00007aca <__negsi2>:
    7aca:	90 95       	com	r25
    7acc:	80 95       	com	r24
    7ace:	70 95       	com	r23
    7ad0:	61 95       	neg	r22
    7ad2:	7f 4f       	sbci	r23, 0xFF	; 255
    7ad4:	8f 4f       	sbci	r24, 0xFF	; 255
    7ad6:	9f 4f       	sbci	r25, 0xFF	; 255
    7ad8:	08 95       	ret

00007ada <__tablejump2__>:
    7ada:	ee 0f       	add	r30, r30
    7adc:	ff 1f       	adc	r31, r31
    7ade:	05 90       	lpm	r0, Z+
    7ae0:	f4 91       	lpm	r31, Z
    7ae2:	e0 2d       	mov	r30, r0
    7ae4:	09 94       	ijmp

00007ae6 <__umulhisi3>:
    7ae6:	a2 9f       	mul	r26, r18
    7ae8:	b0 01       	movw	r22, r0
    7aea:	b3 9f       	mul	r27, r19
    7aec:	c0 01       	movw	r24, r0
    7aee:	a3 9f       	mul	r26, r19
    7af0:	70 0d       	add	r23, r0
    7af2:	81 1d       	adc	r24, r1
    7af4:	11 24       	eor	r1, r1
    7af6:	91 1d       	adc	r25, r1
    7af8:	b2 9f       	mul	r27, r18
    7afa:	70 0d       	add	r23, r0
    7afc:	81 1d       	adc	r24, r1
    7afe:	11 24       	eor	r1, r1
    7b00:	91 1d       	adc	r25, r1
    7b02:	08 95       	ret

00007b04 <__usmulhisi3>:
    7b04:	f0 df       	rcall	.-32     	; 0x7ae6 <__umulhisi3>

00007b06 <__usmulhisi3_tail>:
    7b06:	b7 ff       	sbrs	r27, 7
    7b08:	08 95       	ret
    7b0a:	82 1b       	sub	r24, r18
    7b0c:	93 0b       	sbc	r25, r19
    7b0e:	08 95       	ret

00007b10 <__muluhisi3>:
    7b10:	ea df       	rcall	.-44     	; 0x7ae6 <__umulhisi3>
    7b12:	a5 9f       	mul	r26, r21
    7b14:	90 0d       	add	r25, r0
    7b16:	b4 9f       	mul	r27, r20
    7b18:	90 0d       	add	r25, r0
    7b1a:	a4 9f       	mul	r26, r20
    7b1c:	80 0d       	add	r24, r0
    7b1e:	91 1d       	adc	r25, r1
    7b20:	11 24       	eor	r1, r1
    7b22:	08 95       	ret

00007b24 <__mulshisi3>:
    7b24:	b7 ff       	sbrs	r27, 7
    7b26:	f4 cf       	rjmp	.-24     	; 0x7b10 <__muluhisi3>

00007b28 <__mulohisi3>:
    7b28:	f3 df       	rcall	.-26     	; 0x7b10 <__muluhisi3>
    7b2a:	82 1b       	sub	r24, r18
    7b2c:	93 0b       	sbc	r25, r19
    7b2e:	08 95       	ret

00007b30 <__umulsidi3>:
    7b30:	e8 94       	clt

00007b32 <__umulsidi3_helper>:
    7b32:	df 93       	push	r29
    7b34:	cf 93       	push	r28
    7b36:	fc 01       	movw	r30, r24
    7b38:	db 01       	movw	r26, r22
    7b3a:	d5 df       	rcall	.-86     	; 0x7ae6 <__umulhisi3>
    7b3c:	7f 93       	push	r23
    7b3e:	6f 93       	push	r22
    7b40:	e9 01       	movw	r28, r18
    7b42:	9a 01       	movw	r18, r20
    7b44:	ac 01       	movw	r20, r24
    7b46:	bf 93       	push	r27
    7b48:	af 93       	push	r26
    7b4a:	3f 93       	push	r19
    7b4c:	2f 93       	push	r18
    7b4e:	df 01       	movw	r26, r30
    7b50:	ca df       	rcall	.-108    	; 0x7ae6 <__umulhisi3>
    7b52:	26 f4       	brtc	.+8      	; 0x7b5c <__umulsidi3_helper+0x2a>
    7b54:	6c 1b       	sub	r22, r28
    7b56:	7d 0b       	sbc	r23, r29
    7b58:	82 0b       	sbc	r24, r18
    7b5a:	93 0b       	sbc	r25, r19
    7b5c:	9e 01       	movw	r18, r28
    7b5e:	eb 01       	movw	r28, r22
    7b60:	fc 01       	movw	r30, r24
    7b62:	a2 d0       	rcall	.+324    	; 0x7ca8 <__muldi3_6>
    7b64:	af 91       	pop	r26
    7b66:	bf 91       	pop	r27
    7b68:	2f 91       	pop	r18
    7b6a:	3f 91       	pop	r19
    7b6c:	9d d0       	rcall	.+314    	; 0x7ca8 <__muldi3_6>
    7b6e:	be 01       	movw	r22, r28
    7b70:	cf 01       	movw	r24, r30
    7b72:	f9 01       	movw	r30, r18
    7b74:	2f 91       	pop	r18
    7b76:	3f 91       	pop	r19
    7b78:	cf 91       	pop	r28
    7b7a:	df 91       	pop	r29
    7b7c:	08 95       	ret

00007b7e <__umoddi3>:
    7b7e:	68 94       	set
    7b80:	01 c0       	rjmp	.+2      	; 0x7b84 <__udivdi3_umoddi3>

00007b82 <__udivdi3>:
    7b82:	e8 94       	clt

00007b84 <__udivdi3_umoddi3>:
    7b84:	8f 92       	push	r8
    7b86:	9f 92       	push	r9
    7b88:	cf 93       	push	r28
    7b8a:	df 93       	push	r29
    7b8c:	05 d0       	rcall	.+10     	; 0x7b98 <__udivmod64>
    7b8e:	df 91       	pop	r29
    7b90:	cf 91       	pop	r28
    7b92:	9f 90       	pop	r9
    7b94:	8f 90       	pop	r8
    7b96:	08 95       	ret

00007b98 <__udivmod64>:
    7b98:	88 24       	eor	r8, r8
    7b9a:	99 24       	eor	r9, r9
    7b9c:	f4 01       	movw	r30, r8
    7b9e:	e4 01       	movw	r28, r8
    7ba0:	b0 e4       	ldi	r27, 0x40	; 64
    7ba2:	9f 93       	push	r25
    7ba4:	aa 27       	eor	r26, r26
    7ba6:	9a 15       	cp	r25, r10
    7ba8:	8b 04       	cpc	r8, r11
    7baa:	9c 04       	cpc	r9, r12
    7bac:	ed 05       	cpc	r30, r13
    7bae:	fe 05       	cpc	r31, r14
    7bb0:	cf 05       	cpc	r28, r15
    7bb2:	d0 07       	cpc	r29, r16
    7bb4:	a1 07       	cpc	r26, r17
    7bb6:	98 f4       	brcc	.+38     	; 0x7bde <__udivmod64+0x46>
    7bb8:	ad 2f       	mov	r26, r29
    7bba:	dc 2f       	mov	r29, r28
    7bbc:	cf 2f       	mov	r28, r31
    7bbe:	fe 2f       	mov	r31, r30
    7bc0:	e9 2d       	mov	r30, r9
    7bc2:	98 2c       	mov	r9, r8
    7bc4:	89 2e       	mov	r8, r25
    7bc6:	98 2f       	mov	r25, r24
    7bc8:	87 2f       	mov	r24, r23
    7bca:	76 2f       	mov	r23, r22
    7bcc:	65 2f       	mov	r22, r21
    7bce:	54 2f       	mov	r21, r20
    7bd0:	43 2f       	mov	r20, r19
    7bd2:	32 2f       	mov	r19, r18
    7bd4:	22 27       	eor	r18, r18
    7bd6:	b8 50       	subi	r27, 0x08	; 8
    7bd8:	31 f7       	brne	.-52     	; 0x7ba6 <__udivmod64+0xe>
    7bda:	bf 91       	pop	r27
    7bdc:	27 c0       	rjmp	.+78     	; 0x7c2c <__udivmod64+0x94>
    7bde:	1b 2e       	mov	r1, r27
    7be0:	bf 91       	pop	r27
    7be2:	bb 27       	eor	r27, r27
    7be4:	22 0f       	add	r18, r18
    7be6:	33 1f       	adc	r19, r19
    7be8:	44 1f       	adc	r20, r20
    7bea:	55 1f       	adc	r21, r21
    7bec:	66 1f       	adc	r22, r22
    7bee:	77 1f       	adc	r23, r23
    7bf0:	88 1f       	adc	r24, r24
    7bf2:	99 1f       	adc	r25, r25
    7bf4:	88 1c       	adc	r8, r8
    7bf6:	99 1c       	adc	r9, r9
    7bf8:	ee 1f       	adc	r30, r30
    7bfa:	ff 1f       	adc	r31, r31
    7bfc:	cc 1f       	adc	r28, r28
    7bfe:	dd 1f       	adc	r29, r29
    7c00:	aa 1f       	adc	r26, r26
    7c02:	bb 1f       	adc	r27, r27
    7c04:	8a 14       	cp	r8, r10
    7c06:	9b 04       	cpc	r9, r11
    7c08:	ec 05       	cpc	r30, r12
    7c0a:	fd 05       	cpc	r31, r13
    7c0c:	ce 05       	cpc	r28, r14
    7c0e:	df 05       	cpc	r29, r15
    7c10:	a0 07       	cpc	r26, r16
    7c12:	b1 07       	cpc	r27, r17
    7c14:	48 f0       	brcs	.+18     	; 0x7c28 <__udivmod64+0x90>
    7c16:	8a 18       	sub	r8, r10
    7c18:	9b 08       	sbc	r9, r11
    7c1a:	ec 09       	sbc	r30, r12
    7c1c:	fd 09       	sbc	r31, r13
    7c1e:	ce 09       	sbc	r28, r14
    7c20:	df 09       	sbc	r29, r15
    7c22:	a0 0b       	sbc	r26, r16
    7c24:	b1 0b       	sbc	r27, r17
    7c26:	21 60       	ori	r18, 0x01	; 1
    7c28:	1a 94       	dec	r1
    7c2a:	e1 f6       	brne	.-72     	; 0x7be4 <__udivmod64+0x4c>
    7c2c:	2e f4       	brtc	.+10     	; 0x7c38 <__udivmod64+0xa0>
    7c2e:	94 01       	movw	r18, r8
    7c30:	af 01       	movw	r20, r30
    7c32:	be 01       	movw	r22, r28
    7c34:	cd 01       	movw	r24, r26
    7c36:	00 0c       	add	r0, r0
    7c38:	08 95       	ret

00007c3a <__prologue_saves__>:
    7c3a:	2f 92       	push	r2
    7c3c:	3f 92       	push	r3
    7c3e:	4f 92       	push	r4
    7c40:	5f 92       	push	r5
    7c42:	6f 92       	push	r6
    7c44:	7f 92       	push	r7
    7c46:	8f 92       	push	r8
    7c48:	9f 92       	push	r9
    7c4a:	af 92       	push	r10
    7c4c:	bf 92       	push	r11
    7c4e:	cf 92       	push	r12
    7c50:	df 92       	push	r13
    7c52:	ef 92       	push	r14
    7c54:	ff 92       	push	r15
    7c56:	0f 93       	push	r16
    7c58:	1f 93       	push	r17
    7c5a:	cf 93       	push	r28
    7c5c:	df 93       	push	r29
    7c5e:	cd b7       	in	r28, 0x3d	; 61
    7c60:	de b7       	in	r29, 0x3e	; 62
    7c62:	ca 1b       	sub	r28, r26
    7c64:	db 0b       	sbc	r29, r27
    7c66:	0f b6       	in	r0, 0x3f	; 63
    7c68:	f8 94       	cli
    7c6a:	de bf       	out	0x3e, r29	; 62
    7c6c:	0f be       	out	0x3f, r0	; 63
    7c6e:	cd bf       	out	0x3d, r28	; 61
    7c70:	09 94       	ijmp

00007c72 <__epilogue_restores__>:
    7c72:	2a 88       	ldd	r2, Y+18	; 0x12
    7c74:	39 88       	ldd	r3, Y+17	; 0x11
    7c76:	48 88       	ldd	r4, Y+16	; 0x10
    7c78:	5f 84       	ldd	r5, Y+15	; 0x0f
    7c7a:	6e 84       	ldd	r6, Y+14	; 0x0e
    7c7c:	7d 84       	ldd	r7, Y+13	; 0x0d
    7c7e:	8c 84       	ldd	r8, Y+12	; 0x0c
    7c80:	9b 84       	ldd	r9, Y+11	; 0x0b
    7c82:	aa 84       	ldd	r10, Y+10	; 0x0a
    7c84:	b9 84       	ldd	r11, Y+9	; 0x09
    7c86:	c8 84       	ldd	r12, Y+8	; 0x08
    7c88:	df 80       	ldd	r13, Y+7	; 0x07
    7c8a:	ee 80       	ldd	r14, Y+6	; 0x06
    7c8c:	fd 80       	ldd	r15, Y+5	; 0x05
    7c8e:	0c 81       	ldd	r16, Y+4	; 0x04
    7c90:	1b 81       	ldd	r17, Y+3	; 0x03
    7c92:	aa 81       	ldd	r26, Y+2	; 0x02
    7c94:	b9 81       	ldd	r27, Y+1	; 0x01
    7c96:	ce 0f       	add	r28, r30
    7c98:	d1 1d       	adc	r29, r1
    7c9a:	0f b6       	in	r0, 0x3f	; 63
    7c9c:	f8 94       	cli
    7c9e:	de bf       	out	0x3e, r29	; 62
    7ca0:	0f be       	out	0x3f, r0	; 63
    7ca2:	cd bf       	out	0x3d, r28	; 61
    7ca4:	ed 01       	movw	r28, r26
    7ca6:	08 95       	ret

00007ca8 <__muldi3_6>:
    7ca8:	1e df       	rcall	.-452    	; 0x7ae6 <__umulhisi3>
    7caa:	46 0f       	add	r20, r22
    7cac:	57 1f       	adc	r21, r23
    7cae:	c8 1f       	adc	r28, r24
    7cb0:	d9 1f       	adc	r29, r25
    7cb2:	08 f4       	brcc	.+2      	; 0x7cb6 <__muldi3_6+0xe>
    7cb4:	31 96       	adiw	r30, 0x01	; 1
    7cb6:	08 95       	ret

00007cb8 <__ultoa_ncheck>:
    7cb8:	bb 27       	eor	r27, r27

00007cba <__ultoa_common>:
    7cba:	fa 01       	movw	r30, r20
    7cbc:	a6 2f       	mov	r26, r22
    7cbe:	62 17       	cp	r22, r18
    7cc0:	71 05       	cpc	r23, r1
    7cc2:	81 05       	cpc	r24, r1
    7cc4:	91 05       	cpc	r25, r1
    7cc6:	33 0b       	sbc	r19, r19
    7cc8:	30 fb       	bst	r19, 0
    7cca:	66 f0       	brts	.+24     	; 0x7ce4 <__ultoa_common+0x2a>
    7ccc:	aa 27       	eor	r26, r26
    7cce:	66 0f       	add	r22, r22
    7cd0:	77 1f       	adc	r23, r23
    7cd2:	88 1f       	adc	r24, r24
    7cd4:	99 1f       	adc	r25, r25
    7cd6:	aa 1f       	adc	r26, r26
    7cd8:	a2 17       	cp	r26, r18
    7cda:	10 f0       	brcs	.+4      	; 0x7ce0 <__ultoa_common+0x26>
    7cdc:	a2 1b       	sub	r26, r18
    7cde:	63 95       	inc	r22
    7ce0:	38 50       	subi	r19, 0x08	; 8
    7ce2:	a9 f7       	brne	.-22     	; 0x7cce <__ultoa_common+0x14>
    7ce4:	a0 5d       	subi	r26, 0xD0	; 208
    7ce6:	aa 33       	cpi	r26, 0x3A	; 58
    7ce8:	08 f0       	brcs	.+2      	; 0x7cec <__ultoa_common+0x32>
    7cea:	a9 5d       	subi	r26, 0xD9	; 217
    7cec:	a1 93       	st	Z+, r26
    7cee:	36 f7       	brtc	.-52     	; 0x7cbc <__ultoa_common+0x2>
    7cf0:	b1 11       	cpse	r27, r1
    7cf2:	b1 93       	st	Z+, r27
    7cf4:	10 82       	st	Z, r1
    7cf6:	ca 01       	movw	r24, r20
    7cf8:	23 c0       	rjmp	.+70     	; 0x7d40 <strrev>

00007cfa <utoa>:
    7cfa:	45 32       	cpi	r20, 0x25	; 37
    7cfc:	51 05       	cpc	r21, r1
    7cfe:	18 f4       	brcc	.+6      	; 0x7d06 <utoa+0xc>
    7d00:	42 30       	cpi	r20, 0x02	; 2
    7d02:	08 f0       	brcs	.+2      	; 0x7d06 <utoa+0xc>
    7d04:	04 c0       	rjmp	.+8      	; 0x7d0e <__utoa_ncheck>
    7d06:	fb 01       	movw	r30, r22
    7d08:	10 82       	st	Z, r1
    7d0a:	cb 01       	movw	r24, r22
    7d0c:	08 95       	ret

00007d0e <__utoa_ncheck>:
    7d0e:	bb 27       	eor	r27, r27

00007d10 <__utoa_common>:
    7d10:	fb 01       	movw	r30, r22
    7d12:	55 27       	eor	r21, r21
    7d14:	aa 27       	eor	r26, r26
    7d16:	88 0f       	add	r24, r24
    7d18:	99 1f       	adc	r25, r25
    7d1a:	aa 1f       	adc	r26, r26
    7d1c:	a4 17       	cp	r26, r20
    7d1e:	10 f0       	brcs	.+4      	; 0x7d24 <__utoa_common+0x14>
    7d20:	a4 1b       	sub	r26, r20
    7d22:	83 95       	inc	r24
    7d24:	50 51       	subi	r21, 0x10	; 16
    7d26:	b9 f7       	brne	.-18     	; 0x7d16 <__utoa_common+0x6>
    7d28:	a0 5d       	subi	r26, 0xD0	; 208
    7d2a:	aa 33       	cpi	r26, 0x3A	; 58
    7d2c:	08 f0       	brcs	.+2      	; 0x7d30 <__utoa_common+0x20>
    7d2e:	a9 5d       	subi	r26, 0xD9	; 217
    7d30:	a1 93       	st	Z+, r26
    7d32:	00 97       	sbiw	r24, 0x00	; 0
    7d34:	79 f7       	brne	.-34     	; 0x7d14 <__utoa_common+0x4>
    7d36:	b1 11       	cpse	r27, r1
    7d38:	b1 93       	st	Z+, r27
    7d3a:	11 92       	st	Z+, r1
    7d3c:	cb 01       	movw	r24, r22
    7d3e:	00 c0       	rjmp	.+0      	; 0x7d40 <strrev>

00007d40 <strrev>:
    7d40:	dc 01       	movw	r26, r24
    7d42:	fc 01       	movw	r30, r24
    7d44:	67 2f       	mov	r22, r23
    7d46:	71 91       	ld	r23, Z+
    7d48:	77 23       	and	r23, r23
    7d4a:	e1 f7       	brne	.-8      	; 0x7d44 <strrev+0x4>
    7d4c:	32 97       	sbiw	r30, 0x02	; 2
    7d4e:	04 c0       	rjmp	.+8      	; 0x7d58 <strrev+0x18>
    7d50:	7c 91       	ld	r23, X
    7d52:	6d 93       	st	X+, r22
    7d54:	70 83       	st	Z, r23
    7d56:	62 91       	ld	r22, -Z
    7d58:	ae 17       	cp	r26, r30
    7d5a:	bf 07       	cpc	r27, r31
    7d5c:	c8 f3       	brcs	.-14     	; 0x7d50 <strrev+0x10>
    7d5e:	08 95       	ret

00007d60 <eeprom_read_byte>:
    7d60:	f9 99       	sbic	0x1f, 1	; 31
    7d62:	fe cf       	rjmp	.-4      	; 0x7d60 <eeprom_read_byte>
    7d64:	92 bd       	out	0x22, r25	; 34
    7d66:	81 bd       	out	0x21, r24	; 33
    7d68:	f8 9a       	sbi	0x1f, 0	; 31
    7d6a:	99 27       	eor	r25, r25
    7d6c:	80 b5       	in	r24, 0x20	; 32
    7d6e:	08 95       	ret

00007d70 <eeprom_read_word>:
    7d70:	a8 e1       	ldi	r26, 0x18	; 24
    7d72:	b0 e0       	ldi	r27, 0x00	; 0
    7d74:	42 e0       	ldi	r20, 0x02	; 2
    7d76:	50 e0       	ldi	r21, 0x00	; 0
    7d78:	13 c0       	rjmp	.+38     	; 0x7da0 <eeprom_read_blraw>

00007d7a <eeprom_write_byte>:
    7d7a:	26 2f       	mov	r18, r22

00007d7c <eeprom_write_r18>:
    7d7c:	f9 99       	sbic	0x1f, 1	; 31
    7d7e:	fe cf       	rjmp	.-4      	; 0x7d7c <eeprom_write_r18>
    7d80:	1f ba       	out	0x1f, r1	; 31
    7d82:	92 bd       	out	0x22, r25	; 34
    7d84:	81 bd       	out	0x21, r24	; 33
    7d86:	20 bd       	out	0x20, r18	; 32
    7d88:	0f b6       	in	r0, 0x3f	; 63
    7d8a:	f8 94       	cli
    7d8c:	fa 9a       	sbi	0x1f, 2	; 31
    7d8e:	f9 9a       	sbi	0x1f, 1	; 31
    7d90:	0f be       	out	0x3f, r0	; 63
    7d92:	01 96       	adiw	r24, 0x01	; 1
    7d94:	08 95       	ret

00007d96 <eeprom_write_word>:
    7d96:	f1 df       	rcall	.-30     	; 0x7d7a <eeprom_write_byte>
    7d98:	27 2f       	mov	r18, r23
    7d9a:	f0 cf       	rjmp	.-32     	; 0x7d7c <eeprom_write_r18>

00007d9c <eeprom_read_block>:
    7d9c:	dc 01       	movw	r26, r24
    7d9e:	cb 01       	movw	r24, r22

00007da0 <eeprom_read_blraw>:
    7da0:	fc 01       	movw	r30, r24
    7da2:	f9 99       	sbic	0x1f, 1	; 31
    7da4:	fe cf       	rjmp	.-4      	; 0x7da2 <eeprom_read_blraw+0x2>
    7da6:	06 c0       	rjmp	.+12     	; 0x7db4 <eeprom_read_blraw+0x14>
    7da8:	f2 bd       	out	0x22, r31	; 34
    7daa:	e1 bd       	out	0x21, r30	; 33
    7dac:	f8 9a       	sbi	0x1f, 0	; 31
    7dae:	31 96       	adiw	r30, 0x01	; 1
    7db0:	00 b4       	in	r0, 0x20	; 32
    7db2:	0d 92       	st	X+, r0
    7db4:	41 50       	subi	r20, 0x01	; 1
    7db6:	50 40       	sbci	r21, 0x00	; 0
    7db8:	b8 f7       	brcc	.-18     	; 0x7da8 <eeprom_read_blraw+0x8>
    7dba:	08 95       	ret

00007dbc <_exit>:
    7dbc:	f8 94       	cli

00007dbe <__stop_program>:
    7dbe:	ff cf       	rjmp	.-2      	; 0x7dbe <__stop_program>
